
./init_task:     file format elf32-littlearm


Disassembly of section .text:

00008000 <_start>:
_start():
/home/hintik/dev/final/src/sources/userspace/crt0.s:10
;@ startovaci symbol - vstupni bod z jadra OS do uzivatelskeho programu
;@ v podstate jen ihned zavola nejakou C funkci, nepotrebujeme nic tak kritickeho, abychom to vsechno museli psal v ASM
;@ jen _start vlastne ani neni funkce, takze by tento vstupni bod mel byt psany takto; rovnez je treba se ujistit, ze
;@ je tento symbol relokovany spravne na 0x8000 (tam OS ocekava, ze se nachazi vstupni bod)
_start:
    bl __crt0_run
    8000:	eb000016 	bl	8060 <__crt0_run>

00008004 <_hang>:
_hang():
/home/hintik/dev/final/src/sources/userspace/crt0.s:13
    ;@ z funkce __crt0_run by se nemel proces uz vratit, ale kdyby neco, tak se zacyklime
_hang:
    b _hang
    8004:	eafffffe 	b	8004 <_hang>

00008008 <__crt0_init_bss>:
__crt0_init_bss():
/home/hintik/dev/final/src/sources/userspace/crt0.c:10

extern unsigned int __bss_start;
extern unsigned int __bss_end;

void __crt0_init_bss()
{
    8008:	e52db004 	push	{fp}		; (str fp, [sp, #-4]!)
    800c:	e28db000 	add	fp, sp, #0
    8010:	e24dd00c 	sub	sp, sp, #12
/home/hintik/dev/final/src/sources/userspace/crt0.c:11
    for (unsigned int* cur = &__bss_start; cur < &__bss_end; cur++)
    8014:	e59f303c 	ldr	r3, [pc, #60]	; 8058 <__crt0_init_bss+0x50>
    8018:	e50b3008 	str	r3, [fp, #-8]
    801c:	ea000005 	b	8038 <__crt0_init_bss+0x30>
/home/hintik/dev/final/src/sources/userspace/crt0.c:12 (discriminator 3)
        *cur = 0;
    8020:	e51b3008 	ldr	r3, [fp, #-8]
    8024:	e3a02000 	mov	r2, #0
    8028:	e5832000 	str	r2, [r3]
/home/hintik/dev/final/src/sources/userspace/crt0.c:11 (discriminator 3)
    for (unsigned int* cur = &__bss_start; cur < &__bss_end; cur++)
    802c:	e51b3008 	ldr	r3, [fp, #-8]
    8030:	e2833004 	add	r3, r3, #4
    8034:	e50b3008 	str	r3, [fp, #-8]
/home/hintik/dev/final/src/sources/userspace/crt0.c:11 (discriminator 1)
    8038:	e51b3008 	ldr	r3, [fp, #-8]
    803c:	e59f2018 	ldr	r2, [pc, #24]	; 805c <__crt0_init_bss+0x54>
    8040:	e1530002 	cmp	r3, r2
    8044:	3afffff5 	bcc	8020 <__crt0_init_bss+0x18>
/home/hintik/dev/final/src/sources/userspace/crt0.c:13
}
    8048:	e320f000 	nop	{0}
    804c:	e28bd000 	add	sp, fp, #0
    8050:	e49db004 	pop	{fp}		; (ldr fp, [sp], #4)
    8054:	e12fff1e 	bx	lr
    8058:	00009ce8 	andeq	r9, r0, r8, ror #25
    805c:	00009cf8 	strdeq	r9, [r0], -r8

00008060 <__crt0_run>:
__crt0_run():
/home/hintik/dev/final/src/sources/userspace/crt0.c:16

void __crt0_run()
{
    8060:	e92d4800 	push	{fp, lr}
    8064:	e28db004 	add	fp, sp, #4
    8068:	e24dd008 	sub	sp, sp, #8
/home/hintik/dev/final/src/sources/userspace/crt0.c:18
    // inicializace .bss sekce (vynulovani)
    __crt0_init_bss();
    806c:	ebffffe5 	bl	8008 <__crt0_init_bss>
/home/hintik/dev/final/src/sources/userspace/crt0.c:21

    // volani konstruktoru globalnich trid (C++)
    _cpp_startup();
    8070:	eb000040 	bl	8178 <_cpp_startup>
/home/hintik/dev/final/src/sources/userspace/crt0.c:26

    // volani funkce main
    // nebudeme se zde zabyvat predavanim parametru do funkce main
    // jinak by se mohly predavat napr. namapovane do virtualniho adr. prostoru a odkazem pres zasobnik (kam nam muze OS pushnout co chce)
    int result = main(0, 0);
    8074:	e3a01000 	mov	r1, #0
    8078:	e3a00000 	mov	r0, #0
    807c:	eb000069 	bl	8228 <main>
    8080:	e50b0008 	str	r0, [fp, #-8]
/home/hintik/dev/final/src/sources/userspace/crt0.c:29

    // volani destruktoru globalnich trid (C++)
    _cpp_shutdown();
    8084:	eb000051 	bl	81d0 <_cpp_shutdown>
/home/hintik/dev/final/src/sources/userspace/crt0.c:32

    // volani terminate() syscallu s navratovym kodem funkce main
    asm volatile("mov r0, %0" : : "r" (result));
    8088:	e51b3008 	ldr	r3, [fp, #-8]
    808c:	e1a00003 	mov	r0, r3
/home/hintik/dev/final/src/sources/userspace/crt0.c:33
    asm volatile("svc #1");
    8090:	ef000001 	svc	0x00000001
/home/hintik/dev/final/src/sources/userspace/crt0.c:34
}
    8094:	e320f000 	nop	{0}
    8098:	e24bd004 	sub	sp, fp, #4
    809c:	e8bd8800 	pop	{fp, pc}

000080a0 <__cxa_guard_acquire>:
__cxa_guard_acquire():
/home/hintik/dev/final/src/sources/userspace/cxxabi.cpp:11
	extern "C" int __cxa_guard_acquire (__guard *);
	extern "C" void __cxa_guard_release (__guard *);
	extern "C" void __cxa_guard_abort (__guard *);

	extern "C" int __cxa_guard_acquire (__guard *g)
	{
    80a0:	e52db004 	push	{fp}		; (str fp, [sp, #-4]!)
    80a4:	e28db000 	add	fp, sp, #0
    80a8:	e24dd00c 	sub	sp, sp, #12
    80ac:	e50b0008 	str	r0, [fp, #-8]
/home/hintik/dev/final/src/sources/userspace/cxxabi.cpp:12
		return !*(char *)(g);
    80b0:	e51b3008 	ldr	r3, [fp, #-8]
    80b4:	e5d33000 	ldrb	r3, [r3]
    80b8:	e3530000 	cmp	r3, #0
    80bc:	03a03001 	moveq	r3, #1
    80c0:	13a03000 	movne	r3, #0
    80c4:	e6ef3073 	uxtb	r3, r3
/home/hintik/dev/final/src/sources/userspace/cxxabi.cpp:13
	}
    80c8:	e1a00003 	mov	r0, r3
    80cc:	e28bd000 	add	sp, fp, #0
    80d0:	e49db004 	pop	{fp}		; (ldr fp, [sp], #4)
    80d4:	e12fff1e 	bx	lr

000080d8 <__cxa_guard_release>:
__cxa_guard_release():
/home/hintik/dev/final/src/sources/userspace/cxxabi.cpp:16

	extern "C" void __cxa_guard_release (__guard *g)
	{
    80d8:	e52db004 	push	{fp}		; (str fp, [sp, #-4]!)
    80dc:	e28db000 	add	fp, sp, #0
    80e0:	e24dd00c 	sub	sp, sp, #12
    80e4:	e50b0008 	str	r0, [fp, #-8]
/home/hintik/dev/final/src/sources/userspace/cxxabi.cpp:17
		*(char *)g = 1;
    80e8:	e51b3008 	ldr	r3, [fp, #-8]
    80ec:	e3a02001 	mov	r2, #1
    80f0:	e5c32000 	strb	r2, [r3]
/home/hintik/dev/final/src/sources/userspace/cxxabi.cpp:18
	}
    80f4:	e320f000 	nop	{0}
    80f8:	e28bd000 	add	sp, fp, #0
    80fc:	e49db004 	pop	{fp}		; (ldr fp, [sp], #4)
    8100:	e12fff1e 	bx	lr

00008104 <__cxa_guard_abort>:
__cxa_guard_abort():
/home/hintik/dev/final/src/sources/userspace/cxxabi.cpp:21

	extern "C" void __cxa_guard_abort (__guard *)
	{
    8104:	e52db004 	push	{fp}		; (str fp, [sp, #-4]!)
    8108:	e28db000 	add	fp, sp, #0
    810c:	e24dd00c 	sub	sp, sp, #12
    8110:	e50b0008 	str	r0, [fp, #-8]
/home/hintik/dev/final/src/sources/userspace/cxxabi.cpp:23

	}
    8114:	e320f000 	nop	{0}
    8118:	e28bd000 	add	sp, fp, #0
    811c:	e49db004 	pop	{fp}		; (ldr fp, [sp], #4)
    8120:	e12fff1e 	bx	lr

00008124 <__dso_handle>:
__dso_handle():
/home/hintik/dev/final/src/sources/userspace/cxxabi.cpp:27
}

extern "C" void __dso_handle()
{
    8124:	e52db004 	push	{fp}		; (str fp, [sp, #-4]!)
    8128:	e28db000 	add	fp, sp, #0
/home/hintik/dev/final/src/sources/userspace/cxxabi.cpp:29
    // ignore dtors for now
}
    812c:	e320f000 	nop	{0}
    8130:	e28bd000 	add	sp, fp, #0
    8134:	e49db004 	pop	{fp}		; (ldr fp, [sp], #4)
    8138:	e12fff1e 	bx	lr

0000813c <__cxa_atexit>:
__cxa_atexit():
/home/hintik/dev/final/src/sources/userspace/cxxabi.cpp:32

extern "C" void __cxa_atexit()
{
    813c:	e52db004 	push	{fp}		; (str fp, [sp, #-4]!)
    8140:	e28db000 	add	fp, sp, #0
/home/hintik/dev/final/src/sources/userspace/cxxabi.cpp:34
    // ignore dtors for now
}
    8144:	e320f000 	nop	{0}
    8148:	e28bd000 	add	sp, fp, #0
    814c:	e49db004 	pop	{fp}		; (ldr fp, [sp], #4)
    8150:	e12fff1e 	bx	lr

00008154 <__cxa_pure_virtual>:
__cxa_pure_virtual():
/home/hintik/dev/final/src/sources/userspace/cxxabi.cpp:37

extern "C" void __cxa_pure_virtual()
{
    8154:	e52db004 	push	{fp}		; (str fp, [sp, #-4]!)
    8158:	e28db000 	add	fp, sp, #0
/home/hintik/dev/final/src/sources/userspace/cxxabi.cpp:39
    // pure virtual method called
}
    815c:	e320f000 	nop	{0}
    8160:	e28bd000 	add	sp, fp, #0
    8164:	e49db004 	pop	{fp}		; (ldr fp, [sp], #4)
    8168:	e12fff1e 	bx	lr

0000816c <__aeabi_unwind_cpp_pr1>:
__aeabi_unwind_cpp_pr1():
/home/hintik/dev/final/src/sources/userspace/cxxabi.cpp:42

extern "C" void __aeabi_unwind_cpp_pr1()
{
    816c:	e52db004 	push	{fp}		; (str fp, [sp, #-4]!)
    8170:	e28db000 	add	fp, sp, #0
/home/hintik/dev/final/src/sources/userspace/cxxabi.cpp:43 (discriminator 1)
	while (true)
    8174:	eafffffe 	b	8174 <__aeabi_unwind_cpp_pr1+0x8>

00008178 <_cpp_startup>:
_cpp_startup():
/home/hintik/dev/final/src/sources/userspace/cxxabi.cpp:61
extern "C" dtor_ptr __DTOR_LIST__[0];
// konec pole destruktoru
extern "C" dtor_ptr __DTOR_END__[0];

extern "C" int _cpp_startup(void)
{
    8178:	e92d4800 	push	{fp, lr}
    817c:	e28db004 	add	fp, sp, #4
    8180:	e24dd008 	sub	sp, sp, #8
/home/hintik/dev/final/src/sources/userspace/cxxabi.cpp:66
	ctor_ptr* fnptr;
	
	// zavolame konstruktory globalnich C++ trid
	// v poli __CTOR_LIST__ jsou ukazatele na vygenerovane stuby volani konstruktoru
	for (fnptr = __CTOR_LIST__; fnptr < __CTOR_END__; fnptr++)
    8184:	e59f303c 	ldr	r3, [pc, #60]	; 81c8 <_cpp_startup+0x50>
    8188:	e50b3008 	str	r3, [fp, #-8]
/home/hintik/dev/final/src/sources/userspace/cxxabi.cpp:66 (discriminator 3)
    818c:	e51b3008 	ldr	r3, [fp, #-8]
    8190:	e59f2034 	ldr	r2, [pc, #52]	; 81cc <_cpp_startup+0x54>
    8194:	e1530002 	cmp	r3, r2
    8198:	2a000006 	bcs	81b8 <_cpp_startup+0x40>
/home/hintik/dev/final/src/sources/userspace/cxxabi.cpp:67 (discriminator 2)
		(*fnptr)();
    819c:	e51b3008 	ldr	r3, [fp, #-8]
    81a0:	e5933000 	ldr	r3, [r3]
    81a4:	e12fff33 	blx	r3
/home/hintik/dev/final/src/sources/userspace/cxxabi.cpp:66 (discriminator 2)
	for (fnptr = __CTOR_LIST__; fnptr < __CTOR_END__; fnptr++)
    81a8:	e51b3008 	ldr	r3, [fp, #-8]
    81ac:	e2833004 	add	r3, r3, #4
    81b0:	e50b3008 	str	r3, [fp, #-8]
    81b4:	eafffff4 	b	818c <_cpp_startup+0x14>
/home/hintik/dev/final/src/sources/userspace/cxxabi.cpp:69
	
	return 0;
    81b8:	e3a03000 	mov	r3, #0
/home/hintik/dev/final/src/sources/userspace/cxxabi.cpp:70
}
    81bc:	e1a00003 	mov	r0, r3
    81c0:	e24bd004 	sub	sp, fp, #4
    81c4:	e8bd8800 	pop	{fp, pc}
    81c8:	00009ce8 	andeq	r9, r0, r8, ror #25
    81cc:	00009ce8 	andeq	r9, r0, r8, ror #25

000081d0 <_cpp_shutdown>:
_cpp_shutdown():
/home/hintik/dev/final/src/sources/userspace/cxxabi.cpp:73

extern "C" int _cpp_shutdown(void)
{
    81d0:	e92d4800 	push	{fp, lr}
    81d4:	e28db004 	add	fp, sp, #4
    81d8:	e24dd008 	sub	sp, sp, #8
/home/hintik/dev/final/src/sources/userspace/cxxabi.cpp:77
	dtor_ptr* fnptr;
	
	// zavolame destruktory globalnich C++ trid
	for (fnptr = __DTOR_LIST__; fnptr < __DTOR_END__; fnptr++)
    81dc:	e59f303c 	ldr	r3, [pc, #60]	; 8220 <_cpp_shutdown+0x50>
    81e0:	e50b3008 	str	r3, [fp, #-8]
/home/hintik/dev/final/src/sources/userspace/cxxabi.cpp:77 (discriminator 3)
    81e4:	e51b3008 	ldr	r3, [fp, #-8]
    81e8:	e59f2034 	ldr	r2, [pc, #52]	; 8224 <_cpp_shutdown+0x54>
    81ec:	e1530002 	cmp	r3, r2
    81f0:	2a000006 	bcs	8210 <_cpp_shutdown+0x40>
/home/hintik/dev/final/src/sources/userspace/cxxabi.cpp:78 (discriminator 2)
		(*fnptr)();
    81f4:	e51b3008 	ldr	r3, [fp, #-8]
    81f8:	e5933000 	ldr	r3, [r3]
    81fc:	e12fff33 	blx	r3
/home/hintik/dev/final/src/sources/userspace/cxxabi.cpp:77 (discriminator 2)
	for (fnptr = __DTOR_LIST__; fnptr < __DTOR_END__; fnptr++)
    8200:	e51b3008 	ldr	r3, [fp, #-8]
    8204:	e2833004 	add	r3, r3, #4
    8208:	e50b3008 	str	r3, [fp, #-8]
    820c:	eafffff4 	b	81e4 <_cpp_shutdown+0x14>
/home/hintik/dev/final/src/sources/userspace/cxxabi.cpp:80
	
	return 0;
    8210:	e3a03000 	mov	r3, #0
/home/hintik/dev/final/src/sources/userspace/cxxabi.cpp:81
}
    8214:	e1a00003 	mov	r0, r3
    8218:	e24bd004 	sub	sp, fp, #4
    821c:	e8bd8800 	pop	{fp, pc}
    8220:	00009ce8 	andeq	r9, r0, r8, ror #25
    8224:	00009ce8 	andeq	r9, r0, r8, ror #25

00008228 <main>:
main():
/home/hintik/dev/final/src/sources/userspace/init_task/main.cpp:6
#include <stdfile.h>

#include <process/process_manager.h>

int main(int argc, char** argv)
{
    8228:	e92d4800 	push	{fp, lr}
    822c:	e28db004 	add	fp, sp, #4
    8230:	e24dd008 	sub	sp, sp, #8
    8234:	e50b0008 	str	r0, [fp, #-8]
    8238:	e50b100c 	str	r1, [fp, #-12]
/home/hintik/dev/final/src/sources/userspace/init_task/main.cpp:11
	// systemovy init task startuje jako prvni, a ma nejnizsi prioritu ze vsech - bude se tedy planovat v podstate jen tehdy,
	// kdy nic jineho nikdo nema na praci

	// nastavime deadline na "nekonecno" = vlastne snizime dynamickou prioritu na nejnizsi moznou
	set_task_deadline(Indefinite);
    823c:	e3e00000 	mvn	r0, #0
    8240:	eb0000e2 	bl	85d0 <_Z17set_task_deadlinej>
/home/hintik/dev/final/src/sources/userspace/init_task/main.cpp:17
	// TODO: tady budeme chtit nechat spoustet zbytek procesu, az budeme umet nacitat treba z eMMC a SD karty
	
	while (true)
	{
		// kdyz je planovany jen tento proces, pockame na udalost (preruseni, ...)
		if (get_active_process_count() == 1)
    8244:	eb0000c3 	bl	8558 <_Z24get_active_process_countv>
    8248:	e1a03000 	mov	r3, r0
    824c:	e3530001 	cmp	r3, #1
    8250:	03a03001 	moveq	r3, #1
    8254:	13a03000 	movne	r3, #0
    8258:	e6ef3073 	uxtb	r3, r3
    825c:	e3530000 	cmp	r3, #0
    8260:	0a000000 	beq	8268 <main+0x40>
/home/hintik/dev/final/src/sources/userspace/init_task/main.cpp:18
			asm volatile("wfe");
    8264:	e320f002 	wfe
/home/hintik/dev/final/src/sources/userspace/init_task/main.cpp:21

		// predame zbytek casoveho kvanta dalsimu procesu
		sched_yield();
    8268:	eb000021 	bl	82f4 <_Z11sched_yieldv>
/home/hintik/dev/final/src/sources/userspace/init_task/main.cpp:17
		if (get_active_process_count() == 1)
    826c:	eafffff4 	b	8244 <main+0x1c>

00008270 <_Z6getpidv>:
_Z6getpidv():
/home/hintik/dev/final/src/sources/stdlib/src/stdfile.cpp:5
#include <stdfile.h>
#include <stdstring.h>

uint32_t getpid()
{
    8270:	e52db004 	push	{fp}		; (str fp, [sp, #-4]!)
    8274:	e28db000 	add	fp, sp, #0
    8278:	e24dd00c 	sub	sp, sp, #12
/home/hintik/dev/final/src/sources/stdlib/src/stdfile.cpp:8
    uint32_t pid;

    asm volatile("swi 0");
    827c:	ef000000 	svc	0x00000000
/home/hintik/dev/final/src/sources/stdlib/src/stdfile.cpp:9
    asm volatile("mov %0, r0" : "=r" (pid));
    8280:	e1a03000 	mov	r3, r0
    8284:	e50b3008 	str	r3, [fp, #-8]
/home/hintik/dev/final/src/sources/stdlib/src/stdfile.cpp:11

    return pid;
    8288:	e51b3008 	ldr	r3, [fp, #-8]
/home/hintik/dev/final/src/sources/stdlib/src/stdfile.cpp:12
}
    828c:	e1a00003 	mov	r0, r3
    8290:	e28bd000 	add	sp, fp, #0
    8294:	e49db004 	pop	{fp}		; (ldr fp, [sp], #4)
    8298:	e12fff1e 	bx	lr

0000829c <_Z17get_random_numberv>:
_Z17get_random_numberv():
/home/hintik/dev/final/src/sources/stdlib/src/stdfile.cpp:15

uint32_t get_random_number()
{
    829c:	e52db004 	push	{fp}		; (str fp, [sp, #-4]!)
    82a0:	e28db000 	add	fp, sp, #0
    82a4:	e24dd00c 	sub	sp, sp, #12
/home/hintik/dev/final/src/sources/stdlib/src/stdfile.cpp:18
    uint32_t rng;

    asm volatile("swi 7");
    82a8:	ef000007 	svc	0x00000007
/home/hintik/dev/final/src/sources/stdlib/src/stdfile.cpp:19
    asm volatile("mov %0, r0" : "=r" (rng));
    82ac:	e1a03000 	mov	r3, r0
    82b0:	e50b3008 	str	r3, [fp, #-8]
/home/hintik/dev/final/src/sources/stdlib/src/stdfile.cpp:21

    return rng;
    82b4:	e51b3008 	ldr	r3, [fp, #-8]
/home/hintik/dev/final/src/sources/stdlib/src/stdfile.cpp:22
}
    82b8:	e1a00003 	mov	r0, r3
    82bc:	e28bd000 	add	sp, fp, #0
    82c0:	e49db004 	pop	{fp}		; (ldr fp, [sp], #4)
    82c4:	e12fff1e 	bx	lr

000082c8 <_Z9terminatei>:
_Z9terminatei():
/home/hintik/dev/final/src/sources/stdlib/src/stdfile.cpp:25

void terminate(int exitcode)
{
    82c8:	e52db004 	push	{fp}		; (str fp, [sp, #-4]!)
    82cc:	e28db000 	add	fp, sp, #0
    82d0:	e24dd00c 	sub	sp, sp, #12
    82d4:	e50b0008 	str	r0, [fp, #-8]
/home/hintik/dev/final/src/sources/stdlib/src/stdfile.cpp:26
    asm volatile("mov r0, %0" : : "r" (exitcode));
    82d8:	e51b3008 	ldr	r3, [fp, #-8]
    82dc:	e1a00003 	mov	r0, r3
/home/hintik/dev/final/src/sources/stdlib/src/stdfile.cpp:27
    asm volatile("swi 1");
    82e0:	ef000001 	svc	0x00000001
/home/hintik/dev/final/src/sources/stdlib/src/stdfile.cpp:28
}
    82e4:	e320f000 	nop	{0}
    82e8:	e28bd000 	add	sp, fp, #0
    82ec:	e49db004 	pop	{fp}		; (ldr fp, [sp], #4)
    82f0:	e12fff1e 	bx	lr

000082f4 <_Z11sched_yieldv>:
_Z11sched_yieldv():
/home/hintik/dev/final/src/sources/stdlib/src/stdfile.cpp:31

void sched_yield()
{
    82f4:	e52db004 	push	{fp}		; (str fp, [sp, #-4]!)
    82f8:	e28db000 	add	fp, sp, #0
/home/hintik/dev/final/src/sources/stdlib/src/stdfile.cpp:32
    asm volatile("swi 2");
    82fc:	ef000002 	svc	0x00000002
/home/hintik/dev/final/src/sources/stdlib/src/stdfile.cpp:33
}
    8300:	e320f000 	nop	{0}
    8304:	e28bd000 	add	sp, fp, #0
    8308:	e49db004 	pop	{fp}		; (ldr fp, [sp], #4)
    830c:	e12fff1e 	bx	lr

00008310 <_Z4openPKc15NFile_Open_Mode>:
_Z4openPKc15NFile_Open_Mode():
/home/hintik/dev/final/src/sources/stdlib/src/stdfile.cpp:36

uint32_t open(const char* filename, NFile_Open_Mode mode)
{
    8310:	e52db004 	push	{fp}		; (str fp, [sp, #-4]!)
    8314:	e28db000 	add	fp, sp, #0
    8318:	e24dd014 	sub	sp, sp, #20
    831c:	e50b0010 	str	r0, [fp, #-16]
    8320:	e50b1014 	str	r1, [fp, #-20]	; 0xffffffec
/home/hintik/dev/final/src/sources/stdlib/src/stdfile.cpp:39
    uint32_t file;

    asm volatile("mov r0, %0" : : "r" (filename));
    8324:	e51b3010 	ldr	r3, [fp, #-16]
    8328:	e1a00003 	mov	r0, r3
/home/hintik/dev/final/src/sources/stdlib/src/stdfile.cpp:40
    asm volatile("mov r1, %0" : : "r" (mode));
    832c:	e51b3014 	ldr	r3, [fp, #-20]	; 0xffffffec
    8330:	e1a01003 	mov	r1, r3
/home/hintik/dev/final/src/sources/stdlib/src/stdfile.cpp:41
    asm volatile("swi 64");
    8334:	ef000040 	svc	0x00000040
/home/hintik/dev/final/src/sources/stdlib/src/stdfile.cpp:42
    asm volatile("mov %0, r0" : "=r" (file));
    8338:	e1a03000 	mov	r3, r0
    833c:	e50b3008 	str	r3, [fp, #-8]
/home/hintik/dev/final/src/sources/stdlib/src/stdfile.cpp:44

    return file;
    8340:	e51b3008 	ldr	r3, [fp, #-8]
/home/hintik/dev/final/src/sources/stdlib/src/stdfile.cpp:45
}
    8344:	e1a00003 	mov	r0, r3
    8348:	e28bd000 	add	sp, fp, #0
    834c:	e49db004 	pop	{fp}		; (ldr fp, [sp], #4)
    8350:	e12fff1e 	bx	lr

00008354 <_Z4readjPcj>:
_Z4readjPcj():
/home/hintik/dev/final/src/sources/stdlib/src/stdfile.cpp:48

uint32_t read(uint32_t file, char* const buffer, uint32_t size)
{
    8354:	e52db004 	push	{fp}		; (str fp, [sp, #-4]!)
    8358:	e28db000 	add	fp, sp, #0
    835c:	e24dd01c 	sub	sp, sp, #28
    8360:	e50b0010 	str	r0, [fp, #-16]
    8364:	e50b1014 	str	r1, [fp, #-20]	; 0xffffffec
    8368:	e50b2018 	str	r2, [fp, #-24]	; 0xffffffe8
/home/hintik/dev/final/src/sources/stdlib/src/stdfile.cpp:51
    uint32_t rdnum;

    asm volatile("mov r0, %0" : : "r" (file));
    836c:	e51b3010 	ldr	r3, [fp, #-16]
    8370:	e1a00003 	mov	r0, r3
/home/hintik/dev/final/src/sources/stdlib/src/stdfile.cpp:52
    asm volatile("mov r1, %0" : : "r" (buffer));
    8374:	e51b3014 	ldr	r3, [fp, #-20]	; 0xffffffec
    8378:	e1a01003 	mov	r1, r3
/home/hintik/dev/final/src/sources/stdlib/src/stdfile.cpp:53
    asm volatile("mov r2, %0" : : "r" (size));
    837c:	e51b3018 	ldr	r3, [fp, #-24]	; 0xffffffe8
    8380:	e1a02003 	mov	r2, r3
/home/hintik/dev/final/src/sources/stdlib/src/stdfile.cpp:54
    asm volatile("swi 65");
    8384:	ef000041 	svc	0x00000041
/home/hintik/dev/final/src/sources/stdlib/src/stdfile.cpp:55
    asm volatile("mov %0, r0" : "=r" (rdnum));
    8388:	e1a03000 	mov	r3, r0
    838c:	e50b3008 	str	r3, [fp, #-8]
/home/hintik/dev/final/src/sources/stdlib/src/stdfile.cpp:57

    return rdnum;
    8390:	e51b3008 	ldr	r3, [fp, #-8]
/home/hintik/dev/final/src/sources/stdlib/src/stdfile.cpp:58
}
    8394:	e1a00003 	mov	r0, r3
    8398:	e28bd000 	add	sp, fp, #0
    839c:	e49db004 	pop	{fp}		; (ldr fp, [sp], #4)
    83a0:	e12fff1e 	bx	lr

000083a4 <_Z5writejPKcj>:
_Z5writejPKcj():
/home/hintik/dev/final/src/sources/stdlib/src/stdfile.cpp:61

uint32_t write(uint32_t file, const char* buffer, uint32_t size)
{
    83a4:	e52db004 	push	{fp}		; (str fp, [sp, #-4]!)
    83a8:	e28db000 	add	fp, sp, #0
    83ac:	e24dd01c 	sub	sp, sp, #28
    83b0:	e50b0010 	str	r0, [fp, #-16]
    83b4:	e50b1014 	str	r1, [fp, #-20]	; 0xffffffec
    83b8:	e50b2018 	str	r2, [fp, #-24]	; 0xffffffe8
/home/hintik/dev/final/src/sources/stdlib/src/stdfile.cpp:64
    uint32_t wrnum;

    asm volatile("mov r0, %0" : : "r" (file));
    83bc:	e51b3010 	ldr	r3, [fp, #-16]
    83c0:	e1a00003 	mov	r0, r3
/home/hintik/dev/final/src/sources/stdlib/src/stdfile.cpp:65
    asm volatile("mov r1, %0" : : "r" (buffer));
    83c4:	e51b3014 	ldr	r3, [fp, #-20]	; 0xffffffec
    83c8:	e1a01003 	mov	r1, r3
/home/hintik/dev/final/src/sources/stdlib/src/stdfile.cpp:66
    asm volatile("mov r2, %0" : : "r" (size));
    83cc:	e51b3018 	ldr	r3, [fp, #-24]	; 0xffffffe8
    83d0:	e1a02003 	mov	r2, r3
/home/hintik/dev/final/src/sources/stdlib/src/stdfile.cpp:67
    asm volatile("swi 66");
    83d4:	ef000042 	svc	0x00000042
/home/hintik/dev/final/src/sources/stdlib/src/stdfile.cpp:68
    asm volatile("mov %0, r0" : "=r" (wrnum));
    83d8:	e1a03000 	mov	r3, r0
    83dc:	e50b3008 	str	r3, [fp, #-8]
/home/hintik/dev/final/src/sources/stdlib/src/stdfile.cpp:70

    return wrnum;
    83e0:	e51b3008 	ldr	r3, [fp, #-8]
/home/hintik/dev/final/src/sources/stdlib/src/stdfile.cpp:71
}
    83e4:	e1a00003 	mov	r0, r3
    83e8:	e28bd000 	add	sp, fp, #0
    83ec:	e49db004 	pop	{fp}		; (ldr fp, [sp], #4)
    83f0:	e12fff1e 	bx	lr

000083f4 <_Z5closej>:
_Z5closej():
/home/hintik/dev/final/src/sources/stdlib/src/stdfile.cpp:74

void close(uint32_t file)
{
    83f4:	e52db004 	push	{fp}		; (str fp, [sp, #-4]!)
    83f8:	e28db000 	add	fp, sp, #0
    83fc:	e24dd00c 	sub	sp, sp, #12
    8400:	e50b0008 	str	r0, [fp, #-8]
/home/hintik/dev/final/src/sources/stdlib/src/stdfile.cpp:75
    asm volatile("mov r0, %0" : : "r" (file));
    8404:	e51b3008 	ldr	r3, [fp, #-8]
    8408:	e1a00003 	mov	r0, r3
/home/hintik/dev/final/src/sources/stdlib/src/stdfile.cpp:76
    asm volatile("swi 67");
    840c:	ef000043 	svc	0x00000043
/home/hintik/dev/final/src/sources/stdlib/src/stdfile.cpp:77
}
    8410:	e320f000 	nop	{0}
    8414:	e28bd000 	add	sp, fp, #0
    8418:	e49db004 	pop	{fp}		; (ldr fp, [sp], #4)
    841c:	e12fff1e 	bx	lr

00008420 <_Z5ioctlj16NIOCtl_OperationPv>:
_Z5ioctlj16NIOCtl_OperationPv():
/home/hintik/dev/final/src/sources/stdlib/src/stdfile.cpp:80

uint32_t ioctl(uint32_t file, NIOCtl_Operation operation, void* param)
{
    8420:	e52db004 	push	{fp}		; (str fp, [sp, #-4]!)
    8424:	e28db000 	add	fp, sp, #0
    8428:	e24dd01c 	sub	sp, sp, #28
    842c:	e50b0010 	str	r0, [fp, #-16]
    8430:	e50b1014 	str	r1, [fp, #-20]	; 0xffffffec
    8434:	e50b2018 	str	r2, [fp, #-24]	; 0xffffffe8
/home/hintik/dev/final/src/sources/stdlib/src/stdfile.cpp:83
    uint32_t retcode;

    asm volatile("mov r0, %0" : : "r" (file));
    8438:	e51b3010 	ldr	r3, [fp, #-16]
    843c:	e1a00003 	mov	r0, r3
/home/hintik/dev/final/src/sources/stdlib/src/stdfile.cpp:84
    asm volatile("mov r1, %0" : : "r" (operation));
    8440:	e51b3014 	ldr	r3, [fp, #-20]	; 0xffffffec
    8444:	e1a01003 	mov	r1, r3
/home/hintik/dev/final/src/sources/stdlib/src/stdfile.cpp:85
    asm volatile("mov r2, %0" : : "r" (param));
    8448:	e51b3018 	ldr	r3, [fp, #-24]	; 0xffffffe8
    844c:	e1a02003 	mov	r2, r3
/home/hintik/dev/final/src/sources/stdlib/src/stdfile.cpp:86
    asm volatile("swi 68");
    8450:	ef000044 	svc	0x00000044
/home/hintik/dev/final/src/sources/stdlib/src/stdfile.cpp:87
    asm volatile("mov %0, r0" : "=r" (retcode));
    8454:	e1a03000 	mov	r3, r0
    8458:	e50b3008 	str	r3, [fp, #-8]
/home/hintik/dev/final/src/sources/stdlib/src/stdfile.cpp:89

    return retcode;
    845c:	e51b3008 	ldr	r3, [fp, #-8]
/home/hintik/dev/final/src/sources/stdlib/src/stdfile.cpp:90
}
    8460:	e1a00003 	mov	r0, r3
    8464:	e28bd000 	add	sp, fp, #0
    8468:	e49db004 	pop	{fp}		; (ldr fp, [sp], #4)
    846c:	e12fff1e 	bx	lr

00008470 <_Z6notifyjj>:
_Z6notifyjj():
/home/hintik/dev/final/src/sources/stdlib/src/stdfile.cpp:93

uint32_t notify(uint32_t file, uint32_t count)
{
    8470:	e52db004 	push	{fp}		; (str fp, [sp, #-4]!)
    8474:	e28db000 	add	fp, sp, #0
    8478:	e24dd014 	sub	sp, sp, #20
    847c:	e50b0010 	str	r0, [fp, #-16]
    8480:	e50b1014 	str	r1, [fp, #-20]	; 0xffffffec
/home/hintik/dev/final/src/sources/stdlib/src/stdfile.cpp:96
    uint32_t retcnt;

    asm volatile("mov r0, %0" : : "r" (file));
    8484:	e51b3010 	ldr	r3, [fp, #-16]
    8488:	e1a00003 	mov	r0, r3
/home/hintik/dev/final/src/sources/stdlib/src/stdfile.cpp:97
    asm volatile("mov r1, %0" : : "r" (count));
    848c:	e51b3014 	ldr	r3, [fp, #-20]	; 0xffffffec
    8490:	e1a01003 	mov	r1, r3
/home/hintik/dev/final/src/sources/stdlib/src/stdfile.cpp:98
    asm volatile("swi 69");
    8494:	ef000045 	svc	0x00000045
/home/hintik/dev/final/src/sources/stdlib/src/stdfile.cpp:99
    asm volatile("mov %0, r0" : "=r" (retcnt));
    8498:	e1a03000 	mov	r3, r0
    849c:	e50b3008 	str	r3, [fp, #-8]
/home/hintik/dev/final/src/sources/stdlib/src/stdfile.cpp:101

    return retcnt;
    84a0:	e51b3008 	ldr	r3, [fp, #-8]
/home/hintik/dev/final/src/sources/stdlib/src/stdfile.cpp:102
}
    84a4:	e1a00003 	mov	r0, r3
    84a8:	e28bd000 	add	sp, fp, #0
    84ac:	e49db004 	pop	{fp}		; (ldr fp, [sp], #4)
    84b0:	e12fff1e 	bx	lr

000084b4 <_Z4waitjjj>:
_Z4waitjjj():
/home/hintik/dev/final/src/sources/stdlib/src/stdfile.cpp:105

NSWI_Result_Code wait(uint32_t file, uint32_t count, uint32_t notified_deadline)
{
    84b4:	e52db004 	push	{fp}		; (str fp, [sp, #-4]!)
    84b8:	e28db000 	add	fp, sp, #0
    84bc:	e24dd01c 	sub	sp, sp, #28
    84c0:	e50b0010 	str	r0, [fp, #-16]
    84c4:	e50b1014 	str	r1, [fp, #-20]	; 0xffffffec
    84c8:	e50b2018 	str	r2, [fp, #-24]	; 0xffffffe8
/home/hintik/dev/final/src/sources/stdlib/src/stdfile.cpp:108
    NSWI_Result_Code retcode;

    asm volatile("mov r0, %0" : : "r" (file));
    84cc:	e51b3010 	ldr	r3, [fp, #-16]
    84d0:	e1a00003 	mov	r0, r3
/home/hintik/dev/final/src/sources/stdlib/src/stdfile.cpp:109
    asm volatile("mov r1, %0" : : "r" (count));
    84d4:	e51b3014 	ldr	r3, [fp, #-20]	; 0xffffffec
    84d8:	e1a01003 	mov	r1, r3
/home/hintik/dev/final/src/sources/stdlib/src/stdfile.cpp:110
    asm volatile("mov r2, %0" : : "r" (notified_deadline));
    84dc:	e51b3018 	ldr	r3, [fp, #-24]	; 0xffffffe8
    84e0:	e1a02003 	mov	r2, r3
/home/hintik/dev/final/src/sources/stdlib/src/stdfile.cpp:111
    asm volatile("swi 70");
    84e4:	ef000046 	svc	0x00000046
/home/hintik/dev/final/src/sources/stdlib/src/stdfile.cpp:112
    asm volatile("mov %0, r0" : "=r" (retcode));
    84e8:	e1a03000 	mov	r3, r0
    84ec:	e50b3008 	str	r3, [fp, #-8]
/home/hintik/dev/final/src/sources/stdlib/src/stdfile.cpp:114

    return retcode;
    84f0:	e51b3008 	ldr	r3, [fp, #-8]
/home/hintik/dev/final/src/sources/stdlib/src/stdfile.cpp:115
}
    84f4:	e1a00003 	mov	r0, r3
    84f8:	e28bd000 	add	sp, fp, #0
    84fc:	e49db004 	pop	{fp}		; (ldr fp, [sp], #4)
    8500:	e12fff1e 	bx	lr

00008504 <_Z5sleepjj>:
_Z5sleepjj():
/home/hintik/dev/final/src/sources/stdlib/src/stdfile.cpp:118

bool sleep(uint32_t ticks, uint32_t notified_deadline)
{
    8504:	e52db004 	push	{fp}		; (str fp, [sp, #-4]!)
    8508:	e28db000 	add	fp, sp, #0
    850c:	e24dd014 	sub	sp, sp, #20
    8510:	e50b0010 	str	r0, [fp, #-16]
    8514:	e50b1014 	str	r1, [fp, #-20]	; 0xffffffec
/home/hintik/dev/final/src/sources/stdlib/src/stdfile.cpp:121
    uint32_t retcode;

    asm volatile("mov r0, %0" : : "r" (ticks));
    8518:	e51b3010 	ldr	r3, [fp, #-16]
    851c:	e1a00003 	mov	r0, r3
/home/hintik/dev/final/src/sources/stdlib/src/stdfile.cpp:122
    asm volatile("mov r1, %0" : : "r" (notified_deadline));
    8520:	e51b3014 	ldr	r3, [fp, #-20]	; 0xffffffec
    8524:	e1a01003 	mov	r1, r3
/home/hintik/dev/final/src/sources/stdlib/src/stdfile.cpp:123
    asm volatile("swi 3");
    8528:	ef000003 	svc	0x00000003
/home/hintik/dev/final/src/sources/stdlib/src/stdfile.cpp:124
    asm volatile("mov %0, r0" : "=r" (retcode));
    852c:	e1a03000 	mov	r3, r0
    8530:	e50b3008 	str	r3, [fp, #-8]
/home/hintik/dev/final/src/sources/stdlib/src/stdfile.cpp:126

    return retcode;
    8534:	e51b3008 	ldr	r3, [fp, #-8]
    8538:	e3530000 	cmp	r3, #0
    853c:	13a03001 	movne	r3, #1
    8540:	03a03000 	moveq	r3, #0
    8544:	e6ef3073 	uxtb	r3, r3
/home/hintik/dev/final/src/sources/stdlib/src/stdfile.cpp:127
}
    8548:	e1a00003 	mov	r0, r3
    854c:	e28bd000 	add	sp, fp, #0
    8550:	e49db004 	pop	{fp}		; (ldr fp, [sp], #4)
    8554:	e12fff1e 	bx	lr

00008558 <_Z24get_active_process_countv>:
_Z24get_active_process_countv():
/home/hintik/dev/final/src/sources/stdlib/src/stdfile.cpp:130

uint32_t get_active_process_count()
{
    8558:	e52db004 	push	{fp}		; (str fp, [sp, #-4]!)
    855c:	e28db000 	add	fp, sp, #0
    8560:	e24dd00c 	sub	sp, sp, #12
/home/hintik/dev/final/src/sources/stdlib/src/stdfile.cpp:131
    const NGet_Sched_Info_Type req = NGet_Sched_Info_Type::Active_Process_Count;
    8564:	e3a03000 	mov	r3, #0
    8568:	e50b3008 	str	r3, [fp, #-8]
/home/hintik/dev/final/src/sources/stdlib/src/stdfile.cpp:134
    uint32_t retval;

    asm volatile("mov r0, %0" : : "r" (req));
    856c:	e3a03000 	mov	r3, #0
    8570:	e1a00003 	mov	r0, r3
/home/hintik/dev/final/src/sources/stdlib/src/stdfile.cpp:135
    asm volatile("mov r1, %0" : : "r" (&retval));
    8574:	e24b300c 	sub	r3, fp, #12
    8578:	e1a01003 	mov	r1, r3
/home/hintik/dev/final/src/sources/stdlib/src/stdfile.cpp:136
    asm volatile("swi 4");
    857c:	ef000004 	svc	0x00000004
/home/hintik/dev/final/src/sources/stdlib/src/stdfile.cpp:138

    return retval;
    8580:	e51b300c 	ldr	r3, [fp, #-12]
/home/hintik/dev/final/src/sources/stdlib/src/stdfile.cpp:139
}
    8584:	e1a00003 	mov	r0, r3
    8588:	e28bd000 	add	sp, fp, #0
    858c:	e49db004 	pop	{fp}		; (ldr fp, [sp], #4)
    8590:	e12fff1e 	bx	lr

00008594 <_Z14get_tick_countv>:
_Z14get_tick_countv():
/home/hintik/dev/final/src/sources/stdlib/src/stdfile.cpp:142

uint32_t get_tick_count()
{
    8594:	e52db004 	push	{fp}		; (str fp, [sp, #-4]!)
    8598:	e28db000 	add	fp, sp, #0
    859c:	e24dd00c 	sub	sp, sp, #12
/home/hintik/dev/final/src/sources/stdlib/src/stdfile.cpp:143
    const NGet_Sched_Info_Type req = NGet_Sched_Info_Type::Tick_Count;
    85a0:	e3a03001 	mov	r3, #1
    85a4:	e50b3008 	str	r3, [fp, #-8]
/home/hintik/dev/final/src/sources/stdlib/src/stdfile.cpp:146
    uint32_t retval;

    asm volatile("mov r0, %0" : : "r" (req));
    85a8:	e3a03001 	mov	r3, #1
    85ac:	e1a00003 	mov	r0, r3
/home/hintik/dev/final/src/sources/stdlib/src/stdfile.cpp:147
    asm volatile("mov r1, %0" : : "r" (&retval));
    85b0:	e24b300c 	sub	r3, fp, #12
    85b4:	e1a01003 	mov	r1, r3
/home/hintik/dev/final/src/sources/stdlib/src/stdfile.cpp:148
    asm volatile("swi 4");
    85b8:	ef000004 	svc	0x00000004
/home/hintik/dev/final/src/sources/stdlib/src/stdfile.cpp:150

    return retval;
    85bc:	e51b300c 	ldr	r3, [fp, #-12]
/home/hintik/dev/final/src/sources/stdlib/src/stdfile.cpp:151
}
    85c0:	e1a00003 	mov	r0, r3
    85c4:	e28bd000 	add	sp, fp, #0
    85c8:	e49db004 	pop	{fp}		; (ldr fp, [sp], #4)
    85cc:	e12fff1e 	bx	lr

000085d0 <_Z17set_task_deadlinej>:
_Z17set_task_deadlinej():
/home/hintik/dev/final/src/sources/stdlib/src/stdfile.cpp:154

void set_task_deadline(uint32_t tick_count_required)
{
    85d0:	e52db004 	push	{fp}		; (str fp, [sp, #-4]!)
    85d4:	e28db000 	add	fp, sp, #0
    85d8:	e24dd014 	sub	sp, sp, #20
    85dc:	e50b0010 	str	r0, [fp, #-16]
/home/hintik/dev/final/src/sources/stdlib/src/stdfile.cpp:155
    const NDeadline_Subservice req = NDeadline_Subservice::Set_Relative;
    85e0:	e3a03000 	mov	r3, #0
    85e4:	e50b3008 	str	r3, [fp, #-8]
/home/hintik/dev/final/src/sources/stdlib/src/stdfile.cpp:157

    asm volatile("mov r0, %0" : : "r" (req));
    85e8:	e3a03000 	mov	r3, #0
    85ec:	e1a00003 	mov	r0, r3
/home/hintik/dev/final/src/sources/stdlib/src/stdfile.cpp:158
    asm volatile("mov r1, %0" : : "r" (&tick_count_required));
    85f0:	e24b3010 	sub	r3, fp, #16
    85f4:	e1a01003 	mov	r1, r3
/home/hintik/dev/final/src/sources/stdlib/src/stdfile.cpp:159
    asm volatile("swi 5");
    85f8:	ef000005 	svc	0x00000005
/home/hintik/dev/final/src/sources/stdlib/src/stdfile.cpp:160
}
    85fc:	e320f000 	nop	{0}
    8600:	e28bd000 	add	sp, fp, #0
    8604:	e49db004 	pop	{fp}		; (ldr fp, [sp], #4)
    8608:	e12fff1e 	bx	lr

0000860c <_Z26get_task_ticks_to_deadlinev>:
_Z26get_task_ticks_to_deadlinev():
/home/hintik/dev/final/src/sources/stdlib/src/stdfile.cpp:163

uint32_t get_task_ticks_to_deadline()
{
    860c:	e52db004 	push	{fp}		; (str fp, [sp, #-4]!)
    8610:	e28db000 	add	fp, sp, #0
    8614:	e24dd00c 	sub	sp, sp, #12
/home/hintik/dev/final/src/sources/stdlib/src/stdfile.cpp:164
    const NDeadline_Subservice req = NDeadline_Subservice::Get_Remaining;
    8618:	e3a03001 	mov	r3, #1
    861c:	e50b3008 	str	r3, [fp, #-8]
/home/hintik/dev/final/src/sources/stdlib/src/stdfile.cpp:167
    uint32_t ticks;

    asm volatile("mov r0, %0" : : "r" (req));
    8620:	e3a03001 	mov	r3, #1
    8624:	e1a00003 	mov	r0, r3
/home/hintik/dev/final/src/sources/stdlib/src/stdfile.cpp:168
    asm volatile("mov r1, %0" : : "r" (&ticks));
    8628:	e24b300c 	sub	r3, fp, #12
    862c:	e1a01003 	mov	r1, r3
/home/hintik/dev/final/src/sources/stdlib/src/stdfile.cpp:169
    asm volatile("swi 5");
    8630:	ef000005 	svc	0x00000005
/home/hintik/dev/final/src/sources/stdlib/src/stdfile.cpp:171

    return ticks;
    8634:	e51b300c 	ldr	r3, [fp, #-12]
/home/hintik/dev/final/src/sources/stdlib/src/stdfile.cpp:172
}
    8638:	e1a00003 	mov	r0, r3
    863c:	e28bd000 	add	sp, fp, #0
    8640:	e49db004 	pop	{fp}		; (ldr fp, [sp], #4)
    8644:	e12fff1e 	bx	lr

00008648 <_Z4pipePKcj>:
_Z4pipePKcj():
/home/hintik/dev/final/src/sources/stdlib/src/stdfile.cpp:177

const char Pipe_File_Prefix[] = "SYS:pipe/";

uint32_t pipe(const char* name, uint32_t buf_size)
{
    8648:	e92d4800 	push	{fp, lr}
    864c:	e28db004 	add	fp, sp, #4
    8650:	e24dd050 	sub	sp, sp, #80	; 0x50
    8654:	e50b0050 	str	r0, [fp, #-80]	; 0xffffffb0
    8658:	e50b1054 	str	r1, [fp, #-84]	; 0xffffffac
/home/hintik/dev/final/src/sources/stdlib/src/stdfile.cpp:179
    char fname[64];
    strncpy(fname, Pipe_File_Prefix, sizeof(Pipe_File_Prefix));
    865c:	e24b3048 	sub	r3, fp, #72	; 0x48
    8660:	e3a0200a 	mov	r2, #10
    8664:	e59f108c 	ldr	r1, [pc, #140]	; 86f8 <_Z4pipePKcj+0xb0>
    8668:	e1a00003 	mov	r0, r3
    866c:	eb000236 	bl	8f4c <_Z7strncpyPcPKci>
/home/hintik/dev/final/src/sources/stdlib/src/stdfile.cpp:180
    strncpy(fname + sizeof(Pipe_File_Prefix), name, sizeof(fname) - sizeof(Pipe_File_Prefix) - 1);
    8670:	e24b3048 	sub	r3, fp, #72	; 0x48
    8674:	e283300a 	add	r3, r3, #10
    8678:	e3a02035 	mov	r2, #53	; 0x35
    867c:	e51b1050 	ldr	r1, [fp, #-80]	; 0xffffffb0
    8680:	e1a00003 	mov	r0, r3
    8684:	eb000230 	bl	8f4c <_Z7strncpyPcPKci>
/home/hintik/dev/final/src/sources/stdlib/src/stdfile.cpp:182

    int ncur = sizeof(Pipe_File_Prefix) + strlen(name);
    8688:	e51b0050 	ldr	r0, [fp, #-80]	; 0xffffffb0
    868c:	eb000289 	bl	90b8 <_Z6strlenPKc>
    8690:	e1a03000 	mov	r3, r0
    8694:	e283300a 	add	r3, r3, #10
    8698:	e50b3008 	str	r3, [fp, #-8]
/home/hintik/dev/final/src/sources/stdlib/src/stdfile.cpp:184

    fname[ncur++] = '#';
    869c:	e51b3008 	ldr	r3, [fp, #-8]
    86a0:	e2832001 	add	r2, r3, #1
    86a4:	e50b2008 	str	r2, [fp, #-8]
    86a8:	e24b2004 	sub	r2, fp, #4
    86ac:	e0823003 	add	r3, r2, r3
    86b0:	e3a02023 	mov	r2, #35	; 0x23
    86b4:	e5432044 	strb	r2, [r3, #-68]	; 0xffffffbc
/home/hintik/dev/final/src/sources/stdlib/src/stdfile.cpp:186

    itoa(buf_size, &fname[ncur], 10);
    86b8:	e24b2048 	sub	r2, fp, #72	; 0x48
    86bc:	e51b3008 	ldr	r3, [fp, #-8]
    86c0:	e0823003 	add	r3, r2, r3
    86c4:	e3a0200a 	mov	r2, #10
    86c8:	e1a01003 	mov	r1, r3
    86cc:	e51b0054 	ldr	r0, [fp, #-84]	; 0xffffffac
    86d0:	eb000199 	bl	8d3c <_Z4itoajPcj>
/home/hintik/dev/final/src/sources/stdlib/src/stdfile.cpp:188

    return open(fname, NFile_Open_Mode::Read_Write);
    86d4:	e24b3048 	sub	r3, fp, #72	; 0x48
    86d8:	e3a01002 	mov	r1, #2
    86dc:	e1a00003 	mov	r0, r3
    86e0:	ebffff0a 	bl	8310 <_Z4openPKc15NFile_Open_Mode>
    86e4:	e1a03000 	mov	r3, r0
    86e8:	e320f000 	nop	{0}
/home/hintik/dev/final/src/sources/stdlib/src/stdfile.cpp:189
}
    86ec:	e1a00003 	mov	r0, r3
    86f0:	e24bd004 	sub	sp, fp, #4
    86f4:	e8bd8800 	pop	{fp, pc}
    86f8:	00009cc0 	andeq	r9, r0, r0, asr #25
    86fc:	00000000 	andeq	r0, r0, r0

00008700 <_Z4n_tuii>:
_Z4n_tuii():
/home/hintik/dev/final/src/sources/stdlib/src/stdstring.cpp:7

namespace {
    const char CharConvArr[] = "0123456789ABCDEF";
}

int n_tu(int number, int count) {
    8700:	e52db004 	push	{fp}		; (str fp, [sp, #-4]!)
    8704:	e28db000 	add	fp, sp, #0
    8708:	e24dd014 	sub	sp, sp, #20
    870c:	e50b0010 	str	r0, [fp, #-16]
    8710:	e50b1014 	str	r1, [fp, #-20]	; 0xffffffec
/home/hintik/dev/final/src/sources/stdlib/src/stdstring.cpp:8
    int result = 1;
    8714:	e3a03001 	mov	r3, #1
    8718:	e50b3008 	str	r3, [fp, #-8]
/home/hintik/dev/final/src/sources/stdlib/src/stdstring.cpp:9
    while (count-- > 0)
    871c:	e51b3014 	ldr	r3, [fp, #-20]	; 0xffffffec
    8720:	e2432001 	sub	r2, r3, #1
    8724:	e50b2014 	str	r2, [fp, #-20]	; 0xffffffec
    8728:	e3530000 	cmp	r3, #0
    872c:	c3a03001 	movgt	r3, #1
    8730:	d3a03000 	movle	r3, #0
    8734:	e6ef3073 	uxtb	r3, r3
    8738:	e3530000 	cmp	r3, #0
    873c:	0a000004 	beq	8754 <_Z4n_tuii+0x54>
/home/hintik/dev/final/src/sources/stdlib/src/stdstring.cpp:10
        result *= number;
    8740:	e51b3008 	ldr	r3, [fp, #-8]
    8744:	e51b2010 	ldr	r2, [fp, #-16]
    8748:	e0030392 	mul	r3, r2, r3
    874c:	e50b3008 	str	r3, [fp, #-8]
/home/hintik/dev/final/src/sources/stdlib/src/stdstring.cpp:9
    while (count-- > 0)
    8750:	eafffff1 	b	871c <_Z4n_tuii+0x1c>
/home/hintik/dev/final/src/sources/stdlib/src/stdstring.cpp:12

    return result;
    8754:	e51b3008 	ldr	r3, [fp, #-8]
/home/hintik/dev/final/src/sources/stdlib/src/stdstring.cpp:13
}
    8758:	e1a00003 	mov	r0, r3
    875c:	e28bd000 	add	sp, fp, #0
    8760:	e49db004 	pop	{fp}		; (ldr fp, [sp], #4)
    8764:	e12fff1e 	bx	lr

00008768 <_Z4ftoafPc>:
_Z4ftoafPc():
/home/hintik/dev/final/src/sources/stdlib/src/stdstring.cpp:15

void ftoa(float f, char *r) {
    8768:	e92d4bf0 	push	{r4, r5, r6, r7, r8, r9, fp, lr}
    876c:	e28db01c 	add	fp, sp, #28
    8770:	e24dd060 	sub	sp, sp, #96	; 0x60
    8774:	ed0b0a16 	vstr	s0, [fp, #-88]	; 0xffffffa8
    8778:	e50b005c 	str	r0, [fp, #-92]	; 0xffffffa4
/home/hintik/dev/final/src/sources/stdlib/src/stdstring.cpp:19
    long long int length, length2, i, number, position, sign;
    float number2;

    sign = -1;   // -1 == positive number
    877c:	e3e02000 	mvn	r2, #0
    8780:	e3e03000 	mvn	r3, #0
    8784:	e14b23fc 	strd	r2, [fp, #-60]	; 0xffffffc4
/home/hintik/dev/final/src/sources/stdlib/src/stdstring.cpp:20
    if (f < 0) {
    8788:	ed5b7a16 	vldr	s15, [fp, #-88]	; 0xffffffa8
    878c:	eef57ac0 	vcmpe.f32	s15, #0.0
    8790:	eef1fa10 	vmrs	APSR_nzcv, fpscr
    8794:	5a000005 	bpl	87b0 <_Z4ftoafPc+0x48>
/home/hintik/dev/final/src/sources/stdlib/src/stdstring.cpp:21
        sign = '-';
    8798:	e3a0202d 	mov	r2, #45	; 0x2d
    879c:	e3a03000 	mov	r3, #0
    87a0:	e14b23fc 	strd	r2, [fp, #-60]	; 0xffffffc4
/home/hintik/dev/final/src/sources/stdlib/src/stdstring.cpp:22
        f *= -1;
    87a4:	ed5b7a16 	vldr	s15, [fp, #-88]	; 0xffffffa8
    87a8:	eef17a67 	vneg.f32	s15, s15
    87ac:	ed4b7a16 	vstr	s15, [fp, #-88]	; 0xffffffa8
/home/hintik/dev/final/src/sources/stdlib/src/stdstring.cpp:25
    }

    number2 = f;
    87b0:	e51b3058 	ldr	r3, [fp, #-88]	; 0xffffffa8
    87b4:	e50b3040 	str	r3, [fp, #-64]	; 0xffffffc0
/home/hintik/dev/final/src/sources/stdlib/src/stdstring.cpp:26
    number = f;
    87b8:	e51b0058 	ldr	r0, [fp, #-88]	; 0xffffffa8
    87bc:	eb0004c3 	bl	9ad0 <__aeabi_f2lz>
    87c0:	e1a02000 	mov	r2, r0
    87c4:	e1a03001 	mov	r3, r1
    87c8:	e14b23f4 	strd	r2, [fp, #-52]	; 0xffffffcc
/home/hintik/dev/final/src/sources/stdlib/src/stdstring.cpp:27
    length = 0;  // Size of decimal part
    87cc:	e3a02000 	mov	r2, #0
    87d0:	e3a03000 	mov	r3, #0
    87d4:	e14b24fc 	strd	r2, [fp, #-76]	; 0xffffffb4
/home/hintik/dev/final/src/sources/stdlib/src/stdstring.cpp:28
    length2 = 0; // Size of tenth
    87d8:	e3a02000 	mov	r2, #0
    87dc:	e3a03000 	mov	r3, #0
    87e0:	e14b22f4 	strd	r2, [fp, #-36]	; 0xffffffdc
/home/hintik/dev/final/src/sources/stdlib/src/stdstring.cpp:31

    /* Calculate length2 tenth part */
    while ((number2 - (float) number) != 0.0 && !((number2 - (float) number) < 0.0)) {
    87e4:	e14b03d4 	ldrd	r0, [fp, #-52]	; 0xffffffcc
    87e8:	eb000464 	bl	9980 <__aeabi_l2f>
    87ec:	ee070a10 	vmov	s14, r0
    87f0:	ed5b7a10 	vldr	s15, [fp, #-64]	; 0xffffffc0
    87f4:	ee777ac7 	vsub.f32	s15, s15, s14
    87f8:	eef57a40 	vcmp.f32	s15, #0.0
    87fc:	eef1fa10 	vmrs	APSR_nzcv, fpscr
    8800:	0a00001b 	beq	8874 <_Z4ftoafPc+0x10c>
/home/hintik/dev/final/src/sources/stdlib/src/stdstring.cpp:31 (discriminator 1)
    8804:	e14b03d4 	ldrd	r0, [fp, #-52]	; 0xffffffcc
    8808:	eb00045c 	bl	9980 <__aeabi_l2f>
    880c:	ee070a10 	vmov	s14, r0
    8810:	ed5b7a10 	vldr	s15, [fp, #-64]	; 0xffffffc0
    8814:	ee777ac7 	vsub.f32	s15, s15, s14
    8818:	eef57ac0 	vcmpe.f32	s15, #0.0
    881c:	eef1fa10 	vmrs	APSR_nzcv, fpscr
    8820:	4a000013 	bmi	8874 <_Z4ftoafPc+0x10c>
/home/hintik/dev/final/src/sources/stdlib/src/stdstring.cpp:32
        number2 = f * (n_tu(10.0, length2 + 1));
    8824:	e51b3024 	ldr	r3, [fp, #-36]	; 0xffffffdc
    8828:	e2833001 	add	r3, r3, #1
    882c:	e1a01003 	mov	r1, r3
    8830:	e3a0000a 	mov	r0, #10
    8834:	ebffffb1 	bl	8700 <_Z4n_tuii>
    8838:	ee070a90 	vmov	s15, r0
    883c:	eef87ae7 	vcvt.f32.s32	s15, s15
    8840:	ed1b7a16 	vldr	s14, [fp, #-88]	; 0xffffffa8
    8844:	ee677a27 	vmul.f32	s15, s14, s15
    8848:	ed4b7a10 	vstr	s15, [fp, #-64]	; 0xffffffc0
/home/hintik/dev/final/src/sources/stdlib/src/stdstring.cpp:33
        number = number2;
    884c:	e51b0040 	ldr	r0, [fp, #-64]	; 0xffffffc0
    8850:	eb00049e 	bl	9ad0 <__aeabi_f2lz>
    8854:	e1a02000 	mov	r2, r0
    8858:	e1a03001 	mov	r3, r1
    885c:	e14b23f4 	strd	r2, [fp, #-52]	; 0xffffffcc
/home/hintik/dev/final/src/sources/stdlib/src/stdstring.cpp:35

        length2++;
    8860:	e14b22d4 	ldrd	r2, [fp, #-36]	; 0xffffffdc
    8864:	e2926001 	adds	r6, r2, #1
    8868:	e2a37000 	adc	r7, r3, #0
    886c:	e14b62f4 	strd	r6, [fp, #-36]	; 0xffffffdc
/home/hintik/dev/final/src/sources/stdlib/src/stdstring.cpp:31
    while ((number2 - (float) number) != 0.0 && !((number2 - (float) number) < 0.0)) {
    8870:	eaffffdb 	b	87e4 <_Z4ftoafPc+0x7c>
/home/hintik/dev/final/src/sources/stdlib/src/stdstring.cpp:39
    }

    /* Calculate length decimal part */
    for (length = (f > 1) ? 0 : 1; f > 1; length++)
    8874:	ed5b7a16 	vldr	s15, [fp, #-88]	; 0xffffffa8
    8878:	ed9f7a80 	vldr	s14, [pc, #512]	; 8a80 <_Z4ftoafPc+0x318>
    887c:	eef47ac7 	vcmpe.f32	s15, s14
    8880:	eef1fa10 	vmrs	APSR_nzcv, fpscr
    8884:	c3a03001 	movgt	r3, #1
    8888:	d3a03000 	movle	r3, #0
    888c:	e6ef3073 	uxtb	r3, r3
    8890:	e2233001 	eor	r3, r3, #1
    8894:	e6ef3073 	uxtb	r3, r3
    8898:	e6ef2073 	uxtb	r2, r3
    889c:	e3a03000 	mov	r3, #0
    88a0:	e14b24fc 	strd	r2, [fp, #-76]	; 0xffffffb4
/home/hintik/dev/final/src/sources/stdlib/src/stdstring.cpp:39 (discriminator 3)
    88a4:	ed5b7a16 	vldr	s15, [fp, #-88]	; 0xffffffa8
    88a8:	ed9f7a74 	vldr	s14, [pc, #464]	; 8a80 <_Z4ftoafPc+0x318>
    88ac:	eef47ac7 	vcmpe.f32	s15, s14
    88b0:	eef1fa10 	vmrs	APSR_nzcv, fpscr
    88b4:	da00000b 	ble	88e8 <_Z4ftoafPc+0x180>
/home/hintik/dev/final/src/sources/stdlib/src/stdstring.cpp:40 (discriminator 2)
        f /= 10;
    88b8:	ed1b7a16 	vldr	s14, [fp, #-88]	; 0xffffffa8
    88bc:	eddf6a70 	vldr	s13, [pc, #448]	; 8a84 <_Z4ftoafPc+0x31c>
    88c0:	eec77a26 	vdiv.f32	s15, s14, s13
    88c4:	ed4b7a16 	vstr	s15, [fp, #-88]	; 0xffffffa8
/home/hintik/dev/final/src/sources/stdlib/src/stdstring.cpp:39 (discriminator 2)
    for (length = (f > 1) ? 0 : 1; f > 1; length++)
    88c8:	e14b24dc 	ldrd	r2, [fp, #-76]	; 0xffffffb4
    88cc:	e2921001 	adds	r1, r2, #1
    88d0:	e50b1064 	str	r1, [fp, #-100]	; 0xffffff9c
    88d4:	e2a33000 	adc	r3, r3, #0
    88d8:	e50b3060 	str	r3, [fp, #-96]	; 0xffffffa0
    88dc:	e14b26d4 	ldrd	r2, [fp, #-100]	; 0xffffff9c
    88e0:	e14b24fc 	strd	r2, [fp, #-76]	; 0xffffffb4
    88e4:	eaffffee 	b	88a4 <_Z4ftoafPc+0x13c>
/home/hintik/dev/final/src/sources/stdlib/src/stdstring.cpp:42

    position = length;
    88e8:	e14b24dc 	ldrd	r2, [fp, #-76]	; 0xffffffb4
    88ec:	e14b25f4 	strd	r2, [fp, #-84]	; 0xffffffac
/home/hintik/dev/final/src/sources/stdlib/src/stdstring.cpp:43
    length = length + 1 + length2;
    88f0:	e14b24dc 	ldrd	r2, [fp, #-76]	; 0xffffffb4
    88f4:	e2924001 	adds	r4, r2, #1
    88f8:	e2a35000 	adc	r5, r3, #0
    88fc:	e14b22d4 	ldrd	r2, [fp, #-36]	; 0xffffffdc
    8900:	e0941002 	adds	r1, r4, r2
    8904:	e50b106c 	str	r1, [fp, #-108]	; 0xffffff94
    8908:	e0a53003 	adc	r3, r5, r3
    890c:	e50b3068 	str	r3, [fp, #-104]	; 0xffffff98
    8910:	e14b26dc 	ldrd	r2, [fp, #-108]	; 0xffffff94
    8914:	e14b24fc 	strd	r2, [fp, #-76]	; 0xffffffb4
/home/hintik/dev/final/src/sources/stdlib/src/stdstring.cpp:44
    number = number2;
    8918:	e51b0040 	ldr	r0, [fp, #-64]	; 0xffffffc0
    891c:	eb00046b 	bl	9ad0 <__aeabi_f2lz>
    8920:	e1a02000 	mov	r2, r0
    8924:	e1a03001 	mov	r3, r1
    8928:	e14b23f4 	strd	r2, [fp, #-52]	; 0xffffffcc
/home/hintik/dev/final/src/sources/stdlib/src/stdstring.cpp:45
    if (sign == '-') {
    892c:	e14b23dc 	ldrd	r2, [fp, #-60]	; 0xffffffc4
    8930:	e3530000 	cmp	r3, #0
    8934:	0352002d 	cmpeq	r2, #45	; 0x2d
    8938:	1a00000d 	bne	8974 <_Z4ftoafPc+0x20c>
/home/hintik/dev/final/src/sources/stdlib/src/stdstring.cpp:46
        length++;
    893c:	e14b24dc 	ldrd	r2, [fp, #-76]	; 0xffffffb4
    8940:	e2921001 	adds	r1, r2, #1
    8944:	e50b1074 	str	r1, [fp, #-116]	; 0xffffff8c
    8948:	e2a33000 	adc	r3, r3, #0
    894c:	e50b3070 	str	r3, [fp, #-112]	; 0xffffff90
    8950:	e14b27d4 	ldrd	r2, [fp, #-116]	; 0xffffff8c
    8954:	e14b24fc 	strd	r2, [fp, #-76]	; 0xffffffb4
/home/hintik/dev/final/src/sources/stdlib/src/stdstring.cpp:47
        position++;
    8958:	e14b25d4 	ldrd	r2, [fp, #-84]	; 0xffffffac
    895c:	e2921001 	adds	r1, r2, #1
    8960:	e50b107c 	str	r1, [fp, #-124]	; 0xffffff84
    8964:	e2a33000 	adc	r3, r3, #0
    8968:	e50b3078 	str	r3, [fp, #-120]	; 0xffffff88
    896c:	e14b27dc 	ldrd	r2, [fp, #-124]	; 0xffffff84
    8970:	e14b25f4 	strd	r2, [fp, #-84]	; 0xffffffac
/home/hintik/dev/final/src/sources/stdlib/src/stdstring.cpp:50
    }

    for (i = length; i >= 0; i--) {
    8974:	e14b24dc 	ldrd	r2, [fp, #-76]	; 0xffffffb4
    8978:	e14b22fc 	strd	r2, [fp, #-44]	; 0xffffffd4
/home/hintik/dev/final/src/sources/stdlib/src/stdstring.cpp:50 (discriminator 1)
    897c:	e14b22dc 	ldrd	r2, [fp, #-44]	; 0xffffffd4
    8980:	e3520000 	cmp	r2, #0
    8984:	e2d33000 	sbcs	r3, r3, #0
    8988:	ba000039 	blt	8a74 <_Z4ftoafPc+0x30c>
/home/hintik/dev/final/src/sources/stdlib/src/stdstring.cpp:51
        if (i == (length))
    898c:	e14b24dc 	ldrd	r2, [fp, #-76]	; 0xffffffb4
    8990:	e14b02dc 	ldrd	r0, [fp, #-44]	; 0xffffffd4
    8994:	e1510003 	cmp	r1, r3
    8998:	01500002 	cmpeq	r0, r2
    899c:	1a000005 	bne	89b8 <_Z4ftoafPc+0x250>
/home/hintik/dev/final/src/sources/stdlib/src/stdstring.cpp:52
            r[i] = '\0';
    89a0:	e51b302c 	ldr	r3, [fp, #-44]	; 0xffffffd4
    89a4:	e51b205c 	ldr	r2, [fp, #-92]	; 0xffffffa4
    89a8:	e0823003 	add	r3, r2, r3
    89ac:	e3a02000 	mov	r2, #0
    89b0:	e5c32000 	strb	r2, [r3]
    89b4:	ea000029 	b	8a60 <_Z4ftoafPc+0x2f8>
/home/hintik/dev/final/src/sources/stdlib/src/stdstring.cpp:53
        else if (i == (position))
    89b8:	e14b25d4 	ldrd	r2, [fp, #-84]	; 0xffffffac
    89bc:	e14b02dc 	ldrd	r0, [fp, #-44]	; 0xffffffd4
    89c0:	e1510003 	cmp	r1, r3
    89c4:	01500002 	cmpeq	r0, r2
    89c8:	1a000005 	bne	89e4 <_Z4ftoafPc+0x27c>
/home/hintik/dev/final/src/sources/stdlib/src/stdstring.cpp:54
            r[i] = '.';
    89cc:	e51b302c 	ldr	r3, [fp, #-44]	; 0xffffffd4
    89d0:	e51b205c 	ldr	r2, [fp, #-92]	; 0xffffffa4
    89d4:	e0823003 	add	r3, r2, r3
    89d8:	e3a0202e 	mov	r2, #46	; 0x2e
    89dc:	e5c32000 	strb	r2, [r3]
    89e0:	ea00001e 	b	8a60 <_Z4ftoafPc+0x2f8>
/home/hintik/dev/final/src/sources/stdlib/src/stdstring.cpp:55
        else if (sign == '-' && i == 0)
    89e4:	e14b23dc 	ldrd	r2, [fp, #-60]	; 0xffffffc4
    89e8:	e3530000 	cmp	r3, #0
    89ec:	0352002d 	cmpeq	r2, #45	; 0x2d
    89f0:	1a000008 	bne	8a18 <_Z4ftoafPc+0x2b0>
/home/hintik/dev/final/src/sources/stdlib/src/stdstring.cpp:55 (discriminator 1)
    89f4:	e14b22dc 	ldrd	r2, [fp, #-44]	; 0xffffffd4
    89f8:	e1923003 	orrs	r3, r2, r3
    89fc:	1a000005 	bne	8a18 <_Z4ftoafPc+0x2b0>
/home/hintik/dev/final/src/sources/stdlib/src/stdstring.cpp:56
            r[i] = '-';
    8a00:	e51b302c 	ldr	r3, [fp, #-44]	; 0xffffffd4
    8a04:	e51b205c 	ldr	r2, [fp, #-92]	; 0xffffffa4
    8a08:	e0823003 	add	r3, r2, r3
    8a0c:	e3a0202d 	mov	r2, #45	; 0x2d
    8a10:	e5c32000 	strb	r2, [r3]
    8a14:	ea000011 	b	8a60 <_Z4ftoafPc+0x2f8>
/home/hintik/dev/final/src/sources/stdlib/src/stdstring.cpp:58
        else {
            r[i] = (number % 10) + '0';
    8a18:	e14b03d4 	ldrd	r0, [fp, #-52]	; 0xffffffcc
    8a1c:	e3a0200a 	mov	r2, #10
    8a20:	e3a03000 	mov	r3, #0
    8a24:	eb0003f4 	bl	99fc <__aeabi_ldivmod>
    8a28:	e6ef2072 	uxtb	r2, r2
    8a2c:	e51b302c 	ldr	r3, [fp, #-44]	; 0xffffffd4
    8a30:	e51b105c 	ldr	r1, [fp, #-92]	; 0xffffffa4
    8a34:	e0813003 	add	r3, r1, r3
    8a38:	e2822030 	add	r2, r2, #48	; 0x30
    8a3c:	e6ef2072 	uxtb	r2, r2
    8a40:	e5c32000 	strb	r2, [r3]
/home/hintik/dev/final/src/sources/stdlib/src/stdstring.cpp:59
            number /= 10;
    8a44:	e14b03d4 	ldrd	r0, [fp, #-52]	; 0xffffffcc
    8a48:	e3a0200a 	mov	r2, #10
    8a4c:	e3a03000 	mov	r3, #0
    8a50:	eb0003e9 	bl	99fc <__aeabi_ldivmod>
    8a54:	e1a02000 	mov	r2, r0
    8a58:	e1a03001 	mov	r3, r1
    8a5c:	e14b23f4 	strd	r2, [fp, #-52]	; 0xffffffcc
/home/hintik/dev/final/src/sources/stdlib/src/stdstring.cpp:50 (discriminator 2)
    for (i = length; i >= 0; i--) {
    8a60:	e14b22dc 	ldrd	r2, [fp, #-44]	; 0xffffffd4
    8a64:	e2528001 	subs	r8, r2, #1
    8a68:	e2c39000 	sbc	r9, r3, #0
    8a6c:	e14b82fc 	strd	r8, [fp, #-44]	; 0xffffffd4
    8a70:	eaffffc1 	b	897c <_Z4ftoafPc+0x214>
/home/hintik/dev/final/src/sources/stdlib/src/stdstring.cpp:62
        }
    }
}
    8a74:	e320f000 	nop	{0}
    8a78:	e24bd01c 	sub	sp, fp, #28
    8a7c:	e8bd8bf0 	pop	{r4, r5, r6, r7, r8, r9, fp, pc}
    8a80:	3f800000 	svccc	0x00800000
    8a84:	41200000 			; <UNDEFINED> instruction: 0x41200000

00008a88 <_Z4atofPKc>:
_Z4atofPKc():
/home/hintik/dev/final/src/sources/stdlib/src/stdstring.cpp:66

#define isdigit(c) (c >= '0' && c <= '9')

float atof(const char *s) {
    8a88:	e52db004 	push	{fp}		; (str fp, [sp, #-4]!)
    8a8c:	e28db000 	add	fp, sp, #0
    8a90:	e24dd024 	sub	sp, sp, #36	; 0x24
    8a94:	e50b0020 	str	r0, [fp, #-32]	; 0xffffffe0
/home/hintik/dev/final/src/sources/stdlib/src/stdstring.cpp:67
    float a = 0.0;
    8a98:	e3a03000 	mov	r3, #0
    8a9c:	e50b3008 	str	r3, [fp, #-8]
/home/hintik/dev/final/src/sources/stdlib/src/stdstring.cpp:68
    int e = 0;
    8aa0:	e3a03000 	mov	r3, #0
    8aa4:	e50b300c 	str	r3, [fp, #-12]
/home/hintik/dev/final/src/sources/stdlib/src/stdstring.cpp:70
    int c;
    while ((c = *s++) != '\0' && isdigit(c)) {
    8aa8:	e51b3020 	ldr	r3, [fp, #-32]	; 0xffffffe0
    8aac:	e2832001 	add	r2, r3, #1
    8ab0:	e50b2020 	str	r2, [fp, #-32]	; 0xffffffe0
    8ab4:	e5d33000 	ldrb	r3, [r3]
    8ab8:	e50b3010 	str	r3, [fp, #-16]
    8abc:	e51b3010 	ldr	r3, [fp, #-16]
    8ac0:	e3530000 	cmp	r3, #0
    8ac4:	0a000007 	beq	8ae8 <_Z4atofPKc+0x60>
/home/hintik/dev/final/src/sources/stdlib/src/stdstring.cpp:70 (discriminator 1)
    8ac8:	e51b3010 	ldr	r3, [fp, #-16]
    8acc:	e353002f 	cmp	r3, #47	; 0x2f
    8ad0:	da000004 	ble	8ae8 <_Z4atofPKc+0x60>
/home/hintik/dev/final/src/sources/stdlib/src/stdstring.cpp:70 (discriminator 3)
    8ad4:	e51b3010 	ldr	r3, [fp, #-16]
    8ad8:	e3530039 	cmp	r3, #57	; 0x39
    8adc:	ca000001 	bgt	8ae8 <_Z4atofPKc+0x60>
/home/hintik/dev/final/src/sources/stdlib/src/stdstring.cpp:70 (discriminator 5)
    8ae0:	e3a03001 	mov	r3, #1
    8ae4:	ea000000 	b	8aec <_Z4atofPKc+0x64>
/home/hintik/dev/final/src/sources/stdlib/src/stdstring.cpp:70 (discriminator 6)
    8ae8:	e3a03000 	mov	r3, #0
/home/hintik/dev/final/src/sources/stdlib/src/stdstring.cpp:70 (discriminator 8)
    8aec:	e3530000 	cmp	r3, #0
    8af0:	0a00000b 	beq	8b24 <_Z4atofPKc+0x9c>
/home/hintik/dev/final/src/sources/stdlib/src/stdstring.cpp:71
        a = a * 10.0 + (c - '0');
    8af4:	ed5b7a02 	vldr	s15, [fp, #-8]
    8af8:	eeb77ae7 	vcvt.f64.f32	d7, s15
    8afc:	ed9f6b89 	vldr	d6, [pc, #548]	; 8d28 <_Z4atofPKc+0x2a0>
    8b00:	ee276b06 	vmul.f64	d6, d7, d6
    8b04:	e51b3010 	ldr	r3, [fp, #-16]
    8b08:	e2433030 	sub	r3, r3, #48	; 0x30
    8b0c:	ee073a90 	vmov	s15, r3
    8b10:	eeb87be7 	vcvt.f64.s32	d7, s15
    8b14:	ee367b07 	vadd.f64	d7, d6, d7
    8b18:	eef77bc7 	vcvt.f32.f64	s15, d7
    8b1c:	ed4b7a02 	vstr	s15, [fp, #-8]
/home/hintik/dev/final/src/sources/stdlib/src/stdstring.cpp:70
    while ((c = *s++) != '\0' && isdigit(c)) {
    8b20:	eaffffe0 	b	8aa8 <_Z4atofPKc+0x20>
/home/hintik/dev/final/src/sources/stdlib/src/stdstring.cpp:73
    }
    if (c == '.') {
    8b24:	e51b3010 	ldr	r3, [fp, #-16]
    8b28:	e353002e 	cmp	r3, #46	; 0x2e
    8b2c:	1a000021 	bne	8bb8 <_Z4atofPKc+0x130>
/home/hintik/dev/final/src/sources/stdlib/src/stdstring.cpp:74
        while ((c = *s++) != '\0' && isdigit(c)) {
    8b30:	e51b3020 	ldr	r3, [fp, #-32]	; 0xffffffe0
    8b34:	e2832001 	add	r2, r3, #1
    8b38:	e50b2020 	str	r2, [fp, #-32]	; 0xffffffe0
    8b3c:	e5d33000 	ldrb	r3, [r3]
    8b40:	e50b3010 	str	r3, [fp, #-16]
    8b44:	e51b3010 	ldr	r3, [fp, #-16]
    8b48:	e3530000 	cmp	r3, #0
    8b4c:	0a000007 	beq	8b70 <_Z4atofPKc+0xe8>
/home/hintik/dev/final/src/sources/stdlib/src/stdstring.cpp:74 (discriminator 1)
    8b50:	e51b3010 	ldr	r3, [fp, #-16]
    8b54:	e353002f 	cmp	r3, #47	; 0x2f
    8b58:	da000004 	ble	8b70 <_Z4atofPKc+0xe8>
/home/hintik/dev/final/src/sources/stdlib/src/stdstring.cpp:74 (discriminator 3)
    8b5c:	e51b3010 	ldr	r3, [fp, #-16]
    8b60:	e3530039 	cmp	r3, #57	; 0x39
    8b64:	ca000001 	bgt	8b70 <_Z4atofPKc+0xe8>
/home/hintik/dev/final/src/sources/stdlib/src/stdstring.cpp:74 (discriminator 5)
    8b68:	e3a03001 	mov	r3, #1
    8b6c:	ea000000 	b	8b74 <_Z4atofPKc+0xec>
/home/hintik/dev/final/src/sources/stdlib/src/stdstring.cpp:74 (discriminator 6)
    8b70:	e3a03000 	mov	r3, #0
/home/hintik/dev/final/src/sources/stdlib/src/stdstring.cpp:74 (discriminator 8)
    8b74:	e3530000 	cmp	r3, #0
    8b78:	0a00000e 	beq	8bb8 <_Z4atofPKc+0x130>
/home/hintik/dev/final/src/sources/stdlib/src/stdstring.cpp:75
            a = a * 10.0 + (c - '0');
    8b7c:	ed5b7a02 	vldr	s15, [fp, #-8]
    8b80:	eeb77ae7 	vcvt.f64.f32	d7, s15
    8b84:	ed9f6b67 	vldr	d6, [pc, #412]	; 8d28 <_Z4atofPKc+0x2a0>
    8b88:	ee276b06 	vmul.f64	d6, d7, d6
    8b8c:	e51b3010 	ldr	r3, [fp, #-16]
    8b90:	e2433030 	sub	r3, r3, #48	; 0x30
    8b94:	ee073a90 	vmov	s15, r3
    8b98:	eeb87be7 	vcvt.f64.s32	d7, s15
    8b9c:	ee367b07 	vadd.f64	d7, d6, d7
    8ba0:	eef77bc7 	vcvt.f32.f64	s15, d7
    8ba4:	ed4b7a02 	vstr	s15, [fp, #-8]
/home/hintik/dev/final/src/sources/stdlib/src/stdstring.cpp:76
            e = e - 1;
    8ba8:	e51b300c 	ldr	r3, [fp, #-12]
    8bac:	e2433001 	sub	r3, r3, #1
    8bb0:	e50b300c 	str	r3, [fp, #-12]
/home/hintik/dev/final/src/sources/stdlib/src/stdstring.cpp:74
        while ((c = *s++) != '\0' && isdigit(c)) {
    8bb4:	eaffffdd 	b	8b30 <_Z4atofPKc+0xa8>
/home/hintik/dev/final/src/sources/stdlib/src/stdstring.cpp:79
        }
    }
    if (c == 'e' || c == 'E') {
    8bb8:	e51b3010 	ldr	r3, [fp, #-16]
    8bbc:	e3530065 	cmp	r3, #101	; 0x65
    8bc0:	0a000002 	beq	8bd0 <_Z4atofPKc+0x148>
/home/hintik/dev/final/src/sources/stdlib/src/stdstring.cpp:79 (discriminator 1)
    8bc4:	e51b3010 	ldr	r3, [fp, #-16]
    8bc8:	e3530045 	cmp	r3, #69	; 0x45
    8bcc:	1a000037 	bne	8cb0 <_Z4atofPKc+0x228>
/home/hintik/dev/final/src/sources/stdlib/src/stdstring.cpp:80
        int sign = 1;
    8bd0:	e3a03001 	mov	r3, #1
    8bd4:	e50b3014 	str	r3, [fp, #-20]	; 0xffffffec
/home/hintik/dev/final/src/sources/stdlib/src/stdstring.cpp:81
        int i = 0;
    8bd8:	e3a03000 	mov	r3, #0
    8bdc:	e50b3018 	str	r3, [fp, #-24]	; 0xffffffe8
/home/hintik/dev/final/src/sources/stdlib/src/stdstring.cpp:82
        c = *s++;
    8be0:	e51b3020 	ldr	r3, [fp, #-32]	; 0xffffffe0
    8be4:	e2832001 	add	r2, r3, #1
    8be8:	e50b2020 	str	r2, [fp, #-32]	; 0xffffffe0
    8bec:	e5d33000 	ldrb	r3, [r3]
    8bf0:	e50b3010 	str	r3, [fp, #-16]
/home/hintik/dev/final/src/sources/stdlib/src/stdstring.cpp:83
        if (c == '+')
    8bf4:	e51b3010 	ldr	r3, [fp, #-16]
    8bf8:	e353002b 	cmp	r3, #43	; 0x2b
    8bfc:	1a000005 	bne	8c18 <_Z4atofPKc+0x190>
/home/hintik/dev/final/src/sources/stdlib/src/stdstring.cpp:84
            c = *s++;
    8c00:	e51b3020 	ldr	r3, [fp, #-32]	; 0xffffffe0
    8c04:	e2832001 	add	r2, r3, #1
    8c08:	e50b2020 	str	r2, [fp, #-32]	; 0xffffffe0
    8c0c:	e5d33000 	ldrb	r3, [r3]
    8c10:	e50b3010 	str	r3, [fp, #-16]
    8c14:	ea000009 	b	8c40 <_Z4atofPKc+0x1b8>
/home/hintik/dev/final/src/sources/stdlib/src/stdstring.cpp:85
        else if (c == '-') {
    8c18:	e51b3010 	ldr	r3, [fp, #-16]
    8c1c:	e353002d 	cmp	r3, #45	; 0x2d
    8c20:	1a000006 	bne	8c40 <_Z4atofPKc+0x1b8>
/home/hintik/dev/final/src/sources/stdlib/src/stdstring.cpp:86
            c = *s++;
    8c24:	e51b3020 	ldr	r3, [fp, #-32]	; 0xffffffe0
    8c28:	e2832001 	add	r2, r3, #1
    8c2c:	e50b2020 	str	r2, [fp, #-32]	; 0xffffffe0
    8c30:	e5d33000 	ldrb	r3, [r3]
    8c34:	e50b3010 	str	r3, [fp, #-16]
/home/hintik/dev/final/src/sources/stdlib/src/stdstring.cpp:87
            sign = -1;
    8c38:	e3e03000 	mvn	r3, #0
    8c3c:	e50b3014 	str	r3, [fp, #-20]	; 0xffffffec
/home/hintik/dev/final/src/sources/stdlib/src/stdstring.cpp:89
        }
        while (isdigit(c)) {
    8c40:	e51b3010 	ldr	r3, [fp, #-16]
    8c44:	e353002f 	cmp	r3, #47	; 0x2f
    8c48:	da000012 	ble	8c98 <_Z4atofPKc+0x210>
/home/hintik/dev/final/src/sources/stdlib/src/stdstring.cpp:89 (discriminator 1)
    8c4c:	e51b3010 	ldr	r3, [fp, #-16]
    8c50:	e3530039 	cmp	r3, #57	; 0x39
    8c54:	ca00000f 	bgt	8c98 <_Z4atofPKc+0x210>
/home/hintik/dev/final/src/sources/stdlib/src/stdstring.cpp:90
            i = i * 10 + (c - '0');
    8c58:	e51b2018 	ldr	r2, [fp, #-24]	; 0xffffffe8
    8c5c:	e1a03002 	mov	r3, r2
    8c60:	e1a03103 	lsl	r3, r3, #2
    8c64:	e0833002 	add	r3, r3, r2
    8c68:	e1a03083 	lsl	r3, r3, #1
    8c6c:	e1a02003 	mov	r2, r3
    8c70:	e51b3010 	ldr	r3, [fp, #-16]
    8c74:	e2433030 	sub	r3, r3, #48	; 0x30
    8c78:	e0823003 	add	r3, r2, r3
    8c7c:	e50b3018 	str	r3, [fp, #-24]	; 0xffffffe8
/home/hintik/dev/final/src/sources/stdlib/src/stdstring.cpp:91
            c = *s++;
    8c80:	e51b3020 	ldr	r3, [fp, #-32]	; 0xffffffe0
    8c84:	e2832001 	add	r2, r3, #1
    8c88:	e50b2020 	str	r2, [fp, #-32]	; 0xffffffe0
    8c8c:	e5d33000 	ldrb	r3, [r3]
    8c90:	e50b3010 	str	r3, [fp, #-16]
/home/hintik/dev/final/src/sources/stdlib/src/stdstring.cpp:89
        while (isdigit(c)) {
    8c94:	eaffffe9 	b	8c40 <_Z4atofPKc+0x1b8>
/home/hintik/dev/final/src/sources/stdlib/src/stdstring.cpp:93
        }
        e += i * sign;
    8c98:	e51b3018 	ldr	r3, [fp, #-24]	; 0xffffffe8
    8c9c:	e51b2014 	ldr	r2, [fp, #-20]	; 0xffffffec
    8ca0:	e0030392 	mul	r3, r2, r3
    8ca4:	e51b200c 	ldr	r2, [fp, #-12]
    8ca8:	e0823003 	add	r3, r2, r3
    8cac:	e50b300c 	str	r3, [fp, #-12]
/home/hintik/dev/final/src/sources/stdlib/src/stdstring.cpp:95
    }
    while (e > 0) {
    8cb0:	e51b300c 	ldr	r3, [fp, #-12]
    8cb4:	e3530000 	cmp	r3, #0
    8cb8:	da000007 	ble	8cdc <_Z4atofPKc+0x254>
/home/hintik/dev/final/src/sources/stdlib/src/stdstring.cpp:96
        a *= 10.0;
    8cbc:	ed5b7a02 	vldr	s15, [fp, #-8]
    8cc0:	ed9f7a1c 	vldr	s14, [pc, #112]	; 8d38 <_Z4atofPKc+0x2b0>
    8cc4:	ee677a87 	vmul.f32	s15, s15, s14
    8cc8:	ed4b7a02 	vstr	s15, [fp, #-8]
/home/hintik/dev/final/src/sources/stdlib/src/stdstring.cpp:97
        e--;
    8ccc:	e51b300c 	ldr	r3, [fp, #-12]
    8cd0:	e2433001 	sub	r3, r3, #1
    8cd4:	e50b300c 	str	r3, [fp, #-12]
/home/hintik/dev/final/src/sources/stdlib/src/stdstring.cpp:95
    while (e > 0) {
    8cd8:	eafffff4 	b	8cb0 <_Z4atofPKc+0x228>
/home/hintik/dev/final/src/sources/stdlib/src/stdstring.cpp:99
    }
    while (e < 0) {
    8cdc:	e51b300c 	ldr	r3, [fp, #-12]
    8ce0:	e3530000 	cmp	r3, #0
    8ce4:	aa000009 	bge	8d10 <_Z4atofPKc+0x288>
/home/hintik/dev/final/src/sources/stdlib/src/stdstring.cpp:100
        a *= 0.1;
    8ce8:	ed5b7a02 	vldr	s15, [fp, #-8]
    8cec:	eeb77ae7 	vcvt.f64.f32	d7, s15
    8cf0:	ed9f6b0e 	vldr	d6, [pc, #56]	; 8d30 <_Z4atofPKc+0x2a8>
    8cf4:	ee277b06 	vmul.f64	d7, d7, d6
    8cf8:	eef77bc7 	vcvt.f32.f64	s15, d7
    8cfc:	ed4b7a02 	vstr	s15, [fp, #-8]
/home/hintik/dev/final/src/sources/stdlib/src/stdstring.cpp:101
        e++;
    8d00:	e51b300c 	ldr	r3, [fp, #-12]
    8d04:	e2833001 	add	r3, r3, #1
    8d08:	e50b300c 	str	r3, [fp, #-12]
/home/hintik/dev/final/src/sources/stdlib/src/stdstring.cpp:99
    while (e < 0) {
    8d0c:	eafffff2 	b	8cdc <_Z4atofPKc+0x254>
/home/hintik/dev/final/src/sources/stdlib/src/stdstring.cpp:103
    }
    return a;
    8d10:	e51b3008 	ldr	r3, [fp, #-8]
    8d14:	ee073a90 	vmov	s15, r3
/home/hintik/dev/final/src/sources/stdlib/src/stdstring.cpp:104
}
    8d18:	eeb00a67 	vmov.f32	s0, s15
    8d1c:	e28bd000 	add	sp, fp, #0
    8d20:	e49db004 	pop	{fp}		; (ldr fp, [sp], #4)
    8d24:	e12fff1e 	bx	lr
    8d28:	00000000 	andeq	r0, r0, r0
    8d2c:	40240000 	eormi	r0, r4, r0
    8d30:	9999999a 	ldmibls	r9, {r1, r3, r4, r7, r8, fp, ip, pc}
    8d34:	3fb99999 	svccc	0x00b99999
    8d38:	41200000 			; <UNDEFINED> instruction: 0x41200000

00008d3c <_Z4itoajPcj>:
_Z4itoajPcj():
/home/hintik/dev/final/src/sources/stdlib/src/stdstring.cpp:106

void itoa(unsigned int input, char *output, unsigned int base) {
    8d3c:	e92d4800 	push	{fp, lr}
    8d40:	e28db004 	add	fp, sp, #4
    8d44:	e24dd020 	sub	sp, sp, #32
    8d48:	e50b0018 	str	r0, [fp, #-24]	; 0xffffffe8
    8d4c:	e50b101c 	str	r1, [fp, #-28]	; 0xffffffe4
    8d50:	e50b2020 	str	r2, [fp, #-32]	; 0xffffffe0
/home/hintik/dev/final/src/sources/stdlib/src/stdstring.cpp:107
    int i = 0;
    8d54:	e3a03000 	mov	r3, #0
    8d58:	e50b3008 	str	r3, [fp, #-8]
/home/hintik/dev/final/src/sources/stdlib/src/stdstring.cpp:109

    while (input > 0) {
    8d5c:	e51b3018 	ldr	r3, [fp, #-24]	; 0xffffffe8
    8d60:	e3530000 	cmp	r3, #0
    8d64:	0a000014 	beq	8dbc <_Z4itoajPcj+0x80>
/home/hintik/dev/final/src/sources/stdlib/src/stdstring.cpp:110
        output[i] = CharConvArr[input % base];
    8d68:	e51b3018 	ldr	r3, [fp, #-24]	; 0xffffffe8
    8d6c:	e51b1020 	ldr	r1, [fp, #-32]	; 0xffffffe0
    8d70:	e1a00003 	mov	r0, r3
    8d74:	eb000283 	bl	9788 <__aeabi_uidivmod>
    8d78:	e1a03001 	mov	r3, r1
    8d7c:	e1a01003 	mov	r1, r3
    8d80:	e51b3008 	ldr	r3, [fp, #-8]
    8d84:	e51b201c 	ldr	r2, [fp, #-28]	; 0xffffffe4
    8d88:	e0823003 	add	r3, r2, r3
    8d8c:	e59f2118 	ldr	r2, [pc, #280]	; 8eac <_Z4itoajPcj+0x170>
    8d90:	e7d22001 	ldrb	r2, [r2, r1]
    8d94:	e5c32000 	strb	r2, [r3]
/home/hintik/dev/final/src/sources/stdlib/src/stdstring.cpp:111
        input /= base;
    8d98:	e51b1020 	ldr	r1, [fp, #-32]	; 0xffffffe0
    8d9c:	e51b0018 	ldr	r0, [fp, #-24]	; 0xffffffe8
    8da0:	eb0001fd 	bl	959c <__udivsi3>
    8da4:	e1a03000 	mov	r3, r0
    8da8:	e50b3018 	str	r3, [fp, #-24]	; 0xffffffe8
/home/hintik/dev/final/src/sources/stdlib/src/stdstring.cpp:112
        i++;
    8dac:	e51b3008 	ldr	r3, [fp, #-8]
    8db0:	e2833001 	add	r3, r3, #1
    8db4:	e50b3008 	str	r3, [fp, #-8]
/home/hintik/dev/final/src/sources/stdlib/src/stdstring.cpp:109
    while (input > 0) {
    8db8:	eaffffe7 	b	8d5c <_Z4itoajPcj+0x20>
/home/hintik/dev/final/src/sources/stdlib/src/stdstring.cpp:115
    }

    if (i == 0) {
    8dbc:	e51b3008 	ldr	r3, [fp, #-8]
    8dc0:	e3530000 	cmp	r3, #0
    8dc4:	1a000007 	bne	8de8 <_Z4itoajPcj+0xac>
/home/hintik/dev/final/src/sources/stdlib/src/stdstring.cpp:116
        output[i] = CharConvArr[0];
    8dc8:	e51b3008 	ldr	r3, [fp, #-8]
    8dcc:	e51b201c 	ldr	r2, [fp, #-28]	; 0xffffffe4
    8dd0:	e0823003 	add	r3, r2, r3
    8dd4:	e3a02030 	mov	r2, #48	; 0x30
    8dd8:	e5c32000 	strb	r2, [r3]
/home/hintik/dev/final/src/sources/stdlib/src/stdstring.cpp:117
        i++;
    8ddc:	e51b3008 	ldr	r3, [fp, #-8]
    8de0:	e2833001 	add	r3, r3, #1
    8de4:	e50b3008 	str	r3, [fp, #-8]
/home/hintik/dev/final/src/sources/stdlib/src/stdstring.cpp:120
    }

    output[i] = '\0';
    8de8:	e51b3008 	ldr	r3, [fp, #-8]
    8dec:	e51b201c 	ldr	r2, [fp, #-28]	; 0xffffffe4
    8df0:	e0823003 	add	r3, r2, r3
    8df4:	e3a02000 	mov	r2, #0
    8df8:	e5c32000 	strb	r2, [r3]
/home/hintik/dev/final/src/sources/stdlib/src/stdstring.cpp:121
    i--;
    8dfc:	e51b3008 	ldr	r3, [fp, #-8]
    8e00:	e2433001 	sub	r3, r3, #1
    8e04:	e50b3008 	str	r3, [fp, #-8]
/home/hintik/dev/final/src/sources/stdlib/src/stdstring.cpp:123

    for (int j = 0; j <= i / 2; j++) {
    8e08:	e3a03000 	mov	r3, #0
    8e0c:	e50b300c 	str	r3, [fp, #-12]
/home/hintik/dev/final/src/sources/stdlib/src/stdstring.cpp:123 (discriminator 3)
    8e10:	e51b3008 	ldr	r3, [fp, #-8]
    8e14:	e1a02fa3 	lsr	r2, r3, #31
    8e18:	e0823003 	add	r3, r2, r3
    8e1c:	e1a030c3 	asr	r3, r3, #1
    8e20:	e1a02003 	mov	r2, r3
    8e24:	e51b300c 	ldr	r3, [fp, #-12]
    8e28:	e1530002 	cmp	r3, r2
    8e2c:	ca00001b 	bgt	8ea0 <_Z4itoajPcj+0x164>
/home/hintik/dev/final/src/sources/stdlib/src/stdstring.cpp:124 (discriminator 2)
        char c = output[i - j];
    8e30:	e51b2008 	ldr	r2, [fp, #-8]
    8e34:	e51b300c 	ldr	r3, [fp, #-12]
    8e38:	e0423003 	sub	r3, r2, r3
    8e3c:	e1a02003 	mov	r2, r3
    8e40:	e51b301c 	ldr	r3, [fp, #-28]	; 0xffffffe4
    8e44:	e0833002 	add	r3, r3, r2
    8e48:	e5d33000 	ldrb	r3, [r3]
    8e4c:	e54b300d 	strb	r3, [fp, #-13]
/home/hintik/dev/final/src/sources/stdlib/src/stdstring.cpp:125 (discriminator 2)
        output[i - j] = output[j];
    8e50:	e51b300c 	ldr	r3, [fp, #-12]
    8e54:	e51b201c 	ldr	r2, [fp, #-28]	; 0xffffffe4
    8e58:	e0822003 	add	r2, r2, r3
    8e5c:	e51b1008 	ldr	r1, [fp, #-8]
    8e60:	e51b300c 	ldr	r3, [fp, #-12]
    8e64:	e0413003 	sub	r3, r1, r3
    8e68:	e1a01003 	mov	r1, r3
    8e6c:	e51b301c 	ldr	r3, [fp, #-28]	; 0xffffffe4
    8e70:	e0833001 	add	r3, r3, r1
    8e74:	e5d22000 	ldrb	r2, [r2]
    8e78:	e5c32000 	strb	r2, [r3]
/home/hintik/dev/final/src/sources/stdlib/src/stdstring.cpp:126 (discriminator 2)
        output[j] = c;
    8e7c:	e51b300c 	ldr	r3, [fp, #-12]
    8e80:	e51b201c 	ldr	r2, [fp, #-28]	; 0xffffffe4
    8e84:	e0823003 	add	r3, r2, r3
    8e88:	e55b200d 	ldrb	r2, [fp, #-13]
    8e8c:	e5c32000 	strb	r2, [r3]
/home/hintik/dev/final/src/sources/stdlib/src/stdstring.cpp:123 (discriminator 2)
    for (int j = 0; j <= i / 2; j++) {
    8e90:	e51b300c 	ldr	r3, [fp, #-12]
    8e94:	e2833001 	add	r3, r3, #1
    8e98:	e50b300c 	str	r3, [fp, #-12]
    8e9c:	eaffffdb 	b	8e10 <_Z4itoajPcj+0xd4>
/home/hintik/dev/final/src/sources/stdlib/src/stdstring.cpp:128
    }
}
    8ea0:	e320f000 	nop	{0}
    8ea4:	e24bd004 	sub	sp, fp, #4
    8ea8:	e8bd8800 	pop	{fp, pc}
    8eac:	00009ccc 	andeq	r9, r0, ip, asr #25

00008eb0 <_Z4atoiPKc>:
_Z4atoiPKc():
/home/hintik/dev/final/src/sources/stdlib/src/stdstring.cpp:130

int atoi(const char *input) {
    8eb0:	e52db004 	push	{fp}		; (str fp, [sp, #-4]!)
    8eb4:	e28db000 	add	fp, sp, #0
    8eb8:	e24dd014 	sub	sp, sp, #20
    8ebc:	e50b0010 	str	r0, [fp, #-16]
/home/hintik/dev/final/src/sources/stdlib/src/stdstring.cpp:131
    int output = 0;
    8ec0:	e3a03000 	mov	r3, #0
    8ec4:	e50b3008 	str	r3, [fp, #-8]
/home/hintik/dev/final/src/sources/stdlib/src/stdstring.cpp:133

    while (*input != '\0') {
    8ec8:	e51b3010 	ldr	r3, [fp, #-16]
    8ecc:	e5d33000 	ldrb	r3, [r3]
    8ed0:	e3530000 	cmp	r3, #0
    8ed4:	0a000017 	beq	8f38 <_Z4atoiPKc+0x88>
/home/hintik/dev/final/src/sources/stdlib/src/stdstring.cpp:134
        output *= 10;
    8ed8:	e51b2008 	ldr	r2, [fp, #-8]
    8edc:	e1a03002 	mov	r3, r2
    8ee0:	e1a03103 	lsl	r3, r3, #2
    8ee4:	e0833002 	add	r3, r3, r2
    8ee8:	e1a03083 	lsl	r3, r3, #1
    8eec:	e50b3008 	str	r3, [fp, #-8]
/home/hintik/dev/final/src/sources/stdlib/src/stdstring.cpp:135
        if (*input > '9' || *input < '0')
    8ef0:	e51b3010 	ldr	r3, [fp, #-16]
    8ef4:	e5d33000 	ldrb	r3, [r3]
    8ef8:	e3530039 	cmp	r3, #57	; 0x39
    8efc:	8a00000d 	bhi	8f38 <_Z4atoiPKc+0x88>
/home/hintik/dev/final/src/sources/stdlib/src/stdstring.cpp:135 (discriminator 1)
    8f00:	e51b3010 	ldr	r3, [fp, #-16]
    8f04:	e5d33000 	ldrb	r3, [r3]
    8f08:	e353002f 	cmp	r3, #47	; 0x2f
    8f0c:	9a000009 	bls	8f38 <_Z4atoiPKc+0x88>
/home/hintik/dev/final/src/sources/stdlib/src/stdstring.cpp:138
            break;

        output += *input - '0';
    8f10:	e51b3010 	ldr	r3, [fp, #-16]
    8f14:	e5d33000 	ldrb	r3, [r3]
    8f18:	e2433030 	sub	r3, r3, #48	; 0x30
    8f1c:	e51b2008 	ldr	r2, [fp, #-8]
    8f20:	e0823003 	add	r3, r2, r3
    8f24:	e50b3008 	str	r3, [fp, #-8]
/home/hintik/dev/final/src/sources/stdlib/src/stdstring.cpp:140

        input++;
    8f28:	e51b3010 	ldr	r3, [fp, #-16]
    8f2c:	e2833001 	add	r3, r3, #1
    8f30:	e50b3010 	str	r3, [fp, #-16]
/home/hintik/dev/final/src/sources/stdlib/src/stdstring.cpp:133
    while (*input != '\0') {
    8f34:	eaffffe3 	b	8ec8 <_Z4atoiPKc+0x18>
/home/hintik/dev/final/src/sources/stdlib/src/stdstring.cpp:143
    }

    return output;
    8f38:	e51b3008 	ldr	r3, [fp, #-8]
/home/hintik/dev/final/src/sources/stdlib/src/stdstring.cpp:144
}
    8f3c:	e1a00003 	mov	r0, r3
    8f40:	e28bd000 	add	sp, fp, #0
    8f44:	e49db004 	pop	{fp}		; (ldr fp, [sp], #4)
    8f48:	e12fff1e 	bx	lr

00008f4c <_Z7strncpyPcPKci>:
_Z7strncpyPcPKci():
/home/hintik/dev/final/src/sources/stdlib/src/stdstring.cpp:146

char *strncpy(char *dest, const char *src, int num) {
    8f4c:	e52db004 	push	{fp}		; (str fp, [sp, #-4]!)
    8f50:	e28db000 	add	fp, sp, #0
    8f54:	e24dd01c 	sub	sp, sp, #28
    8f58:	e50b0010 	str	r0, [fp, #-16]
    8f5c:	e50b1014 	str	r1, [fp, #-20]	; 0xffffffec
    8f60:	e50b2018 	str	r2, [fp, #-24]	; 0xffffffe8
/home/hintik/dev/final/src/sources/stdlib/src/stdstring.cpp:149
    int i;

    for (i = 0; i < num && src[i] != '\0'; i++)
    8f64:	e3a03000 	mov	r3, #0
    8f68:	e50b3008 	str	r3, [fp, #-8]
/home/hintik/dev/final/src/sources/stdlib/src/stdstring.cpp:149 (discriminator 4)
    8f6c:	e51b2008 	ldr	r2, [fp, #-8]
    8f70:	e51b3018 	ldr	r3, [fp, #-24]	; 0xffffffe8
    8f74:	e1520003 	cmp	r2, r3
    8f78:	aa000011 	bge	8fc4 <_Z7strncpyPcPKci+0x78>
/home/hintik/dev/final/src/sources/stdlib/src/stdstring.cpp:149 (discriminator 2)
    8f7c:	e51b3008 	ldr	r3, [fp, #-8]
    8f80:	e51b2014 	ldr	r2, [fp, #-20]	; 0xffffffec
    8f84:	e0823003 	add	r3, r2, r3
    8f88:	e5d33000 	ldrb	r3, [r3]
    8f8c:	e3530000 	cmp	r3, #0
    8f90:	0a00000b 	beq	8fc4 <_Z7strncpyPcPKci+0x78>
/home/hintik/dev/final/src/sources/stdlib/src/stdstring.cpp:150 (discriminator 3)
        dest[i] = src[i];
    8f94:	e51b3008 	ldr	r3, [fp, #-8]
    8f98:	e51b2014 	ldr	r2, [fp, #-20]	; 0xffffffec
    8f9c:	e0822003 	add	r2, r2, r3
    8fa0:	e51b3008 	ldr	r3, [fp, #-8]
    8fa4:	e51b1010 	ldr	r1, [fp, #-16]
    8fa8:	e0813003 	add	r3, r1, r3
    8fac:	e5d22000 	ldrb	r2, [r2]
    8fb0:	e5c32000 	strb	r2, [r3]
/home/hintik/dev/final/src/sources/stdlib/src/stdstring.cpp:149 (discriminator 3)
    for (i = 0; i < num && src[i] != '\0'; i++)
    8fb4:	e51b3008 	ldr	r3, [fp, #-8]
    8fb8:	e2833001 	add	r3, r3, #1
    8fbc:	e50b3008 	str	r3, [fp, #-8]
    8fc0:	eaffffe9 	b	8f6c <_Z7strncpyPcPKci+0x20>
/home/hintik/dev/final/src/sources/stdlib/src/stdstring.cpp:151 (discriminator 2)
    for (; i < num; i++)
    8fc4:	e51b2008 	ldr	r2, [fp, #-8]
    8fc8:	e51b3018 	ldr	r3, [fp, #-24]	; 0xffffffe8
    8fcc:	e1520003 	cmp	r2, r3
    8fd0:	aa000008 	bge	8ff8 <_Z7strncpyPcPKci+0xac>
/home/hintik/dev/final/src/sources/stdlib/src/stdstring.cpp:152 (discriminator 1)
        dest[i] = '\0';
    8fd4:	e51b3008 	ldr	r3, [fp, #-8]
    8fd8:	e51b2010 	ldr	r2, [fp, #-16]
    8fdc:	e0823003 	add	r3, r2, r3
    8fe0:	e3a02000 	mov	r2, #0
    8fe4:	e5c32000 	strb	r2, [r3]
/home/hintik/dev/final/src/sources/stdlib/src/stdstring.cpp:151 (discriminator 1)
    for (; i < num; i++)
    8fe8:	e51b3008 	ldr	r3, [fp, #-8]
    8fec:	e2833001 	add	r3, r3, #1
    8ff0:	e50b3008 	str	r3, [fp, #-8]
    8ff4:	eafffff2 	b	8fc4 <_Z7strncpyPcPKci+0x78>
/home/hintik/dev/final/src/sources/stdlib/src/stdstring.cpp:154

    return dest;
    8ff8:	e51b3010 	ldr	r3, [fp, #-16]
/home/hintik/dev/final/src/sources/stdlib/src/stdstring.cpp:155
}
    8ffc:	e1a00003 	mov	r0, r3
    9000:	e28bd000 	add	sp, fp, #0
    9004:	e49db004 	pop	{fp}		; (ldr fp, [sp], #4)
    9008:	e12fff1e 	bx	lr

0000900c <_Z7strncmpPKcS0_i>:
_Z7strncmpPKcS0_i():
/home/hintik/dev/final/src/sources/stdlib/src/stdstring.cpp:157

int strncmp(const char *s1, const char *s2, int num) {
    900c:	e52db004 	push	{fp}		; (str fp, [sp, #-4]!)
    9010:	e28db000 	add	fp, sp, #0
    9014:	e24dd01c 	sub	sp, sp, #28
    9018:	e50b0010 	str	r0, [fp, #-16]
    901c:	e50b1014 	str	r1, [fp, #-20]	; 0xffffffec
    9020:	e50b2018 	str	r2, [fp, #-24]	; 0xffffffe8
/home/hintik/dev/final/src/sources/stdlib/src/stdstring.cpp:159
    unsigned char u1, u2;
    while (num-- > 0) {
    9024:	e51b3018 	ldr	r3, [fp, #-24]	; 0xffffffe8
    9028:	e2432001 	sub	r2, r3, #1
    902c:	e50b2018 	str	r2, [fp, #-24]	; 0xffffffe8
    9030:	e3530000 	cmp	r3, #0
    9034:	c3a03001 	movgt	r3, #1
    9038:	d3a03000 	movle	r3, #0
    903c:	e6ef3073 	uxtb	r3, r3
    9040:	e3530000 	cmp	r3, #0
    9044:	0a000016 	beq	90a4 <_Z7strncmpPKcS0_i+0x98>
/home/hintik/dev/final/src/sources/stdlib/src/stdstring.cpp:160
        u1 = (unsigned char) *s1++;
    9048:	e51b3010 	ldr	r3, [fp, #-16]
    904c:	e2832001 	add	r2, r3, #1
    9050:	e50b2010 	str	r2, [fp, #-16]
    9054:	e5d33000 	ldrb	r3, [r3]
    9058:	e54b3005 	strb	r3, [fp, #-5]
/home/hintik/dev/final/src/sources/stdlib/src/stdstring.cpp:161
        u2 = (unsigned char) *s2++;
    905c:	e51b3014 	ldr	r3, [fp, #-20]	; 0xffffffec
    9060:	e2832001 	add	r2, r3, #1
    9064:	e50b2014 	str	r2, [fp, #-20]	; 0xffffffec
    9068:	e5d33000 	ldrb	r3, [r3]
    906c:	e54b3006 	strb	r3, [fp, #-6]
/home/hintik/dev/final/src/sources/stdlib/src/stdstring.cpp:162
        if (u1 != u2)
    9070:	e55b2005 	ldrb	r2, [fp, #-5]
    9074:	e55b3006 	ldrb	r3, [fp, #-6]
    9078:	e1520003 	cmp	r2, r3
    907c:	0a000003 	beq	9090 <_Z7strncmpPKcS0_i+0x84>
/home/hintik/dev/final/src/sources/stdlib/src/stdstring.cpp:163
            return u1 - u2;
    9080:	e55b2005 	ldrb	r2, [fp, #-5]
    9084:	e55b3006 	ldrb	r3, [fp, #-6]
    9088:	e0423003 	sub	r3, r2, r3
    908c:	ea000005 	b	90a8 <_Z7strncmpPKcS0_i+0x9c>
/home/hintik/dev/final/src/sources/stdlib/src/stdstring.cpp:164
        if (u1 == '\0')
    9090:	e55b3005 	ldrb	r3, [fp, #-5]
    9094:	e3530000 	cmp	r3, #0
    9098:	1affffe1 	bne	9024 <_Z7strncmpPKcS0_i+0x18>
/home/hintik/dev/final/src/sources/stdlib/src/stdstring.cpp:165
            return 0;
    909c:	e3a03000 	mov	r3, #0
    90a0:	ea000000 	b	90a8 <_Z7strncmpPKcS0_i+0x9c>
/home/hintik/dev/final/src/sources/stdlib/src/stdstring.cpp:168
    }

    return 0;
    90a4:	e3a03000 	mov	r3, #0
/home/hintik/dev/final/src/sources/stdlib/src/stdstring.cpp:169
}
    90a8:	e1a00003 	mov	r0, r3
    90ac:	e28bd000 	add	sp, fp, #0
    90b0:	e49db004 	pop	{fp}		; (ldr fp, [sp], #4)
    90b4:	e12fff1e 	bx	lr

000090b8 <_Z6strlenPKc>:
_Z6strlenPKc():
/home/hintik/dev/final/src/sources/stdlib/src/stdstring.cpp:171

int strlen(const char *s) {
    90b8:	e52db004 	push	{fp}		; (str fp, [sp, #-4]!)
    90bc:	e28db000 	add	fp, sp, #0
    90c0:	e24dd014 	sub	sp, sp, #20
    90c4:	e50b0010 	str	r0, [fp, #-16]
/home/hintik/dev/final/src/sources/stdlib/src/stdstring.cpp:172
    int i = 0;
    90c8:	e3a03000 	mov	r3, #0
    90cc:	e50b3008 	str	r3, [fp, #-8]
/home/hintik/dev/final/src/sources/stdlib/src/stdstring.cpp:174

    while (s[i] != '\0')
    90d0:	e51b3008 	ldr	r3, [fp, #-8]
    90d4:	e51b2010 	ldr	r2, [fp, #-16]
    90d8:	e0823003 	add	r3, r2, r3
    90dc:	e5d33000 	ldrb	r3, [r3]
    90e0:	e3530000 	cmp	r3, #0
    90e4:	0a000003 	beq	90f8 <_Z6strlenPKc+0x40>
/home/hintik/dev/final/src/sources/stdlib/src/stdstring.cpp:175
        i++;
    90e8:	e51b3008 	ldr	r3, [fp, #-8]
    90ec:	e2833001 	add	r3, r3, #1
    90f0:	e50b3008 	str	r3, [fp, #-8]
/home/hintik/dev/final/src/sources/stdlib/src/stdstring.cpp:174
    while (s[i] != '\0')
    90f4:	eafffff5 	b	90d0 <_Z6strlenPKc+0x18>
/home/hintik/dev/final/src/sources/stdlib/src/stdstring.cpp:177

    return i;
    90f8:	e51b3008 	ldr	r3, [fp, #-8]
/home/hintik/dev/final/src/sources/stdlib/src/stdstring.cpp:178
}
    90fc:	e1a00003 	mov	r0, r3
    9100:	e28bd000 	add	sp, fp, #0
    9104:	e49db004 	pop	{fp}		; (ldr fp, [sp], #4)
    9108:	e12fff1e 	bx	lr

0000910c <_Z9constainsPKcc>:
_Z9constainsPKcc():
/home/hintik/dev/final/src/sources/stdlib/src/stdstring.cpp:180

bool constains(const char *source, const char target) {
    910c:	e52db004 	push	{fp}		; (str fp, [sp, #-4]!)
    9110:	e28db000 	add	fp, sp, #0
    9114:	e24dd014 	sub	sp, sp, #20
    9118:	e50b0010 	str	r0, [fp, #-16]
    911c:	e1a03001 	mov	r3, r1
    9120:	e54b3011 	strb	r3, [fp, #-17]	; 0xffffffef
/home/hintik/dev/final/src/sources/stdlib/src/stdstring.cpp:181
    int i = 0;
    9124:	e3a03000 	mov	r3, #0
    9128:	e50b3008 	str	r3, [fp, #-8]
/home/hintik/dev/final/src/sources/stdlib/src/stdstring.cpp:183

    while (source[i] != '\0') {
    912c:	e51b3008 	ldr	r3, [fp, #-8]
    9130:	e51b2010 	ldr	r2, [fp, #-16]
    9134:	e0823003 	add	r3, r2, r3
    9138:	e5d33000 	ldrb	r3, [r3]
    913c:	e3530000 	cmp	r3, #0
    9140:	0a00000c 	beq	9178 <_Z9constainsPKcc+0x6c>
/home/hintik/dev/final/src/sources/stdlib/src/stdstring.cpp:184
        if (source[i] == target)
    9144:	e51b3008 	ldr	r3, [fp, #-8]
    9148:	e51b2010 	ldr	r2, [fp, #-16]
    914c:	e0823003 	add	r3, r2, r3
    9150:	e5d33000 	ldrb	r3, [r3]
    9154:	e55b2011 	ldrb	r2, [fp, #-17]	; 0xffffffef
    9158:	e1520003 	cmp	r2, r3
    915c:	1a000001 	bne	9168 <_Z9constainsPKcc+0x5c>
/home/hintik/dev/final/src/sources/stdlib/src/stdstring.cpp:185
            return true;
    9160:	e3a03001 	mov	r3, #1
    9164:	ea000004 	b	917c <_Z9constainsPKcc+0x70>
/home/hintik/dev/final/src/sources/stdlib/src/stdstring.cpp:186
        i++;
    9168:	e51b3008 	ldr	r3, [fp, #-8]
    916c:	e2833001 	add	r3, r3, #1
    9170:	e50b3008 	str	r3, [fp, #-8]
/home/hintik/dev/final/src/sources/stdlib/src/stdstring.cpp:183
    while (source[i] != '\0') {
    9174:	eaffffec 	b	912c <_Z9constainsPKcc+0x20>
/home/hintik/dev/final/src/sources/stdlib/src/stdstring.cpp:188
    }
    return false;
    9178:	e3a03000 	mov	r3, #0
/home/hintik/dev/final/src/sources/stdlib/src/stdstring.cpp:189
}
    917c:	e1a00003 	mov	r0, r3
    9180:	e28bd000 	add	sp, fp, #0
    9184:	e49db004 	pop	{fp}		; (ldr fp, [sp], #4)
    9188:	e12fff1e 	bx	lr

0000918c <_Z5bzeroPvi>:
_Z5bzeroPvi():
/home/hintik/dev/final/src/sources/stdlib/src/stdstring.cpp:191

void bzero(void *memory, int length) {
    918c:	e52db004 	push	{fp}		; (str fp, [sp, #-4]!)
    9190:	e28db000 	add	fp, sp, #0
    9194:	e24dd014 	sub	sp, sp, #20
    9198:	e50b0010 	str	r0, [fp, #-16]
    919c:	e50b1014 	str	r1, [fp, #-20]	; 0xffffffec
/home/hintik/dev/final/src/sources/stdlib/src/stdstring.cpp:192
    char *mem = reinterpret_cast<char *>(memory);
    91a0:	e51b3010 	ldr	r3, [fp, #-16]
    91a4:	e50b300c 	str	r3, [fp, #-12]
/home/hintik/dev/final/src/sources/stdlib/src/stdstring.cpp:194

    for (int i = 0; i < length; i++)
    91a8:	e3a03000 	mov	r3, #0
    91ac:	e50b3008 	str	r3, [fp, #-8]
/home/hintik/dev/final/src/sources/stdlib/src/stdstring.cpp:194 (discriminator 3)
    91b0:	e51b2008 	ldr	r2, [fp, #-8]
    91b4:	e51b3014 	ldr	r3, [fp, #-20]	; 0xffffffec
    91b8:	e1520003 	cmp	r2, r3
    91bc:	aa000008 	bge	91e4 <_Z5bzeroPvi+0x58>
/home/hintik/dev/final/src/sources/stdlib/src/stdstring.cpp:195 (discriminator 2)
        mem[i] = 0;
    91c0:	e51b3008 	ldr	r3, [fp, #-8]
    91c4:	e51b200c 	ldr	r2, [fp, #-12]
    91c8:	e0823003 	add	r3, r2, r3
    91cc:	e3a02000 	mov	r2, #0
    91d0:	e5c32000 	strb	r2, [r3]
/home/hintik/dev/final/src/sources/stdlib/src/stdstring.cpp:194 (discriminator 2)
    for (int i = 0; i < length; i++)
    91d4:	e51b3008 	ldr	r3, [fp, #-8]
    91d8:	e2833001 	add	r3, r3, #1
    91dc:	e50b3008 	str	r3, [fp, #-8]
    91e0:	eafffff2 	b	91b0 <_Z5bzeroPvi+0x24>
/home/hintik/dev/final/src/sources/stdlib/src/stdstring.cpp:196
}
    91e4:	e320f000 	nop	{0}
    91e8:	e28bd000 	add	sp, fp, #0
    91ec:	e49db004 	pop	{fp}		; (ldr fp, [sp], #4)
    91f0:	e12fff1e 	bx	lr

000091f4 <_Z6memcpyPKvPvi>:
_Z6memcpyPKvPvi():
/home/hintik/dev/final/src/sources/stdlib/src/stdstring.cpp:198

void memcpy(const void *src, void *dst, int num) {
    91f4:	e52db004 	push	{fp}		; (str fp, [sp, #-4]!)
    91f8:	e28db000 	add	fp, sp, #0
    91fc:	e24dd024 	sub	sp, sp, #36	; 0x24
    9200:	e50b0018 	str	r0, [fp, #-24]	; 0xffffffe8
    9204:	e50b101c 	str	r1, [fp, #-28]	; 0xffffffe4
    9208:	e50b2020 	str	r2, [fp, #-32]	; 0xffffffe0
/home/hintik/dev/final/src/sources/stdlib/src/stdstring.cpp:199
    const char *memsrc = reinterpret_cast<const char *>(src);
    920c:	e51b3018 	ldr	r3, [fp, #-24]	; 0xffffffe8
    9210:	e50b300c 	str	r3, [fp, #-12]
/home/hintik/dev/final/src/sources/stdlib/src/stdstring.cpp:200
    char *memdst = reinterpret_cast<char *>(dst);
    9214:	e51b301c 	ldr	r3, [fp, #-28]	; 0xffffffe4
    9218:	e50b3010 	str	r3, [fp, #-16]
/home/hintik/dev/final/src/sources/stdlib/src/stdstring.cpp:202

    for (int i = 0; i < num; i++)
    921c:	e3a03000 	mov	r3, #0
    9220:	e50b3008 	str	r3, [fp, #-8]
/home/hintik/dev/final/src/sources/stdlib/src/stdstring.cpp:202 (discriminator 3)
    9224:	e51b2008 	ldr	r2, [fp, #-8]
    9228:	e51b3020 	ldr	r3, [fp, #-32]	; 0xffffffe0
    922c:	e1520003 	cmp	r2, r3
    9230:	aa00000b 	bge	9264 <_Z6memcpyPKvPvi+0x70>
/home/hintik/dev/final/src/sources/stdlib/src/stdstring.cpp:203 (discriminator 2)
        memdst[i] = memsrc[i];
    9234:	e51b3008 	ldr	r3, [fp, #-8]
    9238:	e51b200c 	ldr	r2, [fp, #-12]
    923c:	e0822003 	add	r2, r2, r3
    9240:	e51b3008 	ldr	r3, [fp, #-8]
    9244:	e51b1010 	ldr	r1, [fp, #-16]
    9248:	e0813003 	add	r3, r1, r3
    924c:	e5d22000 	ldrb	r2, [r2]
    9250:	e5c32000 	strb	r2, [r3]
/home/hintik/dev/final/src/sources/stdlib/src/stdstring.cpp:202 (discriminator 2)
    for (int i = 0; i < num; i++)
    9254:	e51b3008 	ldr	r3, [fp, #-8]
    9258:	e2833001 	add	r3, r3, #1
    925c:	e50b3008 	str	r3, [fp, #-8]
    9260:	eaffffef 	b	9224 <_Z6memcpyPKvPvi+0x30>
/home/hintik/dev/final/src/sources/stdlib/src/stdstring.cpp:204
}
    9264:	e320f000 	nop	{0}
    9268:	e28bd000 	add	sp, fp, #0
    926c:	e49db004 	pop	{fp}		; (ldr fp, [sp], #4)
    9270:	e12fff1e 	bx	lr

00009274 <_Z8is_digitc>:
_Z8is_digitc():
/home/hintik/dev/final/src/sources/stdlib/src/stdstring.cpp:206

bool is_digit(char c) {
    9274:	e52db004 	push	{fp}		; (str fp, [sp, #-4]!)
    9278:	e28db000 	add	fp, sp, #0
    927c:	e24dd00c 	sub	sp, sp, #12
    9280:	e1a03000 	mov	r3, r0
    9284:	e54b3005 	strb	r3, [fp, #-5]
/home/hintik/dev/final/src/sources/stdlib/src/stdstring.cpp:207
    return (c >= '0') && (c <= '9');
    9288:	e55b3005 	ldrb	r3, [fp, #-5]
    928c:	e353002f 	cmp	r3, #47	; 0x2f
    9290:	9a000004 	bls	92a8 <_Z8is_digitc+0x34>
/home/hintik/dev/final/src/sources/stdlib/src/stdstring.cpp:207 (discriminator 1)
    9294:	e55b3005 	ldrb	r3, [fp, #-5]
    9298:	e3530039 	cmp	r3, #57	; 0x39
    929c:	8a000001 	bhi	92a8 <_Z8is_digitc+0x34>
/home/hintik/dev/final/src/sources/stdlib/src/stdstring.cpp:207 (discriminator 3)
    92a0:	e3a03001 	mov	r3, #1
    92a4:	ea000000 	b	92ac <_Z8is_digitc+0x38>
/home/hintik/dev/final/src/sources/stdlib/src/stdstring.cpp:207 (discriminator 4)
    92a8:	e3a03000 	mov	r3, #0
/home/hintik/dev/final/src/sources/stdlib/src/stdstring.cpp:208 (discriminator 6)
}
    92ac:	e1a00003 	mov	r0, r3
    92b0:	e28bd000 	add	sp, fp, #0
    92b4:	e49db004 	pop	{fp}		; (ldr fp, [sp], #4)
    92b8:	e12fff1e 	bx	lr

000092bc <_Z10is_decimalPKc>:
_Z10is_decimalPKc():
/home/hintik/dev/final/src/sources/stdlib/src/stdstring.cpp:210

bool is_decimal(const char *str) {
    92bc:	e92d4800 	push	{fp, lr}
    92c0:	e28db004 	add	fp, sp, #4
    92c4:	e24dd018 	sub	sp, sp, #24
    92c8:	e50b0018 	str	r0, [fp, #-24]	; 0xffffffe8
/home/hintik/dev/final/src/sources/stdlib/src/stdstring.cpp:211
    char c = str[0];
    92cc:	e51b3018 	ldr	r3, [fp, #-24]	; 0xffffffe8
    92d0:	e5d33000 	ldrb	r3, [r3]
    92d4:	e54b300d 	strb	r3, [fp, #-13]
/home/hintik/dev/final/src/sources/stdlib/src/stdstring.cpp:212
    if (c == '\0') return false;
    92d8:	e55b300d 	ldrb	r3, [fp, #-13]
    92dc:	e3530000 	cmp	r3, #0
    92e0:	1a000001 	bne	92ec <_Z10is_decimalPKc+0x30>
/home/hintik/dev/final/src/sources/stdlib/src/stdstring.cpp:212 (discriminator 1)
    92e4:	e3a03000 	mov	r3, #0
    92e8:	ea000036 	b	93c8 <_Z10is_decimalPKc+0x10c>
/home/hintik/dev/final/src/sources/stdlib/src/stdstring.cpp:214

    int size = 0;
    92ec:	e3a03000 	mov	r3, #0
    92f0:	e50b3008 	str	r3, [fp, #-8]
/home/hintik/dev/final/src/sources/stdlib/src/stdstring.cpp:216

    if (!is_digit(c)) {
    92f4:	e55b300d 	ldrb	r3, [fp, #-13]
    92f8:	e1a00003 	mov	r0, r3
    92fc:	ebffffdc 	bl	9274 <_Z8is_digitc>
    9300:	e1a03000 	mov	r3, r0
    9304:	e2233001 	eor	r3, r3, #1
    9308:	e6ef3073 	uxtb	r3, r3
    930c:	e3530000 	cmp	r3, #0
    9310:	0a000007 	beq	9334 <_Z10is_decimalPKc+0x78>
/home/hintik/dev/final/src/sources/stdlib/src/stdstring.cpp:217
        if (c != '+' && c != '-') {
    9314:	e55b300d 	ldrb	r3, [fp, #-13]
    9318:	e353002b 	cmp	r3, #43	; 0x2b
    931c:	0a000007 	beq	9340 <_Z10is_decimalPKc+0x84>
/home/hintik/dev/final/src/sources/stdlib/src/stdstring.cpp:217 (discriminator 1)
    9320:	e55b300d 	ldrb	r3, [fp, #-13]
    9324:	e353002d 	cmp	r3, #45	; 0x2d
    9328:	0a000004 	beq	9340 <_Z10is_decimalPKc+0x84>
/home/hintik/dev/final/src/sources/stdlib/src/stdstring.cpp:218
            return false;
    932c:	e3a03000 	mov	r3, #0
    9330:	ea000024 	b	93c8 <_Z10is_decimalPKc+0x10c>
/home/hintik/dev/final/src/sources/stdlib/src/stdstring.cpp:221
        }
    } else {
        size++;
    9334:	e51b3008 	ldr	r3, [fp, #-8]
    9338:	e2833001 	add	r3, r3, #1
    933c:	e50b3008 	str	r3, [fp, #-8]
/home/hintik/dev/final/src/sources/stdlib/src/stdstring.cpp:224
    }

    int i = 1;
    9340:	e3a03001 	mov	r3, #1
    9344:	e50b300c 	str	r3, [fp, #-12]
/home/hintik/dev/final/src/sources/stdlib/src/stdstring.cpp:225
    while (str[i] != '\0') {
    9348:	e51b300c 	ldr	r3, [fp, #-12]
    934c:	e51b2018 	ldr	r2, [fp, #-24]	; 0xffffffe8
    9350:	e0823003 	add	r3, r2, r3
    9354:	e5d33000 	ldrb	r3, [r3]
    9358:	e3530000 	cmp	r3, #0
    935c:	0a000013 	beq	93b0 <_Z10is_decimalPKc+0xf4>
/home/hintik/dev/final/src/sources/stdlib/src/stdstring.cpp:226
        if (!is_digit(str[i])) {
    9360:	e51b300c 	ldr	r3, [fp, #-12]
    9364:	e51b2018 	ldr	r2, [fp, #-24]	; 0xffffffe8
    9368:	e0823003 	add	r3, r2, r3
    936c:	e5d33000 	ldrb	r3, [r3]
    9370:	e1a00003 	mov	r0, r3
    9374:	ebffffbe 	bl	9274 <_Z8is_digitc>
    9378:	e1a03000 	mov	r3, r0
    937c:	e2233001 	eor	r3, r3, #1
    9380:	e6ef3073 	uxtb	r3, r3
    9384:	e3530000 	cmp	r3, #0
    9388:	0a000001 	beq	9394 <_Z10is_decimalPKc+0xd8>
/home/hintik/dev/final/src/sources/stdlib/src/stdstring.cpp:227
            return false;
    938c:	e3a03000 	mov	r3, #0
    9390:	ea00000c 	b	93c8 <_Z10is_decimalPKc+0x10c>
/home/hintik/dev/final/src/sources/stdlib/src/stdstring.cpp:229
        }
        size++;
    9394:	e51b3008 	ldr	r3, [fp, #-8]
    9398:	e2833001 	add	r3, r3, #1
    939c:	e50b3008 	str	r3, [fp, #-8]
/home/hintik/dev/final/src/sources/stdlib/src/stdstring.cpp:230
        i++;
    93a0:	e51b300c 	ldr	r3, [fp, #-12]
    93a4:	e2833001 	add	r3, r3, #1
    93a8:	e50b300c 	str	r3, [fp, #-12]
/home/hintik/dev/final/src/sources/stdlib/src/stdstring.cpp:225
    while (str[i] != '\0') {
    93ac:	eaffffe5 	b	9348 <_Z10is_decimalPKc+0x8c>
/home/hintik/dev/final/src/sources/stdlib/src/stdstring.cpp:233
    }

    if (size == 0) {
    93b0:	e51b3008 	ldr	r3, [fp, #-8]
    93b4:	e3530000 	cmp	r3, #0
    93b8:	1a000001 	bne	93c4 <_Z10is_decimalPKc+0x108>
/home/hintik/dev/final/src/sources/stdlib/src/stdstring.cpp:234
        return false;
    93bc:	e3a03000 	mov	r3, #0
    93c0:	ea000000 	b	93c8 <_Z10is_decimalPKc+0x10c>
/home/hintik/dev/final/src/sources/stdlib/src/stdstring.cpp:237
    }

    return true;
    93c4:	e3a03001 	mov	r3, #1
/home/hintik/dev/final/src/sources/stdlib/src/stdstring.cpp:238
}
    93c8:	e1a00003 	mov	r0, r3
    93cc:	e24bd004 	sub	sp, fp, #4
    93d0:	e8bd8800 	pop	{fp, pc}

000093d4 <_Z8is_floatPKc>:
_Z8is_floatPKc():
/home/hintik/dev/final/src/sources/stdlib/src/stdstring.cpp:240

bool is_float(const char *str) {
    93d4:	e92d4800 	push	{fp, lr}
    93d8:	e28db004 	add	fp, sp, #4
    93dc:	e24dd020 	sub	sp, sp, #32
    93e0:	e50b0020 	str	r0, [fp, #-32]	; 0xffffffe0
/home/hintik/dev/final/src/sources/stdlib/src/stdstring.cpp:241
    char c = str[0];
    93e4:	e51b3020 	ldr	r3, [fp, #-32]	; 0xffffffe0
    93e8:	e5d33000 	ldrb	r3, [r3]
    93ec:	e54b3015 	strb	r3, [fp, #-21]	; 0xffffffeb
/home/hintik/dev/final/src/sources/stdlib/src/stdstring.cpp:242
    bool point = false;
    93f0:	e3a03000 	mov	r3, #0
    93f4:	e54b3005 	strb	r3, [fp, #-5]
/home/hintik/dev/final/src/sources/stdlib/src/stdstring.cpp:243
    int after_point = 0;
    93f8:	e3a03000 	mov	r3, #0
    93fc:	e50b300c 	str	r3, [fp, #-12]
/home/hintik/dev/final/src/sources/stdlib/src/stdstring.cpp:244
    int before_point = 0;
    9400:	e3a03000 	mov	r3, #0
    9404:	e50b3010 	str	r3, [fp, #-16]
/home/hintik/dev/final/src/sources/stdlib/src/stdstring.cpp:246

    if (c == '\0') return false;
    9408:	e55b3015 	ldrb	r3, [fp, #-21]	; 0xffffffeb
    940c:	e3530000 	cmp	r3, #0
    9410:	1a000001 	bne	941c <_Z8is_floatPKc+0x48>
/home/hintik/dev/final/src/sources/stdlib/src/stdstring.cpp:246 (discriminator 1)
    9414:	e3a03000 	mov	r3, #0
    9418:	ea00005c 	b	9590 <_Z8is_floatPKc+0x1bc>
/home/hintik/dev/final/src/sources/stdlib/src/stdstring.cpp:248

    if (c != '+' && c != '-' && !is_digit(c)) return false;
    941c:	e55b3015 	ldrb	r3, [fp, #-21]	; 0xffffffeb
    9420:	e353002b 	cmp	r3, #43	; 0x2b
    9424:	0a00000c 	beq	945c <_Z8is_floatPKc+0x88>
/home/hintik/dev/final/src/sources/stdlib/src/stdstring.cpp:248 (discriminator 1)
    9428:	e55b3015 	ldrb	r3, [fp, #-21]	; 0xffffffeb
    942c:	e353002d 	cmp	r3, #45	; 0x2d
    9430:	0a000009 	beq	945c <_Z8is_floatPKc+0x88>
/home/hintik/dev/final/src/sources/stdlib/src/stdstring.cpp:248 (discriminator 3)
    9434:	e55b3015 	ldrb	r3, [fp, #-21]	; 0xffffffeb
    9438:	e1a00003 	mov	r0, r3
    943c:	ebffff8c 	bl	9274 <_Z8is_digitc>
    9440:	e1a03000 	mov	r3, r0
    9444:	e2233001 	eor	r3, r3, #1
    9448:	e6ef3073 	uxtb	r3, r3
    944c:	e3530000 	cmp	r3, #0
    9450:	0a000001 	beq	945c <_Z8is_floatPKc+0x88>
/home/hintik/dev/final/src/sources/stdlib/src/stdstring.cpp:248 (discriminator 5)
    9454:	e3a03001 	mov	r3, #1
    9458:	ea000000 	b	9460 <_Z8is_floatPKc+0x8c>
/home/hintik/dev/final/src/sources/stdlib/src/stdstring.cpp:248 (discriminator 6)
    945c:	e3a03000 	mov	r3, #0
/home/hintik/dev/final/src/sources/stdlib/src/stdstring.cpp:248 (discriminator 8)
    9460:	e3530000 	cmp	r3, #0
    9464:	0a000001 	beq	9470 <_Z8is_floatPKc+0x9c>
/home/hintik/dev/final/src/sources/stdlib/src/stdstring.cpp:248 (discriminator 9)
    9468:	e3a03000 	mov	r3, #0
    946c:	ea000047 	b	9590 <_Z8is_floatPKc+0x1bc>
/home/hintik/dev/final/src/sources/stdlib/src/stdstring.cpp:250

    if (is_digit(c)) {
    9470:	e55b3015 	ldrb	r3, [fp, #-21]	; 0xffffffeb
    9474:	e1a00003 	mov	r0, r3
    9478:	ebffff7d 	bl	9274 <_Z8is_digitc>
    947c:	e1a03000 	mov	r3, r0
    9480:	e3530000 	cmp	r3, #0
    9484:	0a000002 	beq	9494 <_Z8is_floatPKc+0xc0>
/home/hintik/dev/final/src/sources/stdlib/src/stdstring.cpp:251
        before_point++;
    9488:	e51b3010 	ldr	r3, [fp, #-16]
    948c:	e2833001 	add	r3, r3, #1
    9490:	e50b3010 	str	r3, [fp, #-16]
/home/hintik/dev/final/src/sources/stdlib/src/stdstring.cpp:254
    }

    int i = 1;
    9494:	e3a03001 	mov	r3, #1
    9498:	e50b3014 	str	r3, [fp, #-20]	; 0xffffffec
/home/hintik/dev/final/src/sources/stdlib/src/stdstring.cpp:255
    while (str[i] != '\0') {
    949c:	e51b3014 	ldr	r3, [fp, #-20]	; 0xffffffec
    94a0:	e51b2020 	ldr	r2, [fp, #-32]	; 0xffffffe0
    94a4:	e0823003 	add	r3, r2, r3
    94a8:	e5d33000 	ldrb	r3, [r3]
    94ac:	e3530000 	cmp	r3, #0
    94b0:	0a000028 	beq	9558 <_Z8is_floatPKc+0x184>
/home/hintik/dev/final/src/sources/stdlib/src/stdstring.cpp:256
        if (!is_digit(str[i])) {
    94b4:	e51b3014 	ldr	r3, [fp, #-20]	; 0xffffffec
    94b8:	e51b2020 	ldr	r2, [fp, #-32]	; 0xffffffe0
    94bc:	e0823003 	add	r3, r2, r3
    94c0:	e5d33000 	ldrb	r3, [r3]
    94c4:	e1a00003 	mov	r0, r3
    94c8:	ebffff69 	bl	9274 <_Z8is_digitc>
    94cc:	e1a03000 	mov	r3, r0
    94d0:	e2233001 	eor	r3, r3, #1
    94d4:	e6ef3073 	uxtb	r3, r3
    94d8:	e3530000 	cmp	r3, #0
    94dc:	0a00000f 	beq	9520 <_Z8is_floatPKc+0x14c>
/home/hintik/dev/final/src/sources/stdlib/src/stdstring.cpp:257
            if (str[i] == '.' && point == false) {
    94e0:	e51b3014 	ldr	r3, [fp, #-20]	; 0xffffffec
    94e4:	e51b2020 	ldr	r2, [fp, #-32]	; 0xffffffe0
    94e8:	e0823003 	add	r3, r2, r3
    94ec:	e5d33000 	ldrb	r3, [r3]
    94f0:	e353002e 	cmp	r3, #46	; 0x2e
    94f4:	1a000007 	bne	9518 <_Z8is_floatPKc+0x144>
/home/hintik/dev/final/src/sources/stdlib/src/stdstring.cpp:257 (discriminator 1)
    94f8:	e55b3005 	ldrb	r3, [fp, #-5]
    94fc:	e2233001 	eor	r3, r3, #1
    9500:	e6ef3073 	uxtb	r3, r3
    9504:	e3530000 	cmp	r3, #0
    9508:	0a000002 	beq	9518 <_Z8is_floatPKc+0x144>
/home/hintik/dev/final/src/sources/stdlib/src/stdstring.cpp:258
                point = true;
    950c:	e3a03001 	mov	r3, #1
    9510:	e54b3005 	strb	r3, [fp, #-5]
    9514:	ea00000b 	b	9548 <_Z8is_floatPKc+0x174>
/home/hintik/dev/final/src/sources/stdlib/src/stdstring.cpp:260
            } else {
                return false;
    9518:	e3a03000 	mov	r3, #0
    951c:	ea00001b 	b	9590 <_Z8is_floatPKc+0x1bc>
/home/hintik/dev/final/src/sources/stdlib/src/stdstring.cpp:263
            }
        } else {
            if (point == true) {
    9520:	e55b3005 	ldrb	r3, [fp, #-5]
    9524:	e3530000 	cmp	r3, #0
    9528:	0a000003 	beq	953c <_Z8is_floatPKc+0x168>
/home/hintik/dev/final/src/sources/stdlib/src/stdstring.cpp:264
                after_point++;
    952c:	e51b300c 	ldr	r3, [fp, #-12]
    9530:	e2833001 	add	r3, r3, #1
    9534:	e50b300c 	str	r3, [fp, #-12]
    9538:	ea000002 	b	9548 <_Z8is_floatPKc+0x174>
/home/hintik/dev/final/src/sources/stdlib/src/stdstring.cpp:266
            } else {
                before_point++;
    953c:	e51b3010 	ldr	r3, [fp, #-16]
    9540:	e2833001 	add	r3, r3, #1
    9544:	e50b3010 	str	r3, [fp, #-16]
/home/hintik/dev/final/src/sources/stdlib/src/stdstring.cpp:269
            }
        }
        i++;
    9548:	e51b3014 	ldr	r3, [fp, #-20]	; 0xffffffec
    954c:	e2833001 	add	r3, r3, #1
    9550:	e50b3014 	str	r3, [fp, #-20]	; 0xffffffec
/home/hintik/dev/final/src/sources/stdlib/src/stdstring.cpp:255
    while (str[i] != '\0') {
    9554:	eaffffd0 	b	949c <_Z8is_floatPKc+0xc8>
/home/hintik/dev/final/src/sources/stdlib/src/stdstring.cpp:272
    }

    if (before_point < 0) {
    9558:	e51b3010 	ldr	r3, [fp, #-16]
    955c:	e3530000 	cmp	r3, #0
    9560:	aa000001 	bge	956c <_Z8is_floatPKc+0x198>
/home/hintik/dev/final/src/sources/stdlib/src/stdstring.cpp:273
        return false;
    9564:	e3a03000 	mov	r3, #0
    9568:	ea000008 	b	9590 <_Z8is_floatPKc+0x1bc>
/home/hintik/dev/final/src/sources/stdlib/src/stdstring.cpp:276
    }

    if (point == true && after_point == 0) {
    956c:	e55b3005 	ldrb	r3, [fp, #-5]
    9570:	e3530000 	cmp	r3, #0
    9574:	0a000004 	beq	958c <_Z8is_floatPKc+0x1b8>
/home/hintik/dev/final/src/sources/stdlib/src/stdstring.cpp:276 (discriminator 1)
    9578:	e51b300c 	ldr	r3, [fp, #-12]
    957c:	e3530000 	cmp	r3, #0
    9580:	1a000001 	bne	958c <_Z8is_floatPKc+0x1b8>
/home/hintik/dev/final/src/sources/stdlib/src/stdstring.cpp:277
        return false;
    9584:	e3a03000 	mov	r3, #0
    9588:	ea000000 	b	9590 <_Z8is_floatPKc+0x1bc>
/home/hintik/dev/final/src/sources/stdlib/src/stdstring.cpp:280
    }

    return true;
    958c:	e3a03001 	mov	r3, #1
/home/hintik/dev/final/src/sources/stdlib/src/stdstring.cpp:281
    9590:	e1a00003 	mov	r0, r3
    9594:	e24bd004 	sub	sp, fp, #4
    9598:	e8bd8800 	pop	{fp, pc}

0000959c <__udivsi3>:
__udivsi3():
/build/gcc-arm-none-eabi-zSbVfn/gcc-arm-none-eabi-8-2019-q3/build/arm-none-eabi/arm/v5te/hard/libgcc/../../../../../../libgcc/config/arm/lib1funcs.S:1150
    959c:	e2512001 	subs	r2, r1, #1
/build/gcc-arm-none-eabi-zSbVfn/gcc-arm-none-eabi-8-2019-q3/build/arm-none-eabi/arm/v5te/hard/libgcc/../../../../../../libgcc/config/arm/lib1funcs.S:1152
    95a0:	012fff1e 	bxeq	lr
/build/gcc-arm-none-eabi-zSbVfn/gcc-arm-none-eabi-8-2019-q3/build/arm-none-eabi/arm/v5te/hard/libgcc/../../../../../../libgcc/config/arm/lib1funcs.S:1153
    95a4:	3a000074 	bcc	977c <__udivsi3+0x1e0>
/build/gcc-arm-none-eabi-zSbVfn/gcc-arm-none-eabi-8-2019-q3/build/arm-none-eabi/arm/v5te/hard/libgcc/../../../../../../libgcc/config/arm/lib1funcs.S:1154
    95a8:	e1500001 	cmp	r0, r1
/build/gcc-arm-none-eabi-zSbVfn/gcc-arm-none-eabi-8-2019-q3/build/arm-none-eabi/arm/v5te/hard/libgcc/../../../../../../libgcc/config/arm/lib1funcs.S:1155
    95ac:	9a00006b 	bls	9760 <__udivsi3+0x1c4>
/build/gcc-arm-none-eabi-zSbVfn/gcc-arm-none-eabi-8-2019-q3/build/arm-none-eabi/arm/v5te/hard/libgcc/../../../../../../libgcc/config/arm/lib1funcs.S:1156
    95b0:	e1110002 	tst	r1, r2
/build/gcc-arm-none-eabi-zSbVfn/gcc-arm-none-eabi-8-2019-q3/build/arm-none-eabi/arm/v5te/hard/libgcc/../../../../../../libgcc/config/arm/lib1funcs.S:1157
    95b4:	0a00006c 	beq	976c <__udivsi3+0x1d0>
/build/gcc-arm-none-eabi-zSbVfn/gcc-arm-none-eabi-8-2019-q3/build/arm-none-eabi/arm/v5te/hard/libgcc/../../../../../../libgcc/config/arm/lib1funcs.S:1159
    95b8:	e16f3f10 	clz	r3, r0
    95bc:	e16f2f11 	clz	r2, r1
    95c0:	e0423003 	sub	r3, r2, r3
    95c4:	e273301f 	rsbs	r3, r3, #31
    95c8:	10833083 	addne	r3, r3, r3, lsl #1
    95cc:	e3a02000 	mov	r2, #0
    95d0:	108ff103 	addne	pc, pc, r3, lsl #2
    95d4:	e1a00000 	nop			; (mov r0, r0)
    95d8:	e1500f81 	cmp	r0, r1, lsl #31
    95dc:	e0a22002 	adc	r2, r2, r2
    95e0:	20400f81 	subcs	r0, r0, r1, lsl #31
    95e4:	e1500f01 	cmp	r0, r1, lsl #30
    95e8:	e0a22002 	adc	r2, r2, r2
    95ec:	20400f01 	subcs	r0, r0, r1, lsl #30
    95f0:	e1500e81 	cmp	r0, r1, lsl #29
    95f4:	e0a22002 	adc	r2, r2, r2
    95f8:	20400e81 	subcs	r0, r0, r1, lsl #29
    95fc:	e1500e01 	cmp	r0, r1, lsl #28
    9600:	e0a22002 	adc	r2, r2, r2
    9604:	20400e01 	subcs	r0, r0, r1, lsl #28
    9608:	e1500d81 	cmp	r0, r1, lsl #27
    960c:	e0a22002 	adc	r2, r2, r2
    9610:	20400d81 	subcs	r0, r0, r1, lsl #27
    9614:	e1500d01 	cmp	r0, r1, lsl #26
    9618:	e0a22002 	adc	r2, r2, r2
    961c:	20400d01 	subcs	r0, r0, r1, lsl #26
    9620:	e1500c81 	cmp	r0, r1, lsl #25
    9624:	e0a22002 	adc	r2, r2, r2
    9628:	20400c81 	subcs	r0, r0, r1, lsl #25
    962c:	e1500c01 	cmp	r0, r1, lsl #24
    9630:	e0a22002 	adc	r2, r2, r2
    9634:	20400c01 	subcs	r0, r0, r1, lsl #24
    9638:	e1500b81 	cmp	r0, r1, lsl #23
    963c:	e0a22002 	adc	r2, r2, r2
    9640:	20400b81 	subcs	r0, r0, r1, lsl #23
    9644:	e1500b01 	cmp	r0, r1, lsl #22
    9648:	e0a22002 	adc	r2, r2, r2
    964c:	20400b01 	subcs	r0, r0, r1, lsl #22
    9650:	e1500a81 	cmp	r0, r1, lsl #21
    9654:	e0a22002 	adc	r2, r2, r2
    9658:	20400a81 	subcs	r0, r0, r1, lsl #21
    965c:	e1500a01 	cmp	r0, r1, lsl #20
    9660:	e0a22002 	adc	r2, r2, r2
    9664:	20400a01 	subcs	r0, r0, r1, lsl #20
    9668:	e1500981 	cmp	r0, r1, lsl #19
    966c:	e0a22002 	adc	r2, r2, r2
    9670:	20400981 	subcs	r0, r0, r1, lsl #19
    9674:	e1500901 	cmp	r0, r1, lsl #18
    9678:	e0a22002 	adc	r2, r2, r2
    967c:	20400901 	subcs	r0, r0, r1, lsl #18
    9680:	e1500881 	cmp	r0, r1, lsl #17
    9684:	e0a22002 	adc	r2, r2, r2
    9688:	20400881 	subcs	r0, r0, r1, lsl #17
    968c:	e1500801 	cmp	r0, r1, lsl #16
    9690:	e0a22002 	adc	r2, r2, r2
    9694:	20400801 	subcs	r0, r0, r1, lsl #16
    9698:	e1500781 	cmp	r0, r1, lsl #15
    969c:	e0a22002 	adc	r2, r2, r2
    96a0:	20400781 	subcs	r0, r0, r1, lsl #15
    96a4:	e1500701 	cmp	r0, r1, lsl #14
    96a8:	e0a22002 	adc	r2, r2, r2
    96ac:	20400701 	subcs	r0, r0, r1, lsl #14
    96b0:	e1500681 	cmp	r0, r1, lsl #13
    96b4:	e0a22002 	adc	r2, r2, r2
    96b8:	20400681 	subcs	r0, r0, r1, lsl #13
    96bc:	e1500601 	cmp	r0, r1, lsl #12
    96c0:	e0a22002 	adc	r2, r2, r2
    96c4:	20400601 	subcs	r0, r0, r1, lsl #12
    96c8:	e1500581 	cmp	r0, r1, lsl #11
    96cc:	e0a22002 	adc	r2, r2, r2
    96d0:	20400581 	subcs	r0, r0, r1, lsl #11
    96d4:	e1500501 	cmp	r0, r1, lsl #10
    96d8:	e0a22002 	adc	r2, r2, r2
    96dc:	20400501 	subcs	r0, r0, r1, lsl #10
    96e0:	e1500481 	cmp	r0, r1, lsl #9
    96e4:	e0a22002 	adc	r2, r2, r2
    96e8:	20400481 	subcs	r0, r0, r1, lsl #9
    96ec:	e1500401 	cmp	r0, r1, lsl #8
    96f0:	e0a22002 	adc	r2, r2, r2
    96f4:	20400401 	subcs	r0, r0, r1, lsl #8
    96f8:	e1500381 	cmp	r0, r1, lsl #7
    96fc:	e0a22002 	adc	r2, r2, r2
    9700:	20400381 	subcs	r0, r0, r1, lsl #7
    9704:	e1500301 	cmp	r0, r1, lsl #6
    9708:	e0a22002 	adc	r2, r2, r2
    970c:	20400301 	subcs	r0, r0, r1, lsl #6
    9710:	e1500281 	cmp	r0, r1, lsl #5
    9714:	e0a22002 	adc	r2, r2, r2
    9718:	20400281 	subcs	r0, r0, r1, lsl #5
    971c:	e1500201 	cmp	r0, r1, lsl #4
    9720:	e0a22002 	adc	r2, r2, r2
    9724:	20400201 	subcs	r0, r0, r1, lsl #4
    9728:	e1500181 	cmp	r0, r1, lsl #3
    972c:	e0a22002 	adc	r2, r2, r2
    9730:	20400181 	subcs	r0, r0, r1, lsl #3
    9734:	e1500101 	cmp	r0, r1, lsl #2
    9738:	e0a22002 	adc	r2, r2, r2
    973c:	20400101 	subcs	r0, r0, r1, lsl #2
    9740:	e1500081 	cmp	r0, r1, lsl #1
    9744:	e0a22002 	adc	r2, r2, r2
    9748:	20400081 	subcs	r0, r0, r1, lsl #1
    974c:	e1500001 	cmp	r0, r1
    9750:	e0a22002 	adc	r2, r2, r2
    9754:	20400001 	subcs	r0, r0, r1
/build/gcc-arm-none-eabi-zSbVfn/gcc-arm-none-eabi-8-2019-q3/build/arm-none-eabi/arm/v5te/hard/libgcc/../../../../../../libgcc/config/arm/lib1funcs.S:1161
    9758:	e1a00002 	mov	r0, r2
/build/gcc-arm-none-eabi-zSbVfn/gcc-arm-none-eabi-8-2019-q3/build/arm-none-eabi/arm/v5te/hard/libgcc/../../../../../../libgcc/config/arm/lib1funcs.S:1162
    975c:	e12fff1e 	bx	lr
/build/gcc-arm-none-eabi-zSbVfn/gcc-arm-none-eabi-8-2019-q3/build/arm-none-eabi/arm/v5te/hard/libgcc/../../../../../../libgcc/config/arm/lib1funcs.S:1165
    9760:	03a00001 	moveq	r0, #1
/build/gcc-arm-none-eabi-zSbVfn/gcc-arm-none-eabi-8-2019-q3/build/arm-none-eabi/arm/v5te/hard/libgcc/../../../../../../libgcc/config/arm/lib1funcs.S:1166
    9764:	13a00000 	movne	r0, #0
/build/gcc-arm-none-eabi-zSbVfn/gcc-arm-none-eabi-8-2019-q3/build/arm-none-eabi/arm/v5te/hard/libgcc/../../../../../../libgcc/config/arm/lib1funcs.S:1167
    9768:	e12fff1e 	bx	lr
/build/gcc-arm-none-eabi-zSbVfn/gcc-arm-none-eabi-8-2019-q3/build/arm-none-eabi/arm/v5te/hard/libgcc/../../../../../../libgcc/config/arm/lib1funcs.S:1169
    976c:	e16f2f11 	clz	r2, r1
    9770:	e262201f 	rsb	r2, r2, #31
/build/gcc-arm-none-eabi-zSbVfn/gcc-arm-none-eabi-8-2019-q3/build/arm-none-eabi/arm/v5te/hard/libgcc/../../../../../../libgcc/config/arm/lib1funcs.S:1171
    9774:	e1a00230 	lsr	r0, r0, r2
/build/gcc-arm-none-eabi-zSbVfn/gcc-arm-none-eabi-8-2019-q3/build/arm-none-eabi/arm/v5te/hard/libgcc/../../../../../../libgcc/config/arm/lib1funcs.S:1172
    9778:	e12fff1e 	bx	lr
/build/gcc-arm-none-eabi-zSbVfn/gcc-arm-none-eabi-8-2019-q3/build/arm-none-eabi/arm/v5te/hard/libgcc/../../../../../../libgcc/config/arm/lib1funcs.S:1176
    977c:	e3500000 	cmp	r0, #0
    9780:	13e00000 	mvnne	r0, #0
    9784:	ea000007 	b	97a8 <__aeabi_idiv0>

00009788 <__aeabi_uidivmod>:
__aeabi_uidivmod():
/build/gcc-arm-none-eabi-zSbVfn/gcc-arm-none-eabi-8-2019-q3/build/arm-none-eabi/arm/v5te/hard/libgcc/../../../../../../libgcc/config/arm/lib1funcs.S:1207
    9788:	e3510000 	cmp	r1, #0
/build/gcc-arm-none-eabi-zSbVfn/gcc-arm-none-eabi-8-2019-q3/build/arm-none-eabi/arm/v5te/hard/libgcc/../../../../../../libgcc/config/arm/lib1funcs.S:1208
    978c:	0afffffa 	beq	977c <__udivsi3+0x1e0>
/build/gcc-arm-none-eabi-zSbVfn/gcc-arm-none-eabi-8-2019-q3/build/arm-none-eabi/arm/v5te/hard/libgcc/../../../../../../libgcc/config/arm/lib1funcs.S:1209
    9790:	e92d4003 	push	{r0, r1, lr}
/build/gcc-arm-none-eabi-zSbVfn/gcc-arm-none-eabi-8-2019-q3/build/arm-none-eabi/arm/v5te/hard/libgcc/../../../../../../libgcc/config/arm/lib1funcs.S:1210
    9794:	ebffff80 	bl	959c <__udivsi3>
/build/gcc-arm-none-eabi-zSbVfn/gcc-arm-none-eabi-8-2019-q3/build/arm-none-eabi/arm/v5te/hard/libgcc/../../../../../../libgcc/config/arm/lib1funcs.S:1211
    9798:	e8bd4006 	pop	{r1, r2, lr}
/build/gcc-arm-none-eabi-zSbVfn/gcc-arm-none-eabi-8-2019-q3/build/arm-none-eabi/arm/v5te/hard/libgcc/../../../../../../libgcc/config/arm/lib1funcs.S:1212
    979c:	e0030092 	mul	r3, r2, r0
/build/gcc-arm-none-eabi-zSbVfn/gcc-arm-none-eabi-8-2019-q3/build/arm-none-eabi/arm/v5te/hard/libgcc/../../../../../../libgcc/config/arm/lib1funcs.S:1213
    97a0:	e0411003 	sub	r1, r1, r3
/build/gcc-arm-none-eabi-zSbVfn/gcc-arm-none-eabi-8-2019-q3/build/arm-none-eabi/arm/v5te/hard/libgcc/../../../../../../libgcc/config/arm/lib1funcs.S:1214
    97a4:	e12fff1e 	bx	lr

000097a8 <__aeabi_idiv0>:
__aeabi_ldiv0():
/build/gcc-arm-none-eabi-zSbVfn/gcc-arm-none-eabi-8-2019-q3/build/arm-none-eabi/arm/v5te/hard/libgcc/../../../../../../libgcc/config/arm/lib1funcs.S:1512
    97a8:	e12fff1e 	bx	lr

000097ac <__aeabi_frsub>:
__aeabi_frsub():
/build/gcc-arm-none-eabi-zSbVfn/gcc-arm-none-eabi-8-2019-q3/build/arm-none-eabi/arm/v5te/hard/libgcc/../../../../../../libgcc/config/arm/ieee754-sf.S:59
    97ac:	e2200102 	eor	r0, r0, #-2147483648	; 0x80000000
/build/gcc-arm-none-eabi-zSbVfn/gcc-arm-none-eabi-8-2019-q3/build/arm-none-eabi/arm/v5te/hard/libgcc/../../../../../../libgcc/config/arm/ieee754-sf.S:60
    97b0:	ea000000 	b	97b8 <__addsf3>

000097b4 <__aeabi_fsub>:
/build/gcc-arm-none-eabi-zSbVfn/gcc-arm-none-eabi-8-2019-q3/build/arm-none-eabi/arm/v5te/hard/libgcc/../../../../../../libgcc/config/arm/ieee754-sf.S:65
    97b4:	e2211102 	eor	r1, r1, #-2147483648	; 0x80000000

000097b8 <__addsf3>:
/build/gcc-arm-none-eabi-zSbVfn/gcc-arm-none-eabi-8-2019-q3/build/arm-none-eabi/arm/v5te/hard/libgcc/../../../../../../libgcc/config/arm/ieee754-sf.S:74
    97b8:	e1b02080 	lsls	r2, r0, #1
/build/gcc-arm-none-eabi-zSbVfn/gcc-arm-none-eabi-8-2019-q3/build/arm-none-eabi/arm/v5te/hard/libgcc/../../../../../../libgcc/config/arm/ieee754-sf.S:76
    97bc:	11b03081 	lslsne	r3, r1, #1
/build/gcc-arm-none-eabi-zSbVfn/gcc-arm-none-eabi-8-2019-q3/build/arm-none-eabi/arm/v5te/hard/libgcc/../../../../../../libgcc/config/arm/ieee754-sf.S:77
    97c0:	11320003 	teqne	r2, r3
/build/gcc-arm-none-eabi-zSbVfn/gcc-arm-none-eabi-8-2019-q3/build/arm-none-eabi/arm/v5te/hard/libgcc/../../../../../../libgcc/config/arm/ieee754-sf.S:78
    97c4:	11f0cc42 	mvnsne	ip, r2, asr #24
/build/gcc-arm-none-eabi-zSbVfn/gcc-arm-none-eabi-8-2019-q3/build/arm-none-eabi/arm/v5te/hard/libgcc/../../../../../../libgcc/config/arm/ieee754-sf.S:79
    97c8:	11f0cc43 	mvnsne	ip, r3, asr #24
/build/gcc-arm-none-eabi-zSbVfn/gcc-arm-none-eabi-8-2019-q3/build/arm-none-eabi/arm/v5te/hard/libgcc/../../../../../../libgcc/config/arm/ieee754-sf.S:80
    97cc:	0a00003c 	beq	98c4 <__addsf3+0x10c>
/build/gcc-arm-none-eabi-zSbVfn/gcc-arm-none-eabi-8-2019-q3/build/arm-none-eabi/arm/v5te/hard/libgcc/../../../../../../libgcc/config/arm/ieee754-sf.S:84
    97d0:	e1a02c22 	lsr	r2, r2, #24
/build/gcc-arm-none-eabi-zSbVfn/gcc-arm-none-eabi-8-2019-q3/build/arm-none-eabi/arm/v5te/hard/libgcc/../../../../../../libgcc/config/arm/ieee754-sf.S:85
    97d4:	e0723c23 	rsbs	r3, r2, r3, lsr #24
/build/gcc-arm-none-eabi-zSbVfn/gcc-arm-none-eabi-8-2019-q3/build/arm-none-eabi/arm/v5te/hard/libgcc/../../../../../../libgcc/config/arm/ieee754-sf.S:87
    97d8:	c0822003 	addgt	r2, r2, r3
/build/gcc-arm-none-eabi-zSbVfn/gcc-arm-none-eabi-8-2019-q3/build/arm-none-eabi/arm/v5te/hard/libgcc/../../../../../../libgcc/config/arm/ieee754-sf.S:88
    97dc:	c0201001 	eorgt	r1, r0, r1
/build/gcc-arm-none-eabi-zSbVfn/gcc-arm-none-eabi-8-2019-q3/build/arm-none-eabi/arm/v5te/hard/libgcc/../../../../../../libgcc/config/arm/ieee754-sf.S:89
    97e0:	c0210000 	eorgt	r0, r1, r0
/build/gcc-arm-none-eabi-zSbVfn/gcc-arm-none-eabi-8-2019-q3/build/arm-none-eabi/arm/v5te/hard/libgcc/../../../../../../libgcc/config/arm/ieee754-sf.S:90
    97e4:	c0201001 	eorgt	r1, r0, r1
/build/gcc-arm-none-eabi-zSbVfn/gcc-arm-none-eabi-8-2019-q3/build/arm-none-eabi/arm/v5te/hard/libgcc/../../../../../../libgcc/config/arm/ieee754-sf.S:92
    97e8:	b2633000 	rsblt	r3, r3, #0
/build/gcc-arm-none-eabi-zSbVfn/gcc-arm-none-eabi-8-2019-q3/build/arm-none-eabi/arm/v5te/hard/libgcc/../../../../../../libgcc/config/arm/ieee754-sf.S:97
    97ec:	e3530019 	cmp	r3, #25
/build/gcc-arm-none-eabi-zSbVfn/gcc-arm-none-eabi-8-2019-q3/build/arm-none-eabi/arm/v5te/hard/libgcc/../../../../../../libgcc/config/arm/ieee754-sf.S:99
    97f0:	812fff1e 	bxhi	lr
/build/gcc-arm-none-eabi-zSbVfn/gcc-arm-none-eabi-8-2019-q3/build/arm-none-eabi/arm/v5te/hard/libgcc/../../../../../../libgcc/config/arm/ieee754-sf.S:102
    97f4:	e3100102 	tst	r0, #-2147483648	; 0x80000000
/build/gcc-arm-none-eabi-zSbVfn/gcc-arm-none-eabi-8-2019-q3/build/arm-none-eabi/arm/v5te/hard/libgcc/../../../../../../libgcc/config/arm/ieee754-sf.S:103
    97f8:	e3800502 	orr	r0, r0, #8388608	; 0x800000
/build/gcc-arm-none-eabi-zSbVfn/gcc-arm-none-eabi-8-2019-q3/build/arm-none-eabi/arm/v5te/hard/libgcc/../../../../../../libgcc/config/arm/ieee754-sf.S:104
    97fc:	e3c004ff 	bic	r0, r0, #-16777216	; 0xff000000
/build/gcc-arm-none-eabi-zSbVfn/gcc-arm-none-eabi-8-2019-q3/build/arm-none-eabi/arm/v5te/hard/libgcc/../../../../../../libgcc/config/arm/ieee754-sf.S:106
    9800:	12600000 	rsbne	r0, r0, #0
/build/gcc-arm-none-eabi-zSbVfn/gcc-arm-none-eabi-8-2019-q3/build/arm-none-eabi/arm/v5te/hard/libgcc/../../../../../../libgcc/config/arm/ieee754-sf.S:107
    9804:	e3110102 	tst	r1, #-2147483648	; 0x80000000
/build/gcc-arm-none-eabi-zSbVfn/gcc-arm-none-eabi-8-2019-q3/build/arm-none-eabi/arm/v5te/hard/libgcc/../../../../../../libgcc/config/arm/ieee754-sf.S:108
    9808:	e3811502 	orr	r1, r1, #8388608	; 0x800000
/build/gcc-arm-none-eabi-zSbVfn/gcc-arm-none-eabi-8-2019-q3/build/arm-none-eabi/arm/v5te/hard/libgcc/../../../../../../libgcc/config/arm/ieee754-sf.S:109
    980c:	e3c114ff 	bic	r1, r1, #-16777216	; 0xff000000
/build/gcc-arm-none-eabi-zSbVfn/gcc-arm-none-eabi-8-2019-q3/build/arm-none-eabi/arm/v5te/hard/libgcc/../../../../../../libgcc/config/arm/ieee754-sf.S:111
    9810:	12611000 	rsbne	r1, r1, #0
/build/gcc-arm-none-eabi-zSbVfn/gcc-arm-none-eabi-8-2019-q3/build/arm-none-eabi/arm/v5te/hard/libgcc/../../../../../../libgcc/config/arm/ieee754-sf.S:115
    9814:	e1320003 	teq	r2, r3
/build/gcc-arm-none-eabi-zSbVfn/gcc-arm-none-eabi-8-2019-q3/build/arm-none-eabi/arm/v5te/hard/libgcc/../../../../../../libgcc/config/arm/ieee754-sf.S:116
    9818:	0a000023 	beq	98ac <__addsf3+0xf4>
/build/gcc-arm-none-eabi-zSbVfn/gcc-arm-none-eabi-8-2019-q3/build/arm-none-eabi/arm/v5te/hard/libgcc/../../../../../../libgcc/config/arm/ieee754-sf.S:120
    981c:	e2422001 	sub	r2, r2, #1
/build/gcc-arm-none-eabi-zSbVfn/gcc-arm-none-eabi-8-2019-q3/build/arm-none-eabi/arm/v5te/hard/libgcc/../../../../../../libgcc/config/arm/ieee754-sf.S:124
    9820:	e0900351 	adds	r0, r0, r1, asr r3
/build/gcc-arm-none-eabi-zSbVfn/gcc-arm-none-eabi-8-2019-q3/build/arm-none-eabi/arm/v5te/hard/libgcc/../../../../../../libgcc/config/arm/ieee754-sf.S:125
    9824:	e2633020 	rsb	r3, r3, #32
/build/gcc-arm-none-eabi-zSbVfn/gcc-arm-none-eabi-8-2019-q3/build/arm-none-eabi/arm/v5te/hard/libgcc/../../../../../../libgcc/config/arm/ieee754-sf.S:126
    9828:	e1a01311 	lsl	r1, r1, r3
/build/gcc-arm-none-eabi-zSbVfn/gcc-arm-none-eabi-8-2019-q3/build/arm-none-eabi/arm/v5te/hard/libgcc/../../../../../../libgcc/config/arm/ieee754-sf.S:129
    982c:	e2003102 	and	r3, r0, #-2147483648	; 0x80000000
/build/gcc-arm-none-eabi-zSbVfn/gcc-arm-none-eabi-8-2019-q3/build/arm-none-eabi/arm/v5te/hard/libgcc/../../../../../../libgcc/config/arm/ieee754-sf.S:130
    9830:	5a000001 	bpl	983c <__addsf3+0x84>
/build/gcc-arm-none-eabi-zSbVfn/gcc-arm-none-eabi-8-2019-q3/build/arm-none-eabi/arm/v5te/hard/libgcc/../../../../../../libgcc/config/arm/ieee754-sf.S:135
    9834:	e2711000 	rsbs	r1, r1, #0
/build/gcc-arm-none-eabi-zSbVfn/gcc-arm-none-eabi-8-2019-q3/build/arm-none-eabi/arm/v5te/hard/libgcc/../../../../../../libgcc/config/arm/ieee754-sf.S:136
    9838:	e2e00000 	rsc	r0, r0, #0
/build/gcc-arm-none-eabi-zSbVfn/gcc-arm-none-eabi-8-2019-q3/build/arm-none-eabi/arm/v5te/hard/libgcc/../../../../../../libgcc/config/arm/ieee754-sf.S:141
    983c:	e3500502 	cmp	r0, #8388608	; 0x800000
/build/gcc-arm-none-eabi-zSbVfn/gcc-arm-none-eabi-8-2019-q3/build/arm-none-eabi/arm/v5te/hard/libgcc/../../../../../../libgcc/config/arm/ieee754-sf.S:142
    9840:	3a00000b 	bcc	9874 <__addsf3+0xbc>
/build/gcc-arm-none-eabi-zSbVfn/gcc-arm-none-eabi-8-2019-q3/build/arm-none-eabi/arm/v5te/hard/libgcc/../../../../../../libgcc/config/arm/ieee754-sf.S:143
    9844:	e3500401 	cmp	r0, #16777216	; 0x1000000
/build/gcc-arm-none-eabi-zSbVfn/gcc-arm-none-eabi-8-2019-q3/build/arm-none-eabi/arm/v5te/hard/libgcc/../../../../../../libgcc/config/arm/ieee754-sf.S:144
    9848:	3a000004 	bcc	9860 <__addsf3+0xa8>
/build/gcc-arm-none-eabi-zSbVfn/gcc-arm-none-eabi-8-2019-q3/build/arm-none-eabi/arm/v5te/hard/libgcc/../../../../../../libgcc/config/arm/ieee754-sf.S:147
    984c:	e1b000a0 	lsrs	r0, r0, #1
/build/gcc-arm-none-eabi-zSbVfn/gcc-arm-none-eabi-8-2019-q3/build/arm-none-eabi/arm/v5te/hard/libgcc/../../../../../../libgcc/config/arm/ieee754-sf.S:148
    9850:	e1a01061 	rrx	r1, r1
/build/gcc-arm-none-eabi-zSbVfn/gcc-arm-none-eabi-8-2019-q3/build/arm-none-eabi/arm/v5te/hard/libgcc/../../../../../../libgcc/config/arm/ieee754-sf.S:149
    9854:	e2822001 	add	r2, r2, #1
/build/gcc-arm-none-eabi-zSbVfn/gcc-arm-none-eabi-8-2019-q3/build/arm-none-eabi/arm/v5te/hard/libgcc/../../../../../../libgcc/config/arm/ieee754-sf.S:152
    9858:	e35200fe 	cmp	r2, #254	; 0xfe
/build/gcc-arm-none-eabi-zSbVfn/gcc-arm-none-eabi-8-2019-q3/build/arm-none-eabi/arm/v5te/hard/libgcc/../../../../../../libgcc/config/arm/ieee754-sf.S:153
    985c:	2a00002d 	bcs	9918 <__addsf3+0x160>
/build/gcc-arm-none-eabi-zSbVfn/gcc-arm-none-eabi-8-2019-q3/build/arm-none-eabi/arm/v5te/hard/libgcc/../../../../../../libgcc/config/arm/ieee754-sf.S:160
    9860:	e3510102 	cmp	r1, #-2147483648	; 0x80000000
/build/gcc-arm-none-eabi-zSbVfn/gcc-arm-none-eabi-8-2019-q3/build/arm-none-eabi/arm/v5te/hard/libgcc/../../../../../../libgcc/config/arm/ieee754-sf.S:161
    9864:	e0a00b82 	adc	r0, r0, r2, lsl #23
/build/gcc-arm-none-eabi-zSbVfn/gcc-arm-none-eabi-8-2019-q3/build/arm-none-eabi/arm/v5te/hard/libgcc/../../../../../../libgcc/config/arm/ieee754-sf.S:163
    9868:	03c00001 	biceq	r0, r0, #1
/build/gcc-arm-none-eabi-zSbVfn/gcc-arm-none-eabi-8-2019-q3/build/arm-none-eabi/arm/v5te/hard/libgcc/../../../../../../libgcc/config/arm/ieee754-sf.S:164
    986c:	e1800003 	orr	r0, r0, r3
/build/gcc-arm-none-eabi-zSbVfn/gcc-arm-none-eabi-8-2019-q3/build/arm-none-eabi/arm/v5te/hard/libgcc/../../../../../../libgcc/config/arm/ieee754-sf.S:165
    9870:	e12fff1e 	bx	lr
/build/gcc-arm-none-eabi-zSbVfn/gcc-arm-none-eabi-8-2019-q3/build/arm-none-eabi/arm/v5te/hard/libgcc/../../../../../../libgcc/config/arm/ieee754-sf.S:169
    9874:	e1b01081 	lsls	r1, r1, #1
/build/gcc-arm-none-eabi-zSbVfn/gcc-arm-none-eabi-8-2019-q3/build/arm-none-eabi/arm/v5te/hard/libgcc/../../../../../../libgcc/config/arm/ieee754-sf.S:170
    9878:	e0a00000 	adc	r0, r0, r0
/build/gcc-arm-none-eabi-zSbVfn/gcc-arm-none-eabi-8-2019-q3/build/arm-none-eabi/arm/v5te/hard/libgcc/../../../../../../libgcc/config/arm/ieee754-sf.S:171
    987c:	e3100502 	tst	r0, #8388608	; 0x800000
/build/gcc-arm-none-eabi-zSbVfn/gcc-arm-none-eabi-8-2019-q3/build/arm-none-eabi/arm/v5te/hard/libgcc/../../../../../../libgcc/config/arm/ieee754-sf.S:172
    9880:	e2422001 	sub	r2, r2, #1
/build/gcc-arm-none-eabi-zSbVfn/gcc-arm-none-eabi-8-2019-q3/build/arm-none-eabi/arm/v5te/hard/libgcc/../../../../../../libgcc/config/arm/ieee754-sf.S:173
    9884:	1afffff5 	bne	9860 <__addsf3+0xa8>
/build/gcc-arm-none-eabi-zSbVfn/gcc-arm-none-eabi-8-2019-q3/build/arm-none-eabi/arm/v5te/hard/libgcc/../../../../../../libgcc/config/arm/ieee754-sf.S:198
    9888:	e16fcf10 	clz	ip, r0
/build/gcc-arm-none-eabi-zSbVfn/gcc-arm-none-eabi-8-2019-q3/build/arm-none-eabi/arm/v5te/hard/libgcc/../../../../../../libgcc/config/arm/ieee754-sf.S:199
    988c:	e24cc008 	sub	ip, ip, #8
/build/gcc-arm-none-eabi-zSbVfn/gcc-arm-none-eabi-8-2019-q3/build/arm-none-eabi/arm/v5te/hard/libgcc/../../../../../../libgcc/config/arm/ieee754-sf.S:200
    9890:	e052200c 	subs	r2, r2, ip
/build/gcc-arm-none-eabi-zSbVfn/gcc-arm-none-eabi-8-2019-q3/build/arm-none-eabi/arm/v5te/hard/libgcc/../../../../../../libgcc/config/arm/ieee754-sf.S:201
    9894:	e1a00c10 	lsl	r0, r0, ip
/build/gcc-arm-none-eabi-zSbVfn/gcc-arm-none-eabi-8-2019-q3/build/arm-none-eabi/arm/v5te/hard/libgcc/../../../../../../libgcc/config/arm/ieee754-sf.S:208
    9898:	a0800b82 	addge	r0, r0, r2, lsl #23
/build/gcc-arm-none-eabi-zSbVfn/gcc-arm-none-eabi-8-2019-q3/build/arm-none-eabi/arm/v5te/hard/libgcc/../../../../../../libgcc/config/arm/ieee754-sf.S:209
    989c:	b2622000 	rsblt	r2, r2, #0
/build/gcc-arm-none-eabi-zSbVfn/gcc-arm-none-eabi-8-2019-q3/build/arm-none-eabi/arm/v5te/hard/libgcc/../../../../../../libgcc/config/arm/ieee754-sf.S:210
    98a0:	a1800003 	orrge	r0, r0, r3
/build/gcc-arm-none-eabi-zSbVfn/gcc-arm-none-eabi-8-2019-q3/build/arm-none-eabi/arm/v5te/hard/libgcc/../../../../../../libgcc/config/arm/ieee754-sf.S:216
    98a4:	b1830230 	orrlt	r0, r3, r0, lsr r2
/build/gcc-arm-none-eabi-zSbVfn/gcc-arm-none-eabi-8-2019-q3/build/arm-none-eabi/arm/v5te/hard/libgcc/../../../../../../libgcc/config/arm/ieee754-sf.S:218
    98a8:	e12fff1e 	bx	lr
/build/gcc-arm-none-eabi-zSbVfn/gcc-arm-none-eabi-8-2019-q3/build/arm-none-eabi/arm/v5te/hard/libgcc/../../../../../../libgcc/config/arm/ieee754-sf.S:223
    98ac:	e3320000 	teq	r2, #0
/build/gcc-arm-none-eabi-zSbVfn/gcc-arm-none-eabi-8-2019-q3/build/arm-none-eabi/arm/v5te/hard/libgcc/../../../../../../libgcc/config/arm/ieee754-sf.S:224
    98b0:	e2211502 	eor	r1, r1, #8388608	; 0x800000
/build/gcc-arm-none-eabi-zSbVfn/gcc-arm-none-eabi-8-2019-q3/build/arm-none-eabi/arm/v5te/hard/libgcc/../../../../../../libgcc/config/arm/ieee754-sf.S:226
    98b4:	02200502 	eoreq	r0, r0, #8388608	; 0x800000
/build/gcc-arm-none-eabi-zSbVfn/gcc-arm-none-eabi-8-2019-q3/build/arm-none-eabi/arm/v5te/hard/libgcc/../../../../../../libgcc/config/arm/ieee754-sf.S:227
    98b8:	02822001 	addeq	r2, r2, #1
/build/gcc-arm-none-eabi-zSbVfn/gcc-arm-none-eabi-8-2019-q3/build/arm-none-eabi/arm/v5te/hard/libgcc/../../../../../../libgcc/config/arm/ieee754-sf.S:228
    98bc:	12433001 	subne	r3, r3, #1
/build/gcc-arm-none-eabi-zSbVfn/gcc-arm-none-eabi-8-2019-q3/build/arm-none-eabi/arm/v5te/hard/libgcc/../../../../../../libgcc/config/arm/ieee754-sf.S:229
    98c0:	eaffffd5 	b	981c <__addsf3+0x64>
/build/gcc-arm-none-eabi-zSbVfn/gcc-arm-none-eabi-8-2019-q3/build/arm-none-eabi/arm/v5te/hard/libgcc/../../../../../../libgcc/config/arm/ieee754-sf.S:232
    98c4:	e1a03081 	lsl	r3, r1, #1
/build/gcc-arm-none-eabi-zSbVfn/gcc-arm-none-eabi-8-2019-q3/build/arm-none-eabi/arm/v5te/hard/libgcc/../../../../../../libgcc/config/arm/ieee754-sf.S:234
    98c8:	e1f0cc42 	mvns	ip, r2, asr #24
/build/gcc-arm-none-eabi-zSbVfn/gcc-arm-none-eabi-8-2019-q3/build/arm-none-eabi/arm/v5te/hard/libgcc/../../../../../../libgcc/config/arm/ieee754-sf.S:236
    98cc:	11f0cc43 	mvnsne	ip, r3, asr #24
/build/gcc-arm-none-eabi-zSbVfn/gcc-arm-none-eabi-8-2019-q3/build/arm-none-eabi/arm/v5te/hard/libgcc/../../../../../../libgcc/config/arm/ieee754-sf.S:237
    98d0:	0a000013 	beq	9924 <__addsf3+0x16c>
/build/gcc-arm-none-eabi-zSbVfn/gcc-arm-none-eabi-8-2019-q3/build/arm-none-eabi/arm/v5te/hard/libgcc/../../../../../../libgcc/config/arm/ieee754-sf.S:239
    98d4:	e1320003 	teq	r2, r3
/build/gcc-arm-none-eabi-zSbVfn/gcc-arm-none-eabi-8-2019-q3/build/arm-none-eabi/arm/v5te/hard/libgcc/../../../../../../libgcc/config/arm/ieee754-sf.S:240
    98d8:	0a000002 	beq	98e8 <__addsf3+0x130>
/build/gcc-arm-none-eabi-zSbVfn/gcc-arm-none-eabi-8-2019-q3/build/arm-none-eabi/arm/v5te/hard/libgcc/../../../../../../libgcc/config/arm/ieee754-sf.S:243
    98dc:	e3320000 	teq	r2, #0
/build/gcc-arm-none-eabi-zSbVfn/gcc-arm-none-eabi-8-2019-q3/build/arm-none-eabi/arm/v5te/hard/libgcc/../../../../../../libgcc/config/arm/ieee754-sf.S:245
    98e0:	01a00001 	moveq	r0, r1
/build/gcc-arm-none-eabi-zSbVfn/gcc-arm-none-eabi-8-2019-q3/build/arm-none-eabi/arm/v5te/hard/libgcc/../../../../../../libgcc/config/arm/ieee754-sf.S:246
    98e4:	e12fff1e 	bx	lr
/build/gcc-arm-none-eabi-zSbVfn/gcc-arm-none-eabi-8-2019-q3/build/arm-none-eabi/arm/v5te/hard/libgcc/../../../../../../libgcc/config/arm/ieee754-sf.S:248
    98e8:	e1300001 	teq	r0, r1
/build/gcc-arm-none-eabi-zSbVfn/gcc-arm-none-eabi-8-2019-q3/build/arm-none-eabi/arm/v5te/hard/libgcc/../../../../../../libgcc/config/arm/ieee754-sf.S:252
    98ec:	13a00000 	movne	r0, #0
/build/gcc-arm-none-eabi-zSbVfn/gcc-arm-none-eabi-8-2019-q3/build/arm-none-eabi/arm/v5te/hard/libgcc/../../../../../../libgcc/config/arm/ieee754-sf.S:253
    98f0:	112fff1e 	bxne	lr
/build/gcc-arm-none-eabi-zSbVfn/gcc-arm-none-eabi-8-2019-q3/build/arm-none-eabi/arm/v5te/hard/libgcc/../../../../../../libgcc/config/arm/ieee754-sf.S:256
    98f4:	e31204ff 	tst	r2, #-16777216	; 0xff000000
/build/gcc-arm-none-eabi-zSbVfn/gcc-arm-none-eabi-8-2019-q3/build/arm-none-eabi/arm/v5te/hard/libgcc/../../../../../../libgcc/config/arm/ieee754-sf.S:257
    98f8:	1a000002 	bne	9908 <__addsf3+0x150>
/build/gcc-arm-none-eabi-zSbVfn/gcc-arm-none-eabi-8-2019-q3/build/arm-none-eabi/arm/v5te/hard/libgcc/../../../../../../libgcc/config/arm/ieee754-sf.S:258
    98fc:	e1b00080 	lsls	r0, r0, #1
/build/gcc-arm-none-eabi-zSbVfn/gcc-arm-none-eabi-8-2019-q3/build/arm-none-eabi/arm/v5te/hard/libgcc/../../../../../../libgcc/config/arm/ieee754-sf.S:260
    9900:	23800102 	orrcs	r0, r0, #-2147483648	; 0x80000000
/build/gcc-arm-none-eabi-zSbVfn/gcc-arm-none-eabi-8-2019-q3/build/arm-none-eabi/arm/v5te/hard/libgcc/../../../../../../libgcc/config/arm/ieee754-sf.S:261
    9904:	e12fff1e 	bx	lr
/build/gcc-arm-none-eabi-zSbVfn/gcc-arm-none-eabi-8-2019-q3/build/arm-none-eabi/arm/v5te/hard/libgcc/../../../../../../libgcc/config/arm/ieee754-sf.S:262
    9908:	e2922402 	adds	r2, r2, #33554432	; 0x2000000
/build/gcc-arm-none-eabi-zSbVfn/gcc-arm-none-eabi-8-2019-q3/build/arm-none-eabi/arm/v5te/hard/libgcc/../../../../../../libgcc/config/arm/ieee754-sf.S:264
    990c:	32800502 	addcc	r0, r0, #8388608	; 0x800000
/build/gcc-arm-none-eabi-zSbVfn/gcc-arm-none-eabi-8-2019-q3/build/arm-none-eabi/arm/v5te/hard/libgcc/../../../../../../libgcc/config/arm/ieee754-sf.S:265
    9910:	312fff1e 	bxcc	lr
/build/gcc-arm-none-eabi-zSbVfn/gcc-arm-none-eabi-8-2019-q3/build/arm-none-eabi/arm/v5te/hard/libgcc/../../../../../../libgcc/config/arm/ieee754-sf.S:266
    9914:	e2003102 	and	r3, r0, #-2147483648	; 0x80000000
/build/gcc-arm-none-eabi-zSbVfn/gcc-arm-none-eabi-8-2019-q3/build/arm-none-eabi/arm/v5te/hard/libgcc/../../../../../../libgcc/config/arm/ieee754-sf.S:270
    9918:	e383047f 	orr	r0, r3, #2130706432	; 0x7f000000
/build/gcc-arm-none-eabi-zSbVfn/gcc-arm-none-eabi-8-2019-q3/build/arm-none-eabi/arm/v5te/hard/libgcc/../../../../../../libgcc/config/arm/ieee754-sf.S:271
    991c:	e3800502 	orr	r0, r0, #8388608	; 0x800000
/build/gcc-arm-none-eabi-zSbVfn/gcc-arm-none-eabi-8-2019-q3/build/arm-none-eabi/arm/v5te/hard/libgcc/../../../../../../libgcc/config/arm/ieee754-sf.S:272
    9920:	e12fff1e 	bx	lr
/build/gcc-arm-none-eabi-zSbVfn/gcc-arm-none-eabi-8-2019-q3/build/arm-none-eabi/arm/v5te/hard/libgcc/../../../../../../libgcc/config/arm/ieee754-sf.S:281
    9924:	e1f02c42 	mvns	r2, r2, asr #24
/build/gcc-arm-none-eabi-zSbVfn/gcc-arm-none-eabi-8-2019-q3/build/arm-none-eabi/arm/v5te/hard/libgcc/../../../../../../libgcc/config/arm/ieee754-sf.S:283
    9928:	11a00001 	movne	r0, r1
/build/gcc-arm-none-eabi-zSbVfn/gcc-arm-none-eabi-8-2019-q3/build/arm-none-eabi/arm/v5te/hard/libgcc/../../../../../../libgcc/config/arm/ieee754-sf.S:284
    992c:	01f03c43 	mvnseq	r3, r3, asr #24
/build/gcc-arm-none-eabi-zSbVfn/gcc-arm-none-eabi-8-2019-q3/build/arm-none-eabi/arm/v5te/hard/libgcc/../../../../../../libgcc/config/arm/ieee754-sf.S:285
    9930:	11a01000 	movne	r1, r0
/build/gcc-arm-none-eabi-zSbVfn/gcc-arm-none-eabi-8-2019-q3/build/arm-none-eabi/arm/v5te/hard/libgcc/../../../../../../libgcc/config/arm/ieee754-sf.S:286
    9934:	e1b02480 	lsls	r2, r0, #9
/build/gcc-arm-none-eabi-zSbVfn/gcc-arm-none-eabi-8-2019-q3/build/arm-none-eabi/arm/v5te/hard/libgcc/../../../../../../libgcc/config/arm/ieee754-sf.S:288
    9938:	01b03481 	lslseq	r3, r1, #9
/build/gcc-arm-none-eabi-zSbVfn/gcc-arm-none-eabi-8-2019-q3/build/arm-none-eabi/arm/v5te/hard/libgcc/../../../../../../libgcc/config/arm/ieee754-sf.S:289
    993c:	01300001 	teqeq	r0, r1
/build/gcc-arm-none-eabi-zSbVfn/gcc-arm-none-eabi-8-2019-q3/build/arm-none-eabi/arm/v5te/hard/libgcc/../../../../../../libgcc/config/arm/ieee754-sf.S:290
    9940:	13800501 	orrne	r0, r0, #4194304	; 0x400000
/build/gcc-arm-none-eabi-zSbVfn/gcc-arm-none-eabi-8-2019-q3/build/arm-none-eabi/arm/v5te/hard/libgcc/../../../../../../libgcc/config/arm/ieee754-sf.S:291
    9944:	e12fff1e 	bx	lr

00009948 <__aeabi_ui2f>:
__aeabi_ui2f():
/build/gcc-arm-none-eabi-zSbVfn/gcc-arm-none-eabi-8-2019-q3/build/arm-none-eabi/arm/v5te/hard/libgcc/../../../../../../libgcc/config/arm/ieee754-sf.S:304
    9948:	e3a03000 	mov	r3, #0
/build/gcc-arm-none-eabi-zSbVfn/gcc-arm-none-eabi-8-2019-q3/build/arm-none-eabi/arm/v5te/hard/libgcc/../../../../../../libgcc/config/arm/ieee754-sf.S:305
    994c:	ea000001 	b	9958 <__aeabi_i2f+0x8>

00009950 <__aeabi_i2f>:
/build/gcc-arm-none-eabi-zSbVfn/gcc-arm-none-eabi-8-2019-q3/build/arm-none-eabi/arm/v5te/hard/libgcc/../../../../../../libgcc/config/arm/ieee754-sf.S:310
    9950:	e2103102 	ands	r3, r0, #-2147483648	; 0x80000000
/build/gcc-arm-none-eabi-zSbVfn/gcc-arm-none-eabi-8-2019-q3/build/arm-none-eabi/arm/v5te/hard/libgcc/../../../../../../libgcc/config/arm/ieee754-sf.S:312
    9954:	42600000 	rsbmi	r0, r0, #0
/build/gcc-arm-none-eabi-zSbVfn/gcc-arm-none-eabi-8-2019-q3/build/arm-none-eabi/arm/v5te/hard/libgcc/../../../../../../libgcc/config/arm/ieee754-sf.S:314
    9958:	e1b0c000 	movs	ip, r0
/build/gcc-arm-none-eabi-zSbVfn/gcc-arm-none-eabi-8-2019-q3/build/arm-none-eabi/arm/v5te/hard/libgcc/../../../../../../libgcc/config/arm/ieee754-sf.S:316
    995c:	012fff1e 	bxeq	lr
/build/gcc-arm-none-eabi-zSbVfn/gcc-arm-none-eabi-8-2019-q3/build/arm-none-eabi/arm/v5te/hard/libgcc/../../../../../../libgcc/config/arm/ieee754-sf.S:319
    9960:	e383344b 	orr	r3, r3, #1258291200	; 0x4b000000
/build/gcc-arm-none-eabi-zSbVfn/gcc-arm-none-eabi-8-2019-q3/build/arm-none-eabi/arm/v5te/hard/libgcc/../../../../../../libgcc/config/arm/ieee754-sf.S:322
    9964:	e1a01000 	mov	r1, r0
/build/gcc-arm-none-eabi-zSbVfn/gcc-arm-none-eabi-8-2019-q3/build/arm-none-eabi/arm/v5te/hard/libgcc/../../../../../../libgcc/config/arm/ieee754-sf.S:324
    9968:	e3a00000 	mov	r0, #0
/build/gcc-arm-none-eabi-zSbVfn/gcc-arm-none-eabi-8-2019-q3/build/arm-none-eabi/arm/v5te/hard/libgcc/../../../../../../libgcc/config/arm/ieee754-sf.S:325
    996c:	ea00000f 	b	99b0 <__aeabi_l2f+0x30>

00009970 <__aeabi_ul2f>:
__floatundisf():
/build/gcc-arm-none-eabi-zSbVfn/gcc-arm-none-eabi-8-2019-q3/build/arm-none-eabi/arm/v5te/hard/libgcc/../../../../../../libgcc/config/arm/ieee754-sf.S:337
    9970:	e1902001 	orrs	r2, r0, r1
/build/gcc-arm-none-eabi-zSbVfn/gcc-arm-none-eabi-8-2019-q3/build/arm-none-eabi/arm/v5te/hard/libgcc/../../../../../../libgcc/config/arm/ieee754-sf.S:339
    9974:	012fff1e 	bxeq	lr
/build/gcc-arm-none-eabi-zSbVfn/gcc-arm-none-eabi-8-2019-q3/build/arm-none-eabi/arm/v5te/hard/libgcc/../../../../../../libgcc/config/arm/ieee754-sf.S:341
    9978:	e3a03000 	mov	r3, #0
/build/gcc-arm-none-eabi-zSbVfn/gcc-arm-none-eabi-8-2019-q3/build/arm-none-eabi/arm/v5te/hard/libgcc/../../../../../../libgcc/config/arm/ieee754-sf.S:342
    997c:	ea000005 	b	9998 <__aeabi_l2f+0x18>

00009980 <__aeabi_l2f>:
/build/gcc-arm-none-eabi-zSbVfn/gcc-arm-none-eabi-8-2019-q3/build/arm-none-eabi/arm/v5te/hard/libgcc/../../../../../../libgcc/config/arm/ieee754-sf.S:347
    9980:	e1902001 	orrs	r2, r0, r1
/build/gcc-arm-none-eabi-zSbVfn/gcc-arm-none-eabi-8-2019-q3/build/arm-none-eabi/arm/v5te/hard/libgcc/../../../../../../libgcc/config/arm/ieee754-sf.S:349
    9984:	012fff1e 	bxeq	lr
/build/gcc-arm-none-eabi-zSbVfn/gcc-arm-none-eabi-8-2019-q3/build/arm-none-eabi/arm/v5te/hard/libgcc/../../../../../../libgcc/config/arm/ieee754-sf.S:351
    9988:	e2113102 	ands	r3, r1, #-2147483648	; 0x80000000
/build/gcc-arm-none-eabi-zSbVfn/gcc-arm-none-eabi-8-2019-q3/build/arm-none-eabi/arm/v5te/hard/libgcc/../../../../../../libgcc/config/arm/ieee754-sf.S:352
    998c:	5a000001 	bpl	9998 <__aeabi_l2f+0x18>
/build/gcc-arm-none-eabi-zSbVfn/gcc-arm-none-eabi-8-2019-q3/build/arm-none-eabi/arm/v5te/hard/libgcc/../../../../../../libgcc/config/arm/ieee754-sf.S:357
    9990:	e2700000 	rsbs	r0, r0, #0
/build/gcc-arm-none-eabi-zSbVfn/gcc-arm-none-eabi-8-2019-q3/build/arm-none-eabi/arm/v5te/hard/libgcc/../../../../../../libgcc/config/arm/ieee754-sf.S:358
    9994:	e2e11000 	rsc	r1, r1, #0
/build/gcc-arm-none-eabi-zSbVfn/gcc-arm-none-eabi-8-2019-q3/build/arm-none-eabi/arm/v5te/hard/libgcc/../../../../../../libgcc/config/arm/ieee754-sf.S:361
    9998:	e1b0c001 	movs	ip, r1
/build/gcc-arm-none-eabi-zSbVfn/gcc-arm-none-eabi-8-2019-q3/build/arm-none-eabi/arm/v5te/hard/libgcc/../../../../../../libgcc/config/arm/ieee754-sf.S:363
    999c:	01a0c000 	moveq	ip, r0
/build/gcc-arm-none-eabi-zSbVfn/gcc-arm-none-eabi-8-2019-q3/build/arm-none-eabi/arm/v5te/hard/libgcc/../../../../../../libgcc/config/arm/ieee754-sf.S:364
    99a0:	01a01000 	moveq	r1, r0
/build/gcc-arm-none-eabi-zSbVfn/gcc-arm-none-eabi-8-2019-q3/build/arm-none-eabi/arm/v5te/hard/libgcc/../../../../../../libgcc/config/arm/ieee754-sf.S:365
    99a4:	03a00000 	moveq	r0, #0
/build/gcc-arm-none-eabi-zSbVfn/gcc-arm-none-eabi-8-2019-q3/build/arm-none-eabi/arm/v5te/hard/libgcc/../../../../../../libgcc/config/arm/ieee754-sf.S:368
    99a8:	e383345b 	orr	r3, r3, #1526726656	; 0x5b000000
/build/gcc-arm-none-eabi-zSbVfn/gcc-arm-none-eabi-8-2019-q3/build/arm-none-eabi/arm/v5te/hard/libgcc/../../../../../../libgcc/config/arm/ieee754-sf.S:370
    99ac:	02433201 	subeq	r3, r3, #268435456	; 0x10000000
/build/gcc-arm-none-eabi-zSbVfn/gcc-arm-none-eabi-8-2019-q3/build/arm-none-eabi/arm/v5te/hard/libgcc/../../../../../../libgcc/config/arm/ieee754-sf.S:371
    99b0:	e2433502 	sub	r3, r3, #8388608	; 0x800000
/build/gcc-arm-none-eabi-zSbVfn/gcc-arm-none-eabi-8-2019-q3/build/arm-none-eabi/arm/v5te/hard/libgcc/../../../../../../libgcc/config/arm/ieee754-sf.S:396
    99b4:	e16f2f1c 	clz	r2, ip
/build/gcc-arm-none-eabi-zSbVfn/gcc-arm-none-eabi-8-2019-q3/build/arm-none-eabi/arm/v5te/hard/libgcc/../../../../../../libgcc/config/arm/ieee754-sf.S:397
    99b8:	e2522008 	subs	r2, r2, #8
/build/gcc-arm-none-eabi-zSbVfn/gcc-arm-none-eabi-8-2019-q3/build/arm-none-eabi/arm/v5te/hard/libgcc/../../../../../../libgcc/config/arm/ieee754-sf.S:401
    99bc:	e0433b82 	sub	r3, r3, r2, lsl #23
/build/gcc-arm-none-eabi-zSbVfn/gcc-arm-none-eabi-8-2019-q3/build/arm-none-eabi/arm/v5te/hard/libgcc/../../../../../../libgcc/config/arm/ieee754-sf.S:402
    99c0:	ba000006 	blt	99e0 <__aeabi_l2f+0x60>
/build/gcc-arm-none-eabi-zSbVfn/gcc-arm-none-eabi-8-2019-q3/build/arm-none-eabi/arm/v5te/hard/libgcc/../../../../../../libgcc/config/arm/ieee754-sf.S:404
    99c4:	e0833211 	add	r3, r3, r1, lsl r2
/build/gcc-arm-none-eabi-zSbVfn/gcc-arm-none-eabi-8-2019-q3/build/arm-none-eabi/arm/v5te/hard/libgcc/../../../../../../libgcc/config/arm/ieee754-sf.S:405
    99c8:	e1a0c210 	lsl	ip, r0, r2
/build/gcc-arm-none-eabi-zSbVfn/gcc-arm-none-eabi-8-2019-q3/build/arm-none-eabi/arm/v5te/hard/libgcc/../../../../../../libgcc/config/arm/ieee754-sf.S:406
    99cc:	e2622020 	rsb	r2, r2, #32
/build/gcc-arm-none-eabi-zSbVfn/gcc-arm-none-eabi-8-2019-q3/build/arm-none-eabi/arm/v5te/hard/libgcc/../../../../../../libgcc/config/arm/ieee754-sf.S:407
    99d0:	e35c0102 	cmp	ip, #-2147483648	; 0x80000000
/build/gcc-arm-none-eabi-zSbVfn/gcc-arm-none-eabi-8-2019-q3/build/arm-none-eabi/arm/v5te/hard/libgcc/../../../../../../libgcc/config/arm/ieee754-sf.S:408
    99d4:	e0a30230 	adc	r0, r3, r0, lsr r2
/build/gcc-arm-none-eabi-zSbVfn/gcc-arm-none-eabi-8-2019-q3/build/arm-none-eabi/arm/v5te/hard/libgcc/../../../../../../libgcc/config/arm/ieee754-sf.S:410
    99d8:	03c00001 	biceq	r0, r0, #1
/build/gcc-arm-none-eabi-zSbVfn/gcc-arm-none-eabi-8-2019-q3/build/arm-none-eabi/arm/v5te/hard/libgcc/../../../../../../libgcc/config/arm/ieee754-sf.S:411
    99dc:	e12fff1e 	bx	lr
/build/gcc-arm-none-eabi-zSbVfn/gcc-arm-none-eabi-8-2019-q3/build/arm-none-eabi/arm/v5te/hard/libgcc/../../../../../../libgcc/config/arm/ieee754-sf.S:413
    99e0:	e2822020 	add	r2, r2, #32
/build/gcc-arm-none-eabi-zSbVfn/gcc-arm-none-eabi-8-2019-q3/build/arm-none-eabi/arm/v5te/hard/libgcc/../../../../../../libgcc/config/arm/ieee754-sf.S:414
    99e4:	e1a0c211 	lsl	ip, r1, r2
/build/gcc-arm-none-eabi-zSbVfn/gcc-arm-none-eabi-8-2019-q3/build/arm-none-eabi/arm/v5te/hard/libgcc/../../../../../../libgcc/config/arm/ieee754-sf.S:415
    99e8:	e2622020 	rsb	r2, r2, #32
/build/gcc-arm-none-eabi-zSbVfn/gcc-arm-none-eabi-8-2019-q3/build/arm-none-eabi/arm/v5te/hard/libgcc/../../../../../../libgcc/config/arm/ieee754-sf.S:416
    99ec:	e190008c 	orrs	r0, r0, ip, lsl #1
/build/gcc-arm-none-eabi-zSbVfn/gcc-arm-none-eabi-8-2019-q3/build/arm-none-eabi/arm/v5te/hard/libgcc/../../../../../../libgcc/config/arm/ieee754-sf.S:417
    99f0:	e0a30231 	adc	r0, r3, r1, lsr r2
/build/gcc-arm-none-eabi-zSbVfn/gcc-arm-none-eabi-8-2019-q3/build/arm-none-eabi/arm/v5te/hard/libgcc/../../../../../../libgcc/config/arm/ieee754-sf.S:419
    99f4:	01c00fac 	biceq	r0, r0, ip, lsr #31
/build/gcc-arm-none-eabi-zSbVfn/gcc-arm-none-eabi-8-2019-q3/build/arm-none-eabi/arm/v5te/hard/libgcc/../../../../../../libgcc/config/arm/ieee754-sf.S:420
    99f8:	e12fff1e 	bx	lr

000099fc <__aeabi_ldivmod>:
__aeabi_ldivmod():
/build/gcc-arm-none-eabi-zSbVfn/gcc-arm-none-eabi-8-2019-q3/build/arm-none-eabi/arm/v5te/hard/libgcc/../../../../../../libgcc/config/arm/bpabi.S:186
    99fc:	e3530000 	cmp	r3, #0
    9a00:	03520000 	cmpeq	r2, #0
    9a04:	1a000007 	bne	9a28 <__aeabi_ldivmod+0x2c>
    9a08:	e3510000 	cmp	r1, #0
    9a0c:	b3a01102 	movlt	r1, #-2147483648	; 0x80000000
    9a10:	b3a00000 	movlt	r0, #0
    9a14:	ba000002 	blt	9a24 <__aeabi_ldivmod+0x28>
    9a18:	03500000 	cmpeq	r0, #0
    9a1c:	13e01102 	mvnne	r1, #-2147483648	; 0x80000000
    9a20:	13e00000 	mvnne	r0, #0
    9a24:	eaffff5f 	b	97a8 <__aeabi_idiv0>
/build/gcc-arm-none-eabi-zSbVfn/gcc-arm-none-eabi-8-2019-q3/build/arm-none-eabi/arm/v5te/hard/libgcc/../../../../../../libgcc/config/arm/bpabi.S:188
    9a28:	e24dd008 	sub	sp, sp, #8
    9a2c:	e92d6000 	push	{sp, lr}
/build/gcc-arm-none-eabi-zSbVfn/gcc-arm-none-eabi-8-2019-q3/build/arm-none-eabi/arm/v5te/hard/libgcc/../../../../../../libgcc/config/arm/bpabi.S:189
    9a30:	e3510000 	cmp	r1, #0
/build/gcc-arm-none-eabi-zSbVfn/gcc-arm-none-eabi-8-2019-q3/build/arm-none-eabi/arm/v5te/hard/libgcc/../../../../../../libgcc/config/arm/bpabi.S:190
    9a34:	ba000006 	blt	9a54 <__aeabi_ldivmod+0x58>
/build/gcc-arm-none-eabi-zSbVfn/gcc-arm-none-eabi-8-2019-q3/build/arm-none-eabi/arm/v5te/hard/libgcc/../../../../../../libgcc/config/arm/bpabi.S:191
    9a38:	e3530000 	cmp	r3, #0
/build/gcc-arm-none-eabi-zSbVfn/gcc-arm-none-eabi-8-2019-q3/build/arm-none-eabi/arm/v5te/hard/libgcc/../../../../../../libgcc/config/arm/bpabi.S:192
    9a3c:	ba000011 	blt	9a88 <__aeabi_ldivmod+0x8c>
/build/gcc-arm-none-eabi-zSbVfn/gcc-arm-none-eabi-8-2019-q3/build/arm-none-eabi/arm/v5te/hard/libgcc/../../../../../../libgcc/config/arm/bpabi.S:194
    9a40:	eb00003e 	bl	9b40 <__udivmoddi4>
/build/gcc-arm-none-eabi-zSbVfn/gcc-arm-none-eabi-8-2019-q3/build/arm-none-eabi/arm/v5te/hard/libgcc/../../../../../../libgcc/config/arm/bpabi.S:196
    9a44:	e59de004 	ldr	lr, [sp, #4]
    9a48:	e28dd008 	add	sp, sp, #8
    9a4c:	e8bd000c 	pop	{r2, r3}
/build/gcc-arm-none-eabi-zSbVfn/gcc-arm-none-eabi-8-2019-q3/build/arm-none-eabi/arm/v5te/hard/libgcc/../../../../../../libgcc/config/arm/bpabi.S:197
    9a50:	e12fff1e 	bx	lr
/build/gcc-arm-none-eabi-zSbVfn/gcc-arm-none-eabi-8-2019-q3/build/arm-none-eabi/arm/v5te/hard/libgcc/../../../../../../libgcc/config/arm/bpabi.S:201
    9a54:	e2700000 	rsbs	r0, r0, #0
/build/gcc-arm-none-eabi-zSbVfn/gcc-arm-none-eabi-8-2019-q3/build/arm-none-eabi/arm/v5te/hard/libgcc/../../../../../../libgcc/config/arm/bpabi.S:202
    9a58:	e0c11081 	sbc	r1, r1, r1, lsl #1
/build/gcc-arm-none-eabi-zSbVfn/gcc-arm-none-eabi-8-2019-q3/build/arm-none-eabi/arm/v5te/hard/libgcc/../../../../../../libgcc/config/arm/bpabi.S:203
    9a5c:	e3530000 	cmp	r3, #0
/build/gcc-arm-none-eabi-zSbVfn/gcc-arm-none-eabi-8-2019-q3/build/arm-none-eabi/arm/v5te/hard/libgcc/../../../../../../libgcc/config/arm/bpabi.S:204
    9a60:	ba000011 	blt	9aac <__aeabi_ldivmod+0xb0>
/build/gcc-arm-none-eabi-zSbVfn/gcc-arm-none-eabi-8-2019-q3/build/arm-none-eabi/arm/v5te/hard/libgcc/../../../../../../libgcc/config/arm/bpabi.S:206
    9a64:	eb000035 	bl	9b40 <__udivmoddi4>
/build/gcc-arm-none-eabi-zSbVfn/gcc-arm-none-eabi-8-2019-q3/build/arm-none-eabi/arm/v5te/hard/libgcc/../../../../../../libgcc/config/arm/bpabi.S:208
    9a68:	e59de004 	ldr	lr, [sp, #4]
    9a6c:	e28dd008 	add	sp, sp, #8
    9a70:	e8bd000c 	pop	{r2, r3}
/build/gcc-arm-none-eabi-zSbVfn/gcc-arm-none-eabi-8-2019-q3/build/arm-none-eabi/arm/v5te/hard/libgcc/../../../../../../libgcc/config/arm/bpabi.S:209
    9a74:	e2700000 	rsbs	r0, r0, #0
/build/gcc-arm-none-eabi-zSbVfn/gcc-arm-none-eabi-8-2019-q3/build/arm-none-eabi/arm/v5te/hard/libgcc/../../../../../../libgcc/config/arm/bpabi.S:210
    9a78:	e0c11081 	sbc	r1, r1, r1, lsl #1
/build/gcc-arm-none-eabi-zSbVfn/gcc-arm-none-eabi-8-2019-q3/build/arm-none-eabi/arm/v5te/hard/libgcc/../../../../../../libgcc/config/arm/bpabi.S:211
    9a7c:	e2722000 	rsbs	r2, r2, #0
/build/gcc-arm-none-eabi-zSbVfn/gcc-arm-none-eabi-8-2019-q3/build/arm-none-eabi/arm/v5te/hard/libgcc/../../../../../../libgcc/config/arm/bpabi.S:212
    9a80:	e0c33083 	sbc	r3, r3, r3, lsl #1
/build/gcc-arm-none-eabi-zSbVfn/gcc-arm-none-eabi-8-2019-q3/build/arm-none-eabi/arm/v5te/hard/libgcc/../../../../../../libgcc/config/arm/bpabi.S:213
    9a84:	e12fff1e 	bx	lr
/build/gcc-arm-none-eabi-zSbVfn/gcc-arm-none-eabi-8-2019-q3/build/arm-none-eabi/arm/v5te/hard/libgcc/../../../../../../libgcc/config/arm/bpabi.S:217
    9a88:	e2722000 	rsbs	r2, r2, #0
/build/gcc-arm-none-eabi-zSbVfn/gcc-arm-none-eabi-8-2019-q3/build/arm-none-eabi/arm/v5te/hard/libgcc/../../../../../../libgcc/config/arm/bpabi.S:218
    9a8c:	e0c33083 	sbc	r3, r3, r3, lsl #1
/build/gcc-arm-none-eabi-zSbVfn/gcc-arm-none-eabi-8-2019-q3/build/arm-none-eabi/arm/v5te/hard/libgcc/../../../../../../libgcc/config/arm/bpabi.S:220
    9a90:	eb00002a 	bl	9b40 <__udivmoddi4>
/build/gcc-arm-none-eabi-zSbVfn/gcc-arm-none-eabi-8-2019-q3/build/arm-none-eabi/arm/v5te/hard/libgcc/../../../../../../libgcc/config/arm/bpabi.S:222
    9a94:	e59de004 	ldr	lr, [sp, #4]
    9a98:	e28dd008 	add	sp, sp, #8
    9a9c:	e8bd000c 	pop	{r2, r3}
/build/gcc-arm-none-eabi-zSbVfn/gcc-arm-none-eabi-8-2019-q3/build/arm-none-eabi/arm/v5te/hard/libgcc/../../../../../../libgcc/config/arm/bpabi.S:223
    9aa0:	e2700000 	rsbs	r0, r0, #0
/build/gcc-arm-none-eabi-zSbVfn/gcc-arm-none-eabi-8-2019-q3/build/arm-none-eabi/arm/v5te/hard/libgcc/../../../../../../libgcc/config/arm/bpabi.S:224
    9aa4:	e0c11081 	sbc	r1, r1, r1, lsl #1
/build/gcc-arm-none-eabi-zSbVfn/gcc-arm-none-eabi-8-2019-q3/build/arm-none-eabi/arm/v5te/hard/libgcc/../../../../../../libgcc/config/arm/bpabi.S:225
    9aa8:	e12fff1e 	bx	lr
/build/gcc-arm-none-eabi-zSbVfn/gcc-arm-none-eabi-8-2019-q3/build/arm-none-eabi/arm/v5te/hard/libgcc/../../../../../../libgcc/config/arm/bpabi.S:229
    9aac:	e2722000 	rsbs	r2, r2, #0
/build/gcc-arm-none-eabi-zSbVfn/gcc-arm-none-eabi-8-2019-q3/build/arm-none-eabi/arm/v5te/hard/libgcc/../../../../../../libgcc/config/arm/bpabi.S:230
    9ab0:	e0c33083 	sbc	r3, r3, r3, lsl #1
/build/gcc-arm-none-eabi-zSbVfn/gcc-arm-none-eabi-8-2019-q3/build/arm-none-eabi/arm/v5te/hard/libgcc/../../../../../../libgcc/config/arm/bpabi.S:232
    9ab4:	eb000021 	bl	9b40 <__udivmoddi4>
/build/gcc-arm-none-eabi-zSbVfn/gcc-arm-none-eabi-8-2019-q3/build/arm-none-eabi/arm/v5te/hard/libgcc/../../../../../../libgcc/config/arm/bpabi.S:233
    9ab8:	e59de004 	ldr	lr, [sp, #4]
    9abc:	e28dd008 	add	sp, sp, #8
    9ac0:	e8bd000c 	pop	{r2, r3}
/build/gcc-arm-none-eabi-zSbVfn/gcc-arm-none-eabi-8-2019-q3/build/arm-none-eabi/arm/v5te/hard/libgcc/../../../../../../libgcc/config/arm/bpabi.S:234
    9ac4:	e2722000 	rsbs	r2, r2, #0
/build/gcc-arm-none-eabi-zSbVfn/gcc-arm-none-eabi-8-2019-q3/build/arm-none-eabi/arm/v5te/hard/libgcc/../../../../../../libgcc/config/arm/bpabi.S:235
    9ac8:	e0c33083 	sbc	r3, r3, r3, lsl #1
/build/gcc-arm-none-eabi-zSbVfn/gcc-arm-none-eabi-8-2019-q3/build/arm-none-eabi/arm/v5te/hard/libgcc/../../../../../../libgcc/config/arm/bpabi.S:236
    9acc:	e12fff1e 	bx	lr

00009ad0 <__aeabi_f2lz>:
__fixsfdi():
/build/gcc-arm-none-eabi-zSbVfn/gcc-arm-none-eabi-8-2019-q3/build/arm-none-eabi/arm/v5te/hard/libgcc/../../../../../../libgcc/libgcc2.c:1530
    9ad0:	ee070a90 	vmov	s15, r0
/build/gcc-arm-none-eabi-zSbVfn/gcc-arm-none-eabi-8-2019-q3/build/arm-none-eabi/arm/v5te/hard/libgcc/../../../../../../libgcc/libgcc2.c:1531
    9ad4:	eef57ac0 	vcmpe.f32	s15, #0.0
    9ad8:	eef1fa10 	vmrs	APSR_nzcv, fpscr
    9adc:	4a000000 	bmi	9ae4 <__aeabi_f2lz+0x14>
/build/gcc-arm-none-eabi-zSbVfn/gcc-arm-none-eabi-8-2019-q3/build/arm-none-eabi/arm/v5te/hard/libgcc/../../../../../../libgcc/libgcc2.c:1533
    9ae0:	ea000006 	b	9b00 <__aeabi_f2ulz>
/build/gcc-arm-none-eabi-zSbVfn/gcc-arm-none-eabi-8-2019-q3/build/arm-none-eabi/arm/v5te/hard/libgcc/../../../../../../libgcc/libgcc2.c:1530
    9ae4:	e92d4010 	push	{r4, lr}
/build/gcc-arm-none-eabi-zSbVfn/gcc-arm-none-eabi-8-2019-q3/build/arm-none-eabi/arm/v5te/hard/libgcc/../../../../../../libgcc/libgcc2.c:1532
    9ae8:	e2200102 	eor	r0, r0, #-2147483648	; 0x80000000
    9aec:	eb000003 	bl	9b00 <__aeabi_f2ulz>
    9af0:	e2700000 	rsbs	r0, r0, #0
    9af4:	e2e11000 	rsc	r1, r1, #0
/build/gcc-arm-none-eabi-zSbVfn/gcc-arm-none-eabi-8-2019-q3/build/arm-none-eabi/arm/v5te/hard/libgcc/../../../../../../libgcc/libgcc2.c:1534
    9af8:	e8bd8010 	pop	{r4, pc}
__aeabi_f2lz():
    9afc:	00000000 	andeq	r0, r0, r0

00009b00 <__aeabi_f2ulz>:
__fixunssfdi():
/build/gcc-arm-none-eabi-zSbVfn/gcc-arm-none-eabi-8-2019-q3/build/arm-none-eabi/arm/v5te/hard/libgcc/../../../../../../libgcc/libgcc2.c:1471
    9b00:	ee070a90 	vmov	s15, r0
/build/gcc-arm-none-eabi-zSbVfn/gcc-arm-none-eabi-8-2019-q3/build/arm-none-eabi/arm/v5te/hard/libgcc/../../../../../../libgcc/libgcc2.c:1481
    9b04:	ed9f5b09 	vldr	d5, [pc, #36]	; 9b30 <__aeabi_f2ulz+0x30>
/build/gcc-arm-none-eabi-zSbVfn/gcc-arm-none-eabi-8-2019-q3/build/arm-none-eabi/arm/v5te/hard/libgcc/../../../../../../libgcc/libgcc2.c:1471
    9b08:	eeb76ae7 	vcvt.f64.f32	d6, s15
/build/gcc-arm-none-eabi-zSbVfn/gcc-arm-none-eabi-8-2019-q3/build/arm-none-eabi/arm/v5te/hard/libgcc/../../../../../../libgcc/libgcc2.c:1476
    9b0c:	ed9f7b09 	vldr	d7, [pc, #36]	; 9b38 <__aeabi_f2ulz+0x38>
    9b10:	ee267b07 	vmul.f64	d7, d6, d7
    9b14:	eebc7bc7 	vcvt.u32.f64	s14, d7
/build/gcc-arm-none-eabi-zSbVfn/gcc-arm-none-eabi-8-2019-q3/build/arm-none-eabi/arm/v5te/hard/libgcc/../../../../../../libgcc/libgcc2.c:1481
    9b18:	eeb84b47 	vcvt.f64.u32	d4, s14
/build/gcc-arm-none-eabi-zSbVfn/gcc-arm-none-eabi-8-2019-q3/build/arm-none-eabi/arm/v5te/hard/libgcc/../../../../../../libgcc/libgcc2.c:1524
    9b1c:	ee171a10 	vmov	r1, s14
/build/gcc-arm-none-eabi-zSbVfn/gcc-arm-none-eabi-8-2019-q3/build/arm-none-eabi/arm/v5te/hard/libgcc/../../../../../../libgcc/libgcc2.c:1481
    9b20:	ee046b45 	vmls.f64	d6, d4, d5
/build/gcc-arm-none-eabi-zSbVfn/gcc-arm-none-eabi-8-2019-q3/build/arm-none-eabi/arm/v5te/hard/libgcc/../../../../../../libgcc/libgcc2.c:1524
    9b24:	eefc7bc6 	vcvt.u32.f64	s15, d6
    9b28:	ee170a90 	vmov	r0, s15
    9b2c:	e12fff1e 	bx	lr
    9b30:	00000000 	andeq	r0, r0, r0
    9b34:	41f00000 	mvnsmi	r0, r0
    9b38:	00000000 	andeq	r0, r0, r0
    9b3c:	3df00000 	ldclcc	0, cr0, [r0]

00009b40 <__udivmoddi4>:
__udivmoddi4():
/build/gcc-arm-none-eabi-zSbVfn/gcc-arm-none-eabi-8-2019-q3/build/arm-none-eabi/arm/v5te/hard/libgcc/../../../../../../libgcc/libgcc2.c:960
    9b40:	e1510003 	cmp	r1, r3
    9b44:	01500002 	cmpeq	r0, r2
/build/gcc-arm-none-eabi-zSbVfn/gcc-arm-none-eabi-8-2019-q3/build/arm-none-eabi/arm/v5te/hard/libgcc/../../../../../../libgcc/libgcc2.c:948
    9b48:	e92d4ff0 	push	{r4, r5, r6, r7, r8, r9, sl, fp, lr}
    9b4c:	e1a04000 	mov	r4, r0
/build/gcc-arm-none-eabi-zSbVfn/gcc-arm-none-eabi-8-2019-q3/build/arm-none-eabi/arm/v5te/hard/libgcc/../../../../../../libgcc/libgcc2.c:949
    9b50:	33a00000 	movcc	r0, #0
/build/gcc-arm-none-eabi-zSbVfn/gcc-arm-none-eabi-8-2019-q3/build/arm-none-eabi/arm/v5te/hard/libgcc/../../../../../../libgcc/libgcc2.c:948
    9b54:	e1a05001 	mov	r5, r1
    9b58:	e59de024 	ldr	lr, [sp, #36]	; 0x24
/build/gcc-arm-none-eabi-zSbVfn/gcc-arm-none-eabi-8-2019-q3/build/arm-none-eabi/arm/v5te/hard/libgcc/../../../../../../libgcc/libgcc2.c:949
    9b5c:	31a01000 	movcc	r1, r0
/build/gcc-arm-none-eabi-zSbVfn/gcc-arm-none-eabi-8-2019-q3/build/arm-none-eabi/arm/v5te/hard/libgcc/../../../../../../libgcc/libgcc2.c:960
    9b60:	3a00003d 	bcc	9c5c <__udivmoddi4+0x11c>
/build/gcc-arm-none-eabi-zSbVfn/gcc-arm-none-eabi-8-2019-q3/build/arm-none-eabi/arm/v5te/hard/libgcc/../../../../../../libgcc/libgcc2.c:962
    9b64:	e3530000 	cmp	r3, #0
    9b68:	016fcf12 	clzeq	ip, r2
    9b6c:	116fcf13 	clzne	ip, r3
    9b70:	028cc020 	addeq	ip, ip, #32
/build/gcc-arm-none-eabi-zSbVfn/gcc-arm-none-eabi-8-2019-q3/build/arm-none-eabi/arm/v5te/hard/libgcc/../../../../../../libgcc/libgcc2.c:963
    9b74:	e3550000 	cmp	r5, #0
    9b78:	016f1f14 	clzeq	r1, r4
    9b7c:	02811020 	addeq	r1, r1, #32
    9b80:	116f1f15 	clzne	r1, r5
/build/gcc-arm-none-eabi-zSbVfn/gcc-arm-none-eabi-8-2019-q3/build/arm-none-eabi/arm/v5te/hard/libgcc/../../../../../../libgcc/libgcc2.c:965
    9b84:	e04cc001 	sub	ip, ip, r1
/build/gcc-arm-none-eabi-zSbVfn/gcc-arm-none-eabi-8-2019-q3/build/arm-none-eabi/arm/v5te/hard/libgcc/../../../../../../libgcc/libgcc2.c:966
    9b88:	e1a09c13 	lsl	r9, r3, ip
    9b8c:	e24cb020 	sub	fp, ip, #32
    9b90:	e1899b12 	orr	r9, r9, r2, lsl fp
    9b94:	e26ca020 	rsb	sl, ip, #32
    9b98:	e1899a32 	orr	r9, r9, r2, lsr sl
    9b9c:	e1a08c12 	lsl	r8, r2, ip
/build/gcc-arm-none-eabi-zSbVfn/gcc-arm-none-eabi-8-2019-q3/build/arm-none-eabi/arm/v5te/hard/libgcc/../../../../../../libgcc/libgcc2.c:973
    9ba0:	e1550009 	cmp	r5, r9
    9ba4:	01540008 	cmpeq	r4, r8
/build/gcc-arm-none-eabi-zSbVfn/gcc-arm-none-eabi-8-2019-q3/build/arm-none-eabi/arm/v5te/hard/libgcc/../../../../../../libgcc/libgcc2.c:949
    9ba8:	33a00000 	movcc	r0, #0
    9bac:	31a01000 	movcc	r1, r0
/build/gcc-arm-none-eabi-zSbVfn/gcc-arm-none-eabi-8-2019-q3/build/arm-none-eabi/arm/v5te/hard/libgcc/../../../../../../libgcc/libgcc2.c:973
    9bb0:	3a000005 	bcc	9bcc <__udivmoddi4+0x8c>
/build/gcc-arm-none-eabi-zSbVfn/gcc-arm-none-eabi-8-2019-q3/build/arm-none-eabi/arm/v5te/hard/libgcc/../../../../../../libgcc/libgcc2.c:976
    9bb4:	e3a00001 	mov	r0, #1
    9bb8:	e1a01b10 	lsl	r1, r0, fp
/build/gcc-arm-none-eabi-zSbVfn/gcc-arm-none-eabi-8-2019-q3/build/arm-none-eabi/arm/v5te/hard/libgcc/../../../../../../libgcc/libgcc2.c:975
    9bbc:	e0544008 	subs	r4, r4, r8
/build/gcc-arm-none-eabi-zSbVfn/gcc-arm-none-eabi-8-2019-q3/build/arm-none-eabi/arm/v5te/hard/libgcc/../../../../../../libgcc/libgcc2.c:976
    9bc0:	e1811a30 	orr	r1, r1, r0, lsr sl
    9bc4:	e1a00c10 	lsl	r0, r0, ip
/build/gcc-arm-none-eabi-zSbVfn/gcc-arm-none-eabi-8-2019-q3/build/arm-none-eabi/arm/v5te/hard/libgcc/../../../../../../libgcc/libgcc2.c:975
    9bc8:	e0c55009 	sbc	r5, r5, r9
/build/gcc-arm-none-eabi-zSbVfn/gcc-arm-none-eabi-8-2019-q3/build/arm-none-eabi/arm/v5te/hard/libgcc/../../../../../../libgcc/libgcc2.c:979
    9bcc:	e35c0000 	cmp	ip, #0
    9bd0:	0a000021 	beq	9c5c <__udivmoddi4+0x11c>
/build/gcc-arm-none-eabi-zSbVfn/gcc-arm-none-eabi-8-2019-q3/build/arm-none-eabi/arm/v5te/hard/libgcc/../../../../../../libgcc/libgcc2.c:981
    9bd4:	e1a060a8 	lsr	r6, r8, #1
    9bd8:	e1866f89 	orr	r6, r6, r9, lsl #31
    9bdc:	e1a070a9 	lsr	r7, r9, #1
    9be0:	e1a0200c 	mov	r2, ip
    9be4:	ea000007 	b	9c08 <__udivmoddi4+0xc8>
/build/gcc-arm-none-eabi-zSbVfn/gcc-arm-none-eabi-8-2019-q3/build/arm-none-eabi/arm/v5te/hard/libgcc/../../../../../../libgcc/libgcc2.c:989
    9be8:	e0543006 	subs	r3, r4, r6
    9bec:	e0c58007 	sbc	r8, r5, r7
    9bf0:	e0933003 	adds	r3, r3, r3
    9bf4:	e0a88008 	adc	r8, r8, r8
    9bf8:	e2934001 	adds	r4, r3, #1
    9bfc:	e2a85000 	adc	r5, r8, #0
/build/gcc-arm-none-eabi-zSbVfn/gcc-arm-none-eabi-8-2019-q3/build/arm-none-eabi/arm/v5te/hard/libgcc/../../../../../../libgcc/libgcc2.c:993
    9c00:	e2522001 	subs	r2, r2, #1
    9c04:	0a000006 	beq	9c24 <__udivmoddi4+0xe4>
/build/gcc-arm-none-eabi-zSbVfn/gcc-arm-none-eabi-8-2019-q3/build/arm-none-eabi/arm/v5te/hard/libgcc/../../../../../../libgcc/libgcc2.c:988
    9c08:	e1550007 	cmp	r5, r7
    9c0c:	01540006 	cmpeq	r4, r6
    9c10:	2afffff4 	bcs	9be8 <__udivmoddi4+0xa8>
/build/gcc-arm-none-eabi-zSbVfn/gcc-arm-none-eabi-8-2019-q3/build/arm-none-eabi/arm/v5te/hard/libgcc/../../../../../../libgcc/libgcc2.c:991
    9c14:	e0944004 	adds	r4, r4, r4
    9c18:	e0a55005 	adc	r5, r5, r5
/build/gcc-arm-none-eabi-zSbVfn/gcc-arm-none-eabi-8-2019-q3/build/arm-none-eabi/arm/v5te/hard/libgcc/../../../../../../libgcc/libgcc2.c:993
    9c1c:	e2522001 	subs	r2, r2, #1
    9c20:	1afffff8 	bne	9c08 <__udivmoddi4+0xc8>
/build/gcc-arm-none-eabi-zSbVfn/gcc-arm-none-eabi-8-2019-q3/build/arm-none-eabi/arm/v5te/hard/libgcc/../../../../../../libgcc/libgcc2.c:998
    9c24:	e1a03c34 	lsr	r3, r4, ip
    9c28:	e1833a15 	orr	r3, r3, r5, lsl sl
    9c2c:	e1a02c35 	lsr	r2, r5, ip
    9c30:	e1833b35 	orr	r3, r3, r5, lsr fp
/build/gcc-arm-none-eabi-zSbVfn/gcc-arm-none-eabi-8-2019-q3/build/arm-none-eabi/arm/v5te/hard/libgcc/../../../../../../libgcc/libgcc2.c:997
    9c34:	e0900004 	adds	r0, r0, r4
/build/gcc-arm-none-eabi-zSbVfn/gcc-arm-none-eabi-8-2019-q3/build/arm-none-eabi/arm/v5te/hard/libgcc/../../../../../../libgcc/libgcc2.c:998
    9c38:	e1a04003 	mov	r4, r3
/build/gcc-arm-none-eabi-zSbVfn/gcc-arm-none-eabi-8-2019-q3/build/arm-none-eabi/arm/v5te/hard/libgcc/../../../../../../libgcc/libgcc2.c:999
    9c3c:	e1a03c12 	lsl	r3, r2, ip
    9c40:	e1833b14 	orr	r3, r3, r4, lsl fp
    9c44:	e1a0cc14 	lsl	ip, r4, ip
    9c48:	e1833a34 	orr	r3, r3, r4, lsr sl
/build/gcc-arm-none-eabi-zSbVfn/gcc-arm-none-eabi-8-2019-q3/build/arm-none-eabi/arm/v5te/hard/libgcc/../../../../../../libgcc/libgcc2.c:997
    9c4c:	e0a11005 	adc	r1, r1, r5
/build/gcc-arm-none-eabi-zSbVfn/gcc-arm-none-eabi-8-2019-q3/build/arm-none-eabi/arm/v5te/hard/libgcc/../../../../../../libgcc/libgcc2.c:999
    9c50:	e050000c 	subs	r0, r0, ip
/build/gcc-arm-none-eabi-zSbVfn/gcc-arm-none-eabi-8-2019-q3/build/arm-none-eabi/arm/v5te/hard/libgcc/../../../../../../libgcc/libgcc2.c:998
    9c54:	e1a05002 	mov	r5, r2
/build/gcc-arm-none-eabi-zSbVfn/gcc-arm-none-eabi-8-2019-q3/build/arm-none-eabi/arm/v5te/hard/libgcc/../../../../../../libgcc/libgcc2.c:999
    9c58:	e0c11003 	sbc	r1, r1, r3
/build/gcc-arm-none-eabi-zSbVfn/gcc-arm-none-eabi-8-2019-q3/build/arm-none-eabi/arm/v5te/hard/libgcc/../../../../../../libgcc/libgcc2.c:1003
    9c5c:	e35e0000 	cmp	lr, #0
/build/gcc-arm-none-eabi-zSbVfn/gcc-arm-none-eabi-8-2019-q3/build/arm-none-eabi/arm/v5te/hard/libgcc/../../../../../../libgcc/libgcc2.c:1004
    9c60:	11ce40f0 	strdne	r4, [lr]
/build/gcc-arm-none-eabi-zSbVfn/gcc-arm-none-eabi-8-2019-q3/build/arm-none-eabi/arm/v5te/hard/libgcc/../../../../../../libgcc/libgcc2.c:1006
    9c64:	e8bd8ff0 	pop	{r4, r5, r6, r7, r8, r9, sl, fp, pc}
