
./user_task:     file format elf32-littlearm


Disassembly of section .text:

00008000 <_start>:
_start():
/home/hintik/dev/final/src/sources/userspace/crt0.s:10
;@ startovaci symbol - vstupni bod z jadra OS do uzivatelskeho programu
;@ v podstate jen ihned zavola nejakou C funkci, nepotrebujeme nic tak kritickeho, abychom to vsechno museli psal v ASM
;@ jen _start vlastne ani neni funkce, takze by tento vstupni bod mel byt psany takto; rovnez je treba se ujistit, ze
;@ je tento symbol relokovany spravne na 0x8000 (tam OS ocekava, ze se nachazi vstupni bod)
_start:
    bl __crt0_run
    8000:	eb000016 	bl	8060 <__crt0_run>

00008004 <_hang>:
_hang():
/home/hintik/dev/final/src/sources/userspace/crt0.s:13
    ;@ z funkce __crt0_run by se nemel proces uz vratit, ale kdyby neco, tak se zacyklime
_hang:
    b _hang
    8004:	eafffffe 	b	8004 <_hang>

00008008 <__crt0_init_bss>:
__crt0_init_bss():
/home/hintik/dev/final/src/sources/userspace/crt0.c:10

extern unsigned int __bss_start;
extern unsigned int __bss_end;

void __crt0_init_bss()
{
    8008:	e52db004 	push	{fp}		; (str fp, [sp, #-4]!)
    800c:	e28db000 	add	fp, sp, #0
    8010:	e24dd00c 	sub	sp, sp, #12
/home/hintik/dev/final/src/sources/userspace/crt0.c:11
    for (unsigned int* cur = &__bss_start; cur < &__bss_end; cur++)
    8014:	e59f303c 	ldr	r3, [pc, #60]	; 8058 <__crt0_init_bss+0x50>
    8018:	e50b3008 	str	r3, [fp, #-8]
    801c:	ea000005 	b	8038 <__crt0_init_bss+0x30>
/home/hintik/dev/final/src/sources/userspace/crt0.c:12 (discriminator 3)
        *cur = 0;
    8020:	e51b3008 	ldr	r3, [fp, #-8]
    8024:	e3a02000 	mov	r2, #0
    8028:	e5832000 	str	r2, [r3]
/home/hintik/dev/final/src/sources/userspace/crt0.c:11 (discriminator 3)
    for (unsigned int* cur = &__bss_start; cur < &__bss_end; cur++)
    802c:	e51b3008 	ldr	r3, [fp, #-8]
    8030:	e2833004 	add	r3, r3, #4
    8034:	e50b3008 	str	r3, [fp, #-8]
/home/hintik/dev/final/src/sources/userspace/crt0.c:11 (discriminator 1)
    8038:	e51b3008 	ldr	r3, [fp, #-8]
    803c:	e59f2018 	ldr	r2, [pc, #24]	; 805c <__crt0_init_bss+0x54>
    8040:	e1530002 	cmp	r3, r2
    8044:	3afffff5 	bcc	8020 <__crt0_init_bss+0x18>
/home/hintik/dev/final/src/sources/userspace/crt0.c:13
}
    8048:	e320f000 	nop	{0}
    804c:	e28bd000 	add	sp, fp, #0
    8050:	e49db004 	pop	{fp}		; (ldr fp, [sp], #4)
    8054:	e12fff1e 	bx	lr
    8058:	0000bdd8 	ldrdeq	fp, [r0], -r8
    805c:	0000bf08 	andeq	fp, r0, r8, lsl #30

00008060 <__crt0_run>:
__crt0_run():
/home/hintik/dev/final/src/sources/userspace/crt0.c:16

void __crt0_run()
{
    8060:	e92d4800 	push	{fp, lr}
    8064:	e28db004 	add	fp, sp, #4
    8068:	e24dd008 	sub	sp, sp, #8
/home/hintik/dev/final/src/sources/userspace/crt0.c:18
    // inicializace .bss sekce (vynulovani)
    __crt0_init_bss();
    806c:	ebffffe5 	bl	8008 <__crt0_init_bss>
/home/hintik/dev/final/src/sources/userspace/crt0.c:21

    // volani konstruktoru globalnich trid (C++)
    _cpp_startup();
    8070:	eb000040 	bl	8178 <_cpp_startup>
/home/hintik/dev/final/src/sources/userspace/crt0.c:26

    // volani funkce main
    // nebudeme se zde zabyvat predavanim parametru do funkce main
    // jinak by se mohly predavat napr. namapovane do virtualniho adr. prostoru a odkazem pres zasobnik (kam nam muze OS pushnout co chce)
    int result = main(0, 0);
    8074:	e3a01000 	mov	r1, #0
    8078:	e3a00000 	mov	r0, #0
    807c:	eb0004a2 	bl	930c <main>
    8080:	e50b0008 	str	r0, [fp, #-8]
/home/hintik/dev/final/src/sources/userspace/crt0.c:29

    // volani destruktoru globalnich trid (C++)
    _cpp_shutdown();
    8084:	eb000051 	bl	81d0 <_cpp_shutdown>
/home/hintik/dev/final/src/sources/userspace/crt0.c:32

    // volani terminate() syscallu s navratovym kodem funkce main
    asm volatile("mov r0, %0" : : "r" (result));
    8088:	e51b3008 	ldr	r3, [fp, #-8]
    808c:	e1a00003 	mov	r0, r3
/home/hintik/dev/final/src/sources/userspace/crt0.c:33
    asm volatile("svc #1");
    8090:	ef000001 	svc	0x00000001
/home/hintik/dev/final/src/sources/userspace/crt0.c:34
}
    8094:	e320f000 	nop	{0}
    8098:	e24bd004 	sub	sp, fp, #4
    809c:	e8bd8800 	pop	{fp, pc}

000080a0 <__cxa_guard_acquire>:
__cxa_guard_acquire():
/home/hintik/dev/final/src/sources/userspace/cxxabi.cpp:11
	extern "C" int __cxa_guard_acquire (__guard *);
	extern "C" void __cxa_guard_release (__guard *);
	extern "C" void __cxa_guard_abort (__guard *);

	extern "C" int __cxa_guard_acquire (__guard *g)
	{
    80a0:	e52db004 	push	{fp}		; (str fp, [sp, #-4]!)
    80a4:	e28db000 	add	fp, sp, #0
    80a8:	e24dd00c 	sub	sp, sp, #12
    80ac:	e50b0008 	str	r0, [fp, #-8]
/home/hintik/dev/final/src/sources/userspace/cxxabi.cpp:12
		return !*(char *)(g);
    80b0:	e51b3008 	ldr	r3, [fp, #-8]
    80b4:	e5d33000 	ldrb	r3, [r3]
    80b8:	e3530000 	cmp	r3, #0
    80bc:	03a03001 	moveq	r3, #1
    80c0:	13a03000 	movne	r3, #0
    80c4:	e6ef3073 	uxtb	r3, r3
/home/hintik/dev/final/src/sources/userspace/cxxabi.cpp:13
	}
    80c8:	e1a00003 	mov	r0, r3
    80cc:	e28bd000 	add	sp, fp, #0
    80d0:	e49db004 	pop	{fp}		; (ldr fp, [sp], #4)
    80d4:	e12fff1e 	bx	lr

000080d8 <__cxa_guard_release>:
__cxa_guard_release():
/home/hintik/dev/final/src/sources/userspace/cxxabi.cpp:16

	extern "C" void __cxa_guard_release (__guard *g)
	{
    80d8:	e52db004 	push	{fp}		; (str fp, [sp, #-4]!)
    80dc:	e28db000 	add	fp, sp, #0
    80e0:	e24dd00c 	sub	sp, sp, #12
    80e4:	e50b0008 	str	r0, [fp, #-8]
/home/hintik/dev/final/src/sources/userspace/cxxabi.cpp:17
		*(char *)g = 1;
    80e8:	e51b3008 	ldr	r3, [fp, #-8]
    80ec:	e3a02001 	mov	r2, #1
    80f0:	e5c32000 	strb	r2, [r3]
/home/hintik/dev/final/src/sources/userspace/cxxabi.cpp:18
	}
    80f4:	e320f000 	nop	{0}
    80f8:	e28bd000 	add	sp, fp, #0
    80fc:	e49db004 	pop	{fp}		; (ldr fp, [sp], #4)
    8100:	e12fff1e 	bx	lr

00008104 <__cxa_guard_abort>:
__cxa_guard_abort():
/home/hintik/dev/final/src/sources/userspace/cxxabi.cpp:21

	extern "C" void __cxa_guard_abort (__guard *)
	{
    8104:	e52db004 	push	{fp}		; (str fp, [sp, #-4]!)
    8108:	e28db000 	add	fp, sp, #0
    810c:	e24dd00c 	sub	sp, sp, #12
    8110:	e50b0008 	str	r0, [fp, #-8]
/home/hintik/dev/final/src/sources/userspace/cxxabi.cpp:23

	}
    8114:	e320f000 	nop	{0}
    8118:	e28bd000 	add	sp, fp, #0
    811c:	e49db004 	pop	{fp}		; (ldr fp, [sp], #4)
    8120:	e12fff1e 	bx	lr

00008124 <__dso_handle>:
__dso_handle():
/home/hintik/dev/final/src/sources/userspace/cxxabi.cpp:27
}

extern "C" void __dso_handle()
{
    8124:	e52db004 	push	{fp}		; (str fp, [sp, #-4]!)
    8128:	e28db000 	add	fp, sp, #0
/home/hintik/dev/final/src/sources/userspace/cxxabi.cpp:29
    // ignore dtors for now
}
    812c:	e320f000 	nop	{0}
    8130:	e28bd000 	add	sp, fp, #0
    8134:	e49db004 	pop	{fp}		; (ldr fp, [sp], #4)
    8138:	e12fff1e 	bx	lr

0000813c <__cxa_atexit>:
__cxa_atexit():
/home/hintik/dev/final/src/sources/userspace/cxxabi.cpp:32

extern "C" void __cxa_atexit()
{
    813c:	e52db004 	push	{fp}		; (str fp, [sp, #-4]!)
    8140:	e28db000 	add	fp, sp, #0
/home/hintik/dev/final/src/sources/userspace/cxxabi.cpp:34
    // ignore dtors for now
}
    8144:	e320f000 	nop	{0}
    8148:	e28bd000 	add	sp, fp, #0
    814c:	e49db004 	pop	{fp}		; (ldr fp, [sp], #4)
    8150:	e12fff1e 	bx	lr

00008154 <__cxa_pure_virtual>:
__cxa_pure_virtual():
/home/hintik/dev/final/src/sources/userspace/cxxabi.cpp:37

extern "C" void __cxa_pure_virtual()
{
    8154:	e52db004 	push	{fp}		; (str fp, [sp, #-4]!)
    8158:	e28db000 	add	fp, sp, #0
/home/hintik/dev/final/src/sources/userspace/cxxabi.cpp:39
    // pure virtual method called
}
    815c:	e320f000 	nop	{0}
    8160:	e28bd000 	add	sp, fp, #0
    8164:	e49db004 	pop	{fp}		; (ldr fp, [sp], #4)
    8168:	e12fff1e 	bx	lr

0000816c <__aeabi_unwind_cpp_pr1>:
__aeabi_unwind_cpp_pr1():
/home/hintik/dev/final/src/sources/userspace/cxxabi.cpp:42

extern "C" void __aeabi_unwind_cpp_pr1()
{
    816c:	e52db004 	push	{fp}		; (str fp, [sp, #-4]!)
    8170:	e28db000 	add	fp, sp, #0
/home/hintik/dev/final/src/sources/userspace/cxxabi.cpp:43 (discriminator 1)
	while (true)
    8174:	eafffffe 	b	8174 <__aeabi_unwind_cpp_pr1+0x8>

00008178 <_cpp_startup>:
_cpp_startup():
/home/hintik/dev/final/src/sources/userspace/cxxabi.cpp:61
extern "C" dtor_ptr __DTOR_LIST__[0];
// konec pole destruktoru
extern "C" dtor_ptr __DTOR_END__[0];

extern "C" int _cpp_startup(void)
{
    8178:	e92d4800 	push	{fp, lr}
    817c:	e28db004 	add	fp, sp, #4
    8180:	e24dd008 	sub	sp, sp, #8
/home/hintik/dev/final/src/sources/userspace/cxxabi.cpp:66
	ctor_ptr* fnptr;
	
	// zavolame konstruktory globalnich C++ trid
	// v poli __CTOR_LIST__ jsou ukazatele na vygenerovane stuby volani konstruktoru
	for (fnptr = __CTOR_LIST__; fnptr < __CTOR_END__; fnptr++)
    8184:	e59f303c 	ldr	r3, [pc, #60]	; 81c8 <_cpp_startup+0x50>
    8188:	e50b3008 	str	r3, [fp, #-8]
/home/hintik/dev/final/src/sources/userspace/cxxabi.cpp:66 (discriminator 3)
    818c:	e51b3008 	ldr	r3, [fp, #-8]
    8190:	e59f2034 	ldr	r2, [pc, #52]	; 81cc <_cpp_startup+0x54>
    8194:	e1530002 	cmp	r3, r2
    8198:	2a000006 	bcs	81b8 <_cpp_startup+0x40>
/home/hintik/dev/final/src/sources/userspace/cxxabi.cpp:67 (discriminator 2)
		(*fnptr)();
    819c:	e51b3008 	ldr	r3, [fp, #-8]
    81a0:	e5933000 	ldr	r3, [r3]
    81a4:	e12fff33 	blx	r3
/home/hintik/dev/final/src/sources/userspace/cxxabi.cpp:66 (discriminator 2)
	for (fnptr = __CTOR_LIST__; fnptr < __CTOR_END__; fnptr++)
    81a8:	e51b3008 	ldr	r3, [fp, #-8]
    81ac:	e2833004 	add	r3, r3, #4
    81b0:	e50b3008 	str	r3, [fp, #-8]
    81b4:	eafffff4 	b	818c <_cpp_startup+0x14>
/home/hintik/dev/final/src/sources/userspace/cxxabi.cpp:69
	
	return 0;
    81b8:	e3a03000 	mov	r3, #0
/home/hintik/dev/final/src/sources/userspace/cxxabi.cpp:70
}
    81bc:	e1a00003 	mov	r0, r3
    81c0:	e24bd004 	sub	sp, fp, #4
    81c4:	e8bd8800 	pop	{fp, pc}
    81c8:	0000bdd0 	ldrdeq	fp, [r0], -r0
    81cc:	0000bdd8 	ldrdeq	fp, [r0], -r8

000081d0 <_cpp_shutdown>:
_cpp_shutdown():
/home/hintik/dev/final/src/sources/userspace/cxxabi.cpp:73

extern "C" int _cpp_shutdown(void)
{
    81d0:	e92d4800 	push	{fp, lr}
    81d4:	e28db004 	add	fp, sp, #4
    81d8:	e24dd008 	sub	sp, sp, #8
/home/hintik/dev/final/src/sources/userspace/cxxabi.cpp:77
	dtor_ptr* fnptr;
	
	// zavolame destruktory globalnich C++ trid
	for (fnptr = __DTOR_LIST__; fnptr < __DTOR_END__; fnptr++)
    81dc:	e59f303c 	ldr	r3, [pc, #60]	; 8220 <_cpp_shutdown+0x50>
    81e0:	e50b3008 	str	r3, [fp, #-8]
/home/hintik/dev/final/src/sources/userspace/cxxabi.cpp:77 (discriminator 3)
    81e4:	e51b3008 	ldr	r3, [fp, #-8]
    81e8:	e59f2034 	ldr	r2, [pc, #52]	; 8224 <_cpp_shutdown+0x54>
    81ec:	e1530002 	cmp	r3, r2
    81f0:	2a000006 	bcs	8210 <_cpp_shutdown+0x40>
/home/hintik/dev/final/src/sources/userspace/cxxabi.cpp:78 (discriminator 2)
		(*fnptr)();
    81f4:	e51b3008 	ldr	r3, [fp, #-8]
    81f8:	e5933000 	ldr	r3, [r3]
    81fc:	e12fff33 	blx	r3
/home/hintik/dev/final/src/sources/userspace/cxxabi.cpp:77 (discriminator 2)
	for (fnptr = __DTOR_LIST__; fnptr < __DTOR_END__; fnptr++)
    8200:	e51b3008 	ldr	r3, [fp, #-8]
    8204:	e2833004 	add	r3, r3, #4
    8208:	e50b3008 	str	r3, [fp, #-8]
    820c:	eafffff4 	b	81e4 <_cpp_shutdown+0x14>
/home/hintik/dev/final/src/sources/userspace/cxxabi.cpp:80
	
	return 0;
    8210:	e3a03000 	mov	r3, #0
/home/hintik/dev/final/src/sources/userspace/cxxabi.cpp:81
}
    8214:	e1a00003 	mov	r0, r3
    8218:	e24bd004 	sub	sp, fp, #4
    821c:	e8bd8800 	pop	{fp, pc}
    8220:	0000bdd8 	ldrdeq	fp, [r0], -r8
    8224:	0000bdd8 	ldrdeq	fp, [r0], -r8

00008228 <_Z3absd>:
_Z3absd():
/home/hintik/dev/final/src/sources/userspace/user_task/main.cpp:21

void Quicksort(Parameters v[], int start, int end);

unsigned int rand(uint32_t file, uint32_t output_start, uint32_t output_end);

double abs(double x) {
    8228:	e52db004 	push	{fp}		; (str fp, [sp, #-4]!)
    822c:	e28db000 	add	fp, sp, #0
    8230:	e24dd00c 	sub	sp, sp, #12
    8234:	ed0b0b03 	vstr	d0, [fp, #-12]
/home/hintik/dev/final/src/sources/userspace/user_task/main.cpp:22
    return x < 0 ? -x : x;
    8238:	ed1b7b03 	vldr	d7, [fp, #-12]
    823c:	eeb57bc0 	vcmpe.f64	d7, #0.0
    8240:	eef1fa10 	vmrs	APSR_nzcv, fpscr
    8244:	5a000002 	bpl	8254 <_Z3absd+0x2c>
/home/hintik/dev/final/src/sources/userspace/user_task/main.cpp:22 (discriminator 1)
    8248:	ed1b7b03 	vldr	d7, [fp, #-12]
    824c:	eeb17b47 	vneg.f64	d7, d7
    8250:	ea000000 	b	8258 <_Z3absd+0x30>
/home/hintik/dev/final/src/sources/userspace/user_task/main.cpp:22 (discriminator 2)
    8254:	ed1b7b03 	vldr	d7, [fp, #-12]
/home/hintik/dev/final/src/sources/userspace/user_task/main.cpp:23 (discriminator 5)
}
    8258:	eeb00b47 	vmov.f64	d0, d7
    825c:	e28bd000 	add	sp, fp, #0
    8260:	e49db004 	pop	{fp}		; (ldr fp, [sp], #4)
    8264:	e12fff1e 	bx	lr

00008268 <_ZL5fputsjPKc>:
_ZL5fputsjPKc():
/home/hintik/dev/final/src/sources/userspace/user_task/main.cpp:52

        return ans;
    }
};

static void fputs(uint32_t file, const char *string) {
    8268:	e92d4800 	push	{fp, lr}
    826c:	e28db004 	add	fp, sp, #4
    8270:	e24dd008 	sub	sp, sp, #8
    8274:	e50b0008 	str	r0, [fp, #-8]
    8278:	e50b100c 	str	r1, [fp, #-12]
/home/hintik/dev/final/src/sources/userspace/user_task/main.cpp:53
    write(file, string, strlen(string));
    827c:	e51b000c 	ldr	r0, [fp, #-12]
    8280:	eb000aa4 	bl	ad18 <_Z6strlenPKc>
    8284:	e1a03000 	mov	r3, r0
    8288:	e1a02003 	mov	r2, r3
    828c:	e51b100c 	ldr	r1, [fp, #-12]
    8290:	e51b0008 	ldr	r0, [fp, #-8]
    8294:	eb00064e 	bl	9bd4 <_Z5writejPKcj>
/home/hintik/dev/final/src/sources/userspace/user_task/main.cpp:54
}
    8298:	e320f000 	nop	{0}
    829c:	e24bd004 	sub	sp, fp, #4
    82a0:	e8bd8800 	pop	{fp, pc}

000082a4 <_ZL5fgetsjPci>:
_ZL5fgetsjPci():
/home/hintik/dev/final/src/sources/userspace/user_task/main.cpp:56

static void fgets(uint32_t file, char *buf, int size) {
    82a4:	e92d4800 	push	{fp, lr}
    82a8:	e28db004 	add	fp, sp, #4
    82ac:	e24dd010 	sub	sp, sp, #16
    82b0:	e50b0008 	str	r0, [fp, #-8]
    82b4:	e50b100c 	str	r1, [fp, #-12]
    82b8:	e50b2010 	str	r2, [fp, #-16]
/home/hintik/dev/final/src/sources/userspace/user_task/main.cpp:57
    read(file, buf, size);
    82bc:	e51b3010 	ldr	r3, [fp, #-16]
    82c0:	e1a02003 	mov	r2, r3
    82c4:	e51b100c 	ldr	r1, [fp, #-12]
    82c8:	e51b0008 	ldr	r0, [fp, #-8]
    82cc:	eb00062c 	bl	9b84 <_Z4readjPcj>
/home/hintik/dev/final/src/sources/userspace/user_task/main.cpp:58
}
    82d0:	e320f000 	nop	{0}
    82d4:	e24bd004 	sub	sp, fp, #4
    82d8:	e8bd8800 	pop	{fp, pc}

000082dc <_Z11await_inputjPc>:
_Z11await_inputjPc():
/home/hintik/dev/final/src/sources/userspace/user_task/main.cpp:65
/**
 * Cteni radky vstupu
 * @param file
 * @param buffer
 */
void await_input(uint32_t file, char *buffer) {
    82dc:	e92d4800 	push	{fp, lr}
    82e0:	e28db004 	add	fp, sp, #4
    82e4:	e24dd018 	sub	sp, sp, #24
    82e8:	e50b0018 	str	r0, [fp, #-24]	; 0xffffffe8
    82ec:	e50b101c 	str	r1, [fp, #-28]	; 0xffffffe4
/home/hintik/dev/final/src/sources/userspace/user_task/main.cpp:66
    char *buf = new char[1];
    82f0:	e3a00001 	mov	r0, #1
    82f4:	eb0004e9 	bl	96a0 <_Znaj>
    82f8:	e1a03000 	mov	r3, r0
    82fc:	e50b300c 	str	r3, [fp, #-12]
/home/hintik/dev/final/src/sources/userspace/user_task/main.cpp:69

    double input;
    fputs(file, ">");
    8300:	e59f10d0 	ldr	r1, [pc, #208]	; 83d8 <_Z11await_inputjPc+0xfc>
    8304:	e51b0018 	ldr	r0, [fp, #-24]	; 0xffffffe8
    8308:	ebffffd6 	bl	8268 <_ZL5fputsjPKc>
/home/hintik/dev/final/src/sources/userspace/user_task/main.cpp:72

    while (1) {
        fgets(file, buf, 1);
    830c:	e3a02001 	mov	r2, #1
    8310:	e51b100c 	ldr	r1, [fp, #-12]
    8314:	e51b0018 	ldr	r0, [fp, #-24]	; 0xffffffe8
    8318:	ebffffe1 	bl	82a4 <_ZL5fgetsjPci>
/home/hintik/dev/final/src/sources/userspace/user_task/main.cpp:73
        if (buf[0] == '\r') //buf[0] == '\u000D' | buf[0] == '\x0D' | buf[0] == '\015'|
    831c:	e51b300c 	ldr	r3, [fp, #-12]
    8320:	e5d33000 	ldrb	r3, [r3]
    8324:	e353000d 	cmp	r3, #13
    8328:	1a00001e 	bne	83a8 <_Z11await_inputjPc+0xcc>
/home/hintik/dev/final/src/sources/userspace/user_task/main.cpp:75
        {
            fputs(file, "\n");
    832c:	e59f10a8 	ldr	r1, [pc, #168]	; 83dc <_Z11await_inputjPc+0x100>
    8330:	e51b0018 	ldr	r0, [fp, #-24]	; 0xffffffe8
    8334:	ebffffcb 	bl	8268 <_ZL5fputsjPKc>
/home/hintik/dev/final/src/sources/userspace/user_task/main.cpp:76
            int i = circBuffer.GetDifference();
    8338:	e59f00a0 	ldr	r0, [pc, #160]	; 83e0 <_Z11await_inputjPc+0x104>
    833c:	eb000579 	bl	9928 <_ZN6Buffer13GetDifferenceEv>
    8340:	e50b0010 	str	r0, [fp, #-16]
/home/hintik/dev/final/src/sources/userspace/user_task/main.cpp:77
            for (int x = 0; x < i; x++) {
    8344:	e3a03000 	mov	r3, #0
    8348:	e50b3008 	str	r3, [fp, #-8]
/home/hintik/dev/final/src/sources/userspace/user_task/main.cpp:77 (discriminator 3)
    834c:	e51b2008 	ldr	r2, [fp, #-8]
    8350:	e51b3010 	ldr	r3, [fp, #-16]
    8354:	e1520003 	cmp	r2, r3
    8358:	aa00000c 	bge	8390 <_Z11await_inputjPc+0xb4>
/home/hintik/dev/final/src/sources/userspace/user_task/main.cpp:78 (discriminator 2)
                char out = circBuffer.Pull();
    835c:	e59f007c 	ldr	r0, [pc, #124]	; 83e0 <_Z11await_inputjPc+0x104>
    8360:	eb000595 	bl	99bc <_ZN6Buffer4PullEv>
    8364:	e1a03000 	mov	r3, r0
    8368:	e54b3011 	strb	r3, [fp, #-17]	; 0xffffffef
/home/hintik/dev/final/src/sources/userspace/user_task/main.cpp:79 (discriminator 2)
                buffer[x] = out;
    836c:	e51b3008 	ldr	r3, [fp, #-8]
    8370:	e51b201c 	ldr	r2, [fp, #-28]	; 0xffffffe4
    8374:	e0823003 	add	r3, r2, r3
    8378:	e55b2011 	ldrb	r2, [fp, #-17]	; 0xffffffef
    837c:	e5c32000 	strb	r2, [r3]
/home/hintik/dev/final/src/sources/userspace/user_task/main.cpp:77 (discriminator 2)
            for (int x = 0; x < i; x++) {
    8380:	e51b3008 	ldr	r3, [fp, #-8]
    8384:	e2833001 	add	r3, r3, #1
    8388:	e50b3008 	str	r3, [fp, #-8]
    838c:	eaffffee 	b	834c <_Z11await_inputjPc+0x70>
/home/hintik/dev/final/src/sources/userspace/user_task/main.cpp:82
                //fputs(uart_file, &out); // zopakuje zadany vstup
            }
            buffer[i] = '\0';
    8390:	e51b3010 	ldr	r3, [fp, #-16]
    8394:	e51b201c 	ldr	r2, [fp, #-28]	; 0xffffffe4
    8398:	e0823003 	add	r3, r2, r3
    839c:	e3a02000 	mov	r2, #0
    83a0:	e5c32000 	strb	r2, [r3]
/home/hintik/dev/final/src/sources/userspace/user_task/main.cpp:83
            break;
    83a4:	ea000008 	b	83cc <_Z11await_inputjPc+0xf0>
/home/hintik/dev/final/src/sources/userspace/user_task/main.cpp:85
        }
        circBuffer.Push(buf[0]);
    83a8:	e51b300c 	ldr	r3, [fp, #-12]
    83ac:	e5d33000 	ldrb	r3, [r3]
    83b0:	e1a01003 	mov	r1, r3
    83b4:	e59f0024 	ldr	r0, [pc, #36]	; 83e0 <_Z11await_inputjPc+0x104>
    83b8:	eb000567 	bl	995c <_ZN6Buffer4PushEc>
/home/hintik/dev/final/src/sources/userspace/user_task/main.cpp:86
        fputs(file, buf);
    83bc:	e51b100c 	ldr	r1, [fp, #-12]
    83c0:	e51b0018 	ldr	r0, [fp, #-24]	; 0xffffffe8
    83c4:	ebffffa7 	bl	8268 <_ZL5fputsjPKc>
/home/hintik/dev/final/src/sources/userspace/user_task/main.cpp:87
    }
    83c8:	eaffffcf 	b	830c <_Z11await_inputjPc+0x30>
/home/hintik/dev/final/src/sources/userspace/user_task/main.cpp:88
}
    83cc:	e320f000 	nop	{0}
    83d0:	e24bd004 	sub	sp, fp, #4
    83d4:	e8bd8800 	pop	{fp, pc}
    83d8:	0000bb7c 	andeq	fp, r0, ip, ror fp
    83dc:	0000bb80 	andeq	fp, r0, r0, lsl #23
    83e0:	0000bdd8 	ldrdeq	fp, [r0], -r8

000083e4 <_Z20print_int_value_linejPKciS0_>:
_Z20print_int_value_linejPKciS0_():
/home/hintik/dev/final/src/sources/userspace/user_task/main.cpp:96
 * Vypsani celeho cisla
 * @param file
 * @param label
 * @param value
 */
void print_int_value_line(uint32_t file, const char *prefix, int value, const char *suffix) {
    83e4:	e92d4800 	push	{fp, lr}
    83e8:	e28db004 	add	fp, sp, #4
    83ec:	e24dd048 	sub	sp, sp, #72	; 0x48
    83f0:	e50b0040 	str	r0, [fp, #-64]	; 0xffffffc0
    83f4:	e50b1044 	str	r1, [fp, #-68]	; 0xffffffbc
    83f8:	e50b2048 	str	r2, [fp, #-72]	; 0xffffffb8
    83fc:	e50b304c 	str	r3, [fp, #-76]	; 0xffffffb4
/home/hintik/dev/final/src/sources/userspace/user_task/main.cpp:99
    char buffer[50];

    fputs(file, prefix);
    8400:	e51b1044 	ldr	r1, [fp, #-68]	; 0xffffffbc
    8404:	e51b0040 	ldr	r0, [fp, #-64]	; 0xffffffc0
    8408:	ebffff96 	bl	8268 <_ZL5fputsjPKc>
/home/hintik/dev/final/src/sources/userspace/user_task/main.cpp:100
    itoa(value, buffer, 10);
    840c:	e51b3048 	ldr	r3, [fp, #-72]	; 0xffffffb8
    8410:	e24b1038 	sub	r1, fp, #56	; 0x38
    8414:	e3a0200a 	mov	r2, #10
    8418:	e1a00003 	mov	r0, r3
    841c:	eb00095e 	bl	a99c <_Z4itoajPcj>
/home/hintik/dev/final/src/sources/userspace/user_task/main.cpp:101
    fputs(file, buffer);
    8420:	e24b3038 	sub	r3, fp, #56	; 0x38
    8424:	e1a01003 	mov	r1, r3
    8428:	e51b0040 	ldr	r0, [fp, #-64]	; 0xffffffc0
    842c:	ebffff8d 	bl	8268 <_ZL5fputsjPKc>
/home/hintik/dev/final/src/sources/userspace/user_task/main.cpp:102
    fputs(file, suffix);
    8430:	e51b104c 	ldr	r1, [fp, #-76]	; 0xffffffb4
    8434:	e51b0040 	ldr	r0, [fp, #-64]	; 0xffffffc0
    8438:	ebffff8a 	bl	8268 <_ZL5fputsjPKc>
/home/hintik/dev/final/src/sources/userspace/user_task/main.cpp:103
}
    843c:	e320f000 	nop	{0}
    8440:	e24bd004 	sub	sp, fp, #4
    8444:	e8bd8800 	pop	{fp, pc}

00008448 <_Z22print_float_value_linejPKcfS0_>:
_Z22print_float_value_linejPKcfS0_():
/home/hintik/dev/final/src/sources/userspace/user_task/main.cpp:111
 * Vyspani cisla s desetinnou teckou
 * @param file
 * @param label
 * @param value
 */
void print_float_value_line(uint32_t file, const char *prefix, float value, const char *suffix) {
    8448:	e92d4800 	push	{fp, lr}
    844c:	e28db004 	add	fp, sp, #4
    8450:	e24dd048 	sub	sp, sp, #72	; 0x48
    8454:	e50b0040 	str	r0, [fp, #-64]	; 0xffffffc0
    8458:	e50b1044 	str	r1, [fp, #-68]	; 0xffffffbc
    845c:	ed0b0a12 	vstr	s0, [fp, #-72]	; 0xffffffb8
    8460:	e50b204c 	str	r2, [fp, #-76]	; 0xffffffb4
/home/hintik/dev/final/src/sources/userspace/user_task/main.cpp:114
    char buffer[50];

    fputs(file, prefix);
    8464:	e51b1044 	ldr	r1, [fp, #-68]	; 0xffffffbc
    8468:	e51b0040 	ldr	r0, [fp, #-64]	; 0xffffffc0
    846c:	ebffff7d 	bl	8268 <_ZL5fputsjPKc>
/home/hintik/dev/final/src/sources/userspace/user_task/main.cpp:115
    ftoa(value, buffer);
    8470:	e24b3038 	sub	r3, fp, #56	; 0x38
    8474:	e1a00003 	mov	r0, r3
    8478:	ed1b0a12 	vldr	s0, [fp, #-72]	; 0xffffffb8
    847c:	eb0007d1 	bl	a3c8 <_Z4ftoafPc>
/home/hintik/dev/final/src/sources/userspace/user_task/main.cpp:116
    fputs(file, buffer);
    8480:	e24b3038 	sub	r3, fp, #56	; 0x38
    8484:	e1a01003 	mov	r1, r3
    8488:	e51b0040 	ldr	r0, [fp, #-64]	; 0xffffffc0
    848c:	ebffff75 	bl	8268 <_ZL5fputsjPKc>
/home/hintik/dev/final/src/sources/userspace/user_task/main.cpp:117
    fputs(file, suffix);
    8490:	e51b104c 	ldr	r1, [fp, #-76]	; 0xffffffb4
    8494:	e51b0040 	ldr	r0, [fp, #-64]	; 0xffffffc0
    8498:	ebffff72 	bl	8268 <_ZL5fputsjPKc>
/home/hintik/dev/final/src/sources/userspace/user_task/main.cpp:118
}
    849c:	e320f000 	nop	{0}
    84a0:	e24bd004 	sub	sp, fp, #4
    84a4:	e8bd8800 	pop	{fp, pc}

000084a8 <_Z12read_integerjPc>:
_Z12read_integerjPc():
/home/hintik/dev/final/src/sources/userspace/user_task/main.cpp:126
 * Cteni celeho cisla ze vstupu
 * @param file
 * @param input_buffer
 * @return
 */
int read_integer(uint32_t file, char *input_buffer) {
    84a8:	e92d4800 	push	{fp, lr}
    84ac:	e28db004 	add	fp, sp, #4
    84b0:	e24dd008 	sub	sp, sp, #8
    84b4:	e50b0008 	str	r0, [fp, #-8]
    84b8:	e50b100c 	str	r1, [fp, #-12]
/home/hintik/dev/final/src/sources/userspace/user_task/main.cpp:128
    while (1) {
        await_input(file, input_buffer);
    84bc:	e51b100c 	ldr	r1, [fp, #-12]
    84c0:	e51b0008 	ldr	r0, [fp, #-8]
    84c4:	ebffff84 	bl	82dc <_Z11await_inputjPc>
/home/hintik/dev/final/src/sources/userspace/user_task/main.cpp:129
        if (!is_decimal(input_buffer)) {
    84c8:	e51b000c 	ldr	r0, [fp, #-12]
    84cc:	eb000a92 	bl	af1c <_Z10is_decimalPKc>
    84d0:	e1a03000 	mov	r3, r0
    84d4:	e2233001 	eor	r3, r3, #1
    84d8:	e6ef3073 	uxtb	r3, r3
    84dc:	e3530000 	cmp	r3, #0
    84e0:	0a000003 	beq	84f4 <_Z12read_integerjPc+0x4c>
/home/hintik/dev/final/src/sources/userspace/user_task/main.cpp:130 (discriminator 1)
            fputs(file, "Nesprávný vstup. Zadejte celočíselnou hodnotu.\n");
    84e4:	e59f1028 	ldr	r1, [pc, #40]	; 8514 <_Z12read_integerjPc+0x6c>
    84e8:	e51b0008 	ldr	r0, [fp, #-8]
    84ec:	ebffff5d 	bl	8268 <_ZL5fputsjPKc>
/home/hintik/dev/final/src/sources/userspace/user_task/main.cpp:131 (discriminator 1)
            continue;
    84f0:	ea000003 	b	8504 <_Z12read_integerjPc+0x5c>
/home/hintik/dev/final/src/sources/userspace/user_task/main.cpp:134
        }

        return atoi(input_buffer);
    84f4:	e51b000c 	ldr	r0, [fp, #-12]
    84f8:	eb000984 	bl	ab10 <_Z4atoiPKc>
    84fc:	e1a03000 	mov	r3, r0
    8500:	ea000000 	b	8508 <_Z12read_integerjPc+0x60>
/home/hintik/dev/final/src/sources/userspace/user_task/main.cpp:128
        await_input(file, input_buffer);
    8504:	eaffffec 	b	84bc <_Z12read_integerjPc+0x14>
/home/hintik/dev/final/src/sources/userspace/user_task/main.cpp:136 (discriminator 1)
    }
}
    8508:	e1a00003 	mov	r0, r3
    850c:	e24bd004 	sub	sp, fp, #4
    8510:	e8bd8800 	pop	{fp, pc}
    8514:	0000bb84 	andeq	fp, r0, r4, lsl #23

00008518 <_Z10read_floatjPc>:
_Z10read_floatjPc():
/home/hintik/dev/final/src/sources/userspace/user_task/main.cpp:144
 * Cteni cisla s pohyblivou desetinnou teckou ze vstupu
 * @param file
 * @param input_buffer
 * @return
 */
float read_float(uint32_t file, char *input_buffer) {
    8518:	e92d4800 	push	{fp, lr}
    851c:	e28db004 	add	fp, sp, #4
    8520:	e24dd008 	sub	sp, sp, #8
    8524:	e50b0008 	str	r0, [fp, #-8]
    8528:	e50b100c 	str	r1, [fp, #-12]
/home/hintik/dev/final/src/sources/userspace/user_task/main.cpp:146
    while (1) {
        await_input(file, input_buffer);
    852c:	e51b100c 	ldr	r1, [fp, #-12]
    8530:	e51b0008 	ldr	r0, [fp, #-8]
    8534:	ebffff68 	bl	82dc <_Z11await_inputjPc>
/home/hintik/dev/final/src/sources/userspace/user_task/main.cpp:147
        if (!is_float(input_buffer)) {
    8538:	e51b000c 	ldr	r0, [fp, #-12]
    853c:	eb000abc 	bl	b034 <_Z8is_floatPKc>
    8540:	e1a03000 	mov	r3, r0
    8544:	e2233001 	eor	r3, r3, #1
    8548:	e6ef3073 	uxtb	r3, r3
    854c:	e3530000 	cmp	r3, #0
    8550:	0a000003 	beq	8564 <_Z10read_floatjPc+0x4c>
/home/hintik/dev/final/src/sources/userspace/user_task/main.cpp:148 (discriminator 1)
            fputs(file, "Nesprávný vstup. Zadejte číslo prosím.\n");
    8554:	e59f1028 	ldr	r1, [pc, #40]	; 8584 <_Z10read_floatjPc+0x6c>
    8558:	e51b0008 	ldr	r0, [fp, #-8]
    855c:	ebffff41 	bl	8268 <_ZL5fputsjPKc>
/home/hintik/dev/final/src/sources/userspace/user_task/main.cpp:149 (discriminator 1)
            continue;
    8560:	ea000003 	b	8574 <_Z10read_floatjPc+0x5c>
/home/hintik/dev/final/src/sources/userspace/user_task/main.cpp:152
        }

        return atof(input_buffer);
    8564:	e51b000c 	ldr	r0, [fp, #-12]
    8568:	eb00085e 	bl	a6e8 <_Z4atofPKc>
    856c:	eef07a40 	vmov.f32	s15, s0
    8570:	ea000000 	b	8578 <_Z10read_floatjPc+0x60>
/home/hintik/dev/final/src/sources/userspace/user_task/main.cpp:146
        await_input(file, input_buffer);
    8574:	eaffffec 	b	852c <_Z10read_floatjPc+0x14>
/home/hintik/dev/final/src/sources/userspace/user_task/main.cpp:154 (discriminator 1)
    }
}
    8578:	eeb00a67 	vmov.f32	s0, s15
    857c:	e24bd004 	sub	sp, fp, #4
    8580:	e8bd8800 	pop	{fp, pc}
    8584:	0000bbb8 			; <UNDEFINED> instruction: 0x0000bbb8

00008588 <_Z12print_paramsj10ParametersPc>:
_Z12print_paramsj10ParametersPc():
/home/hintik/dev/final/src/sources/userspace/user_task/main.cpp:162
 * Vypis parametru modelu
 * @param file
 * @param population
 * @param input_buffer
 */
void print_params(uint32_t file, Parameters population, char *input_buffer) {
    8588:	e24dd008 	sub	sp, sp, #8
    858c:	e92d4800 	push	{fp, lr}
    8590:	e28db004 	add	fp, sp, #4
    8594:	e24dd008 	sub	sp, sp, #8
    8598:	e50b0008 	str	r0, [fp, #-8]
    859c:	e28b1004 	add	r1, fp, #4
    85a0:	e881000c 	stm	r1, {r2, r3}
/home/hintik/dev/final/src/sources/userspace/user_task/main.cpp:163
    print_float_value_line(file, "A = ", population.a, ", ");
    85a4:	ed9b7b03 	vldr	d7, [fp, #12]
    85a8:	eef77bc7 	vcvt.f32.f64	s15, d7
    85ac:	e59f2090 	ldr	r2, [pc, #144]	; 8644 <_Z12print_paramsj10ParametersPc+0xbc>
    85b0:	eeb00a67 	vmov.f32	s0, s15
    85b4:	e59f108c 	ldr	r1, [pc, #140]	; 8648 <_Z12print_paramsj10ParametersPc+0xc0>
    85b8:	e51b0008 	ldr	r0, [fp, #-8]
    85bc:	ebffffa1 	bl	8448 <_Z22print_float_value_linejPKcfS0_>
/home/hintik/dev/final/src/sources/userspace/user_task/main.cpp:164
    print_float_value_line(file, "B = ", population.b, ", ");
    85c0:	ed9b7b05 	vldr	d7, [fp, #20]
    85c4:	eef77bc7 	vcvt.f32.f64	s15, d7
    85c8:	e59f2074 	ldr	r2, [pc, #116]	; 8644 <_Z12print_paramsj10ParametersPc+0xbc>
    85cc:	eeb00a67 	vmov.f32	s0, s15
    85d0:	e59f1074 	ldr	r1, [pc, #116]	; 864c <_Z12print_paramsj10ParametersPc+0xc4>
    85d4:	e51b0008 	ldr	r0, [fp, #-8]
    85d8:	ebffff9a 	bl	8448 <_Z22print_float_value_linejPKcfS0_>
/home/hintik/dev/final/src/sources/userspace/user_task/main.cpp:165
    print_float_value_line(file, "C = ", population.c, ", ");
    85dc:	ed9b7b07 	vldr	d7, [fp, #28]
    85e0:	eef77bc7 	vcvt.f32.f64	s15, d7
    85e4:	e59f2058 	ldr	r2, [pc, #88]	; 8644 <_Z12print_paramsj10ParametersPc+0xbc>
    85e8:	eeb00a67 	vmov.f32	s0, s15
    85ec:	e59f105c 	ldr	r1, [pc, #92]	; 8650 <_Z12print_paramsj10ParametersPc+0xc8>
    85f0:	e51b0008 	ldr	r0, [fp, #-8]
    85f4:	ebffff93 	bl	8448 <_Z22print_float_value_linejPKcfS0_>
/home/hintik/dev/final/src/sources/userspace/user_task/main.cpp:166
    print_float_value_line(file, "D = ", population.d, ", ");
    85f8:	ed9b7b09 	vldr	d7, [fp, #36]	; 0x24
    85fc:	eef77bc7 	vcvt.f32.f64	s15, d7
    8600:	e59f203c 	ldr	r2, [pc, #60]	; 8644 <_Z12print_paramsj10ParametersPc+0xbc>
    8604:	eeb00a67 	vmov.f32	s0, s15
    8608:	e59f1044 	ldr	r1, [pc, #68]	; 8654 <_Z12print_paramsj10ParametersPc+0xcc>
    860c:	e51b0008 	ldr	r0, [fp, #-8]
    8610:	ebffff8c 	bl	8448 <_Z22print_float_value_linejPKcfS0_>
/home/hintik/dev/final/src/sources/userspace/user_task/main.cpp:167
    print_float_value_line(file, "E = ", population.e, "\n");
    8614:	ed9b7b0b 	vldr	d7, [fp, #44]	; 0x2c
    8618:	eef77bc7 	vcvt.f32.f64	s15, d7
    861c:	e59f2034 	ldr	r2, [pc, #52]	; 8658 <_Z12print_paramsj10ParametersPc+0xd0>
    8620:	eeb00a67 	vmov.f32	s0, s15
    8624:	e59f1030 	ldr	r1, [pc, #48]	; 865c <_Z12print_paramsj10ParametersPc+0xd4>
    8628:	e51b0008 	ldr	r0, [fp, #-8]
    862c:	ebffff85 	bl	8448 <_Z22print_float_value_linejPKcfS0_>
/home/hintik/dev/final/src/sources/userspace/user_task/main.cpp:168
}
    8630:	e320f000 	nop	{0}
    8634:	e24bd004 	sub	sp, fp, #4
    8638:	e8bd4800 	pop	{fp, lr}
    863c:	e28dd008 	add	sp, sp, #8
    8640:	e12fff1e 	bx	lr
    8644:	0000bbe8 	andeq	fp, r0, r8, ror #23
    8648:	0000bbec 	andeq	fp, r0, ip, ror #23
    864c:	0000bbf4 	strdeq	fp, [r0], -r4
    8650:	0000bbfc 	strdeq	fp, [r0], -ip
    8654:	0000bc04 	andeq	fp, r0, r4, lsl #24
    8658:	0000bb80 	andeq	fp, r0, r0, lsl #23
    865c:	0000bc0c 	andeq	fp, r0, ip, lsl #24

00008660 <_Z7programj>:
_Z7programj():
/home/hintik/dev/final/src/sources/userspace/user_task/main.cpp:175
/**
 * Vstupni bod do casti programu s vypoctem
 * @param file
 * @return
 */
int program(uint32_t file) {
    8660:	e92d4bf0 	push	{r4, r5, r6, r7, r8, r9, fp, lr}
    8664:	ed2d8b08 	vpush	{d8-d11}
    8668:	e28db03c 	add	fp, sp, #60	; 0x3c
    866c:	e24ddd9a 	sub	sp, sp, #9856	; 0x2680
    8670:	e24dd020 	sub	sp, sp, #32
    8674:	e24b3a02 	sub	r3, fp, #8192	; 0x2000
    8678:	e243303c 	sub	r3, r3, #60	; 0x3c
    867c:	e503066c 	str	r0, [r3, #-1644]	; 0xfffff994
/home/hintik/dev/final/src/sources/userspace/user_task/main.cpp:180
    int t_delta; // velikost krokovani (minuty)
    int t_pred; // vzdalenost predikce (minuty)
    int time; // probehly cas (minuty)
    float values[VALUE_ARRAY_SIZE];
    int index = 0;
    8680:	e3a03000 	mov	r3, #0
    8684:	e50b3044 	str	r3, [fp, #-68]	; 0xffffffbc
/home/hintik/dev/final/src/sources/userspace/user_task/main.cpp:182

    uint32_t trng_file = open("DEV:trng", NFile_Open_Mode::Read_Only);
    8688:	e3a01000 	mov	r1, #0
    868c:	e59f0b04 	ldr	r0, [pc, #2820]	; 9198 <_Z7programj+0xb38>
    8690:	eb00052a 	bl	9b40 <_Z4openPKc15NFile_Open_Mode>
    8694:	e50b0060 	str	r0, [fp, #-96]	; 0xffffffa0
/home/hintik/dev/final/src/sources/userspace/user_task/main.cpp:184

    char *input_buffer = new char[buffer_constants::BUFFER_SIZE];
    8698:	e3a00c01 	mov	r0, #256	; 0x100
    869c:	eb0003ff 	bl	96a0 <_Znaj>
    86a0:	e1a03000 	mov	r3, r0
    86a4:	e50b3064 	str	r3, [fp, #-100]	; 0xffffff9c
/home/hintik/dev/final/src/sources/userspace/user_task/main.cpp:191
    /*
     * Definice krokovani a predikce
     */

    // Cteni krokovani
    t_delta = read_integer(file, input_buffer);
    86a8:	e24b3a02 	sub	r3, fp, #8192	; 0x2000
    86ac:	e243303c 	sub	r3, r3, #60	; 0x3c
    86b0:	e51b1064 	ldr	r1, [fp, #-100]	; 0xffffff9c
    86b4:	e513066c 	ldr	r0, [r3, #-1644]	; 0xfffff994
    86b8:	ebffff7a 	bl	84a8 <_Z12read_integerjPc>
    86bc:	e50b0068 	str	r0, [fp, #-104]	; 0xffffff98
/home/hintik/dev/final/src/sources/userspace/user_task/main.cpp:192
    print_int_value_line(file, "OK, krokovani ", t_delta, " minut\n");
    86c0:	e24b3a02 	sub	r3, fp, #8192	; 0x2000
    86c4:	e243303c 	sub	r3, r3, #60	; 0x3c
    86c8:	e1a00003 	mov	r0, r3
    86cc:	e59f3ac8 	ldr	r3, [pc, #2760]	; 919c <_Z7programj+0xb3c>
    86d0:	e51b2068 	ldr	r2, [fp, #-104]	; 0xffffff98
    86d4:	e59f1ac4 	ldr	r1, [pc, #2756]	; 91a0 <_Z7programj+0xb40>
    86d8:	e510066c 	ldr	r0, [r0, #-1644]	; 0xfffff994
    86dc:	ebffff40 	bl	83e4 <_Z20print_int_value_linejPKciS0_>
/home/hintik/dev/final/src/sources/userspace/user_task/main.cpp:195

    // Cteni velikosti predikce
    t_pred = read_integer(file, input_buffer);
    86e0:	e24b3a02 	sub	r3, fp, #8192	; 0x2000
    86e4:	e243303c 	sub	r3, r3, #60	; 0x3c
    86e8:	e51b1064 	ldr	r1, [fp, #-100]	; 0xffffff9c
    86ec:	e513066c 	ldr	r0, [r3, #-1644]	; 0xfffff994
    86f0:	ebffff6c 	bl	84a8 <_Z12read_integerjPc>
    86f4:	e50b006c 	str	r0, [fp, #-108]	; 0xffffff94
/home/hintik/dev/final/src/sources/userspace/user_task/main.cpp:196
    print_int_value_line(file, "OK, predikce ", t_pred, " minut\n");
    86f8:	e24b3a02 	sub	r3, fp, #8192	; 0x2000
    86fc:	e243303c 	sub	r3, r3, #60	; 0x3c
    8700:	e1a00003 	mov	r0, r3
    8704:	e59f3a90 	ldr	r3, [pc, #2704]	; 919c <_Z7programj+0xb3c>
    8708:	e51b206c 	ldr	r2, [fp, #-108]	; 0xffffff94
    870c:	e59f1a90 	ldr	r1, [pc, #2704]	; 91a4 <_Z7programj+0xb44>
    8710:	e510066c 	ldr	r0, [r0, #-1644]	; 0xfffff994
    8714:	ebffff32 	bl	83e4 <_Z20print_int_value_linejPKciS0_>
/home/hintik/dev/final/src/sources/userspace/user_task/main.cpp:202

    /*
     * Priprava genetickeho algoritmu
     */

    time = 0;
    8718:	e3a03000 	mov	r3, #0
    871c:	e50b3040 	str	r3, [fp, #-64]	; 0xffffffc0
/home/hintik/dev/final/src/sources/userspace/user_task/main.cpp:204

    const int SOLUTION_SIZE = 100;
    8720:	e3a03064 	mov	r3, #100	; 0x64
    8724:	e50b3070 	str	r3, [fp, #-112]	; 0xffffff90
/home/hintik/dev/final/src/sources/userspace/user_task/main.cpp:209

    Parameters populations[SOLUTION_SIZE];

    // Generace populace
    for (int i = 0; i < SOLUTION_SIZE; i++) {
    8728:	e3a03000 	mov	r3, #0
    872c:	e50b3048 	str	r3, [fp, #-72]	; 0xffffffb8
/home/hintik/dev/final/src/sources/userspace/user_task/main.cpp:209 (discriminator 3)
    8730:	e51b3048 	ldr	r3, [fp, #-72]	; 0xffffffb8
    8734:	e3530063 	cmp	r3, #99	; 0x63
    8738:	ca000065 	bgt	88d4 <_Z7programj+0x274>
/home/hintik/dev/final/src/sources/userspace/user_task/main.cpp:212 (discriminator 2)
        populations[i] = Parameters{
                0,
                (double) rand(trng_file, 0, 30),
    873c:	e3a0201e 	mov	r2, #30
    8740:	e3a01000 	mov	r1, #0
    8744:	e51b0060 	ldr	r0, [fp, #-96]	; 0xffffffa0
    8748:	eb000310 	bl	9390 <_Z4randjjj>
    874c:	ee070a90 	vmov	s15, r0
    8750:	eeb8bb67 	vcvt.f64.u32	d11, s15
/home/hintik/dev/final/src/sources/userspace/user_task/main.cpp:213 (discriminator 2)
                (double) rand(trng_file, 0, 30),
    8754:	e3a0201e 	mov	r2, #30
    8758:	e3a01000 	mov	r1, #0
    875c:	e51b0060 	ldr	r0, [fp, #-96]	; 0xffffffa0
    8760:	eb00030a 	bl	9390 <_Z4randjjj>
    8764:	ee070a90 	vmov	s15, r0
    8768:	eeb8ab67 	vcvt.f64.u32	d10, s15
/home/hintik/dev/final/src/sources/userspace/user_task/main.cpp:214 (discriminator 2)
                (double) rand(trng_file, 0, 30),
    876c:	e3a0201e 	mov	r2, #30
    8770:	e3a01000 	mov	r1, #0
    8774:	e51b0060 	ldr	r0, [fp, #-96]	; 0xffffffa0
    8778:	eb000304 	bl	9390 <_Z4randjjj>
    877c:	ee070a90 	vmov	s15, r0
    8780:	eeb89b67 	vcvt.f64.u32	d9, s15
/home/hintik/dev/final/src/sources/userspace/user_task/main.cpp:215 (discriminator 2)
                (double) rand(trng_file, 0, 30),
    8784:	e3a0201e 	mov	r2, #30
    8788:	e3a01000 	mov	r1, #0
    878c:	e51b0060 	ldr	r0, [fp, #-96]	; 0xffffffa0
    8790:	eb0002fe 	bl	9390 <_Z4randjjj>
    8794:	ee070a90 	vmov	s15, r0
    8798:	eeb88b67 	vcvt.f64.u32	d8, s15
/home/hintik/dev/final/src/sources/userspace/user_task/main.cpp:216 (discriminator 2)
                (double) rand(trng_file, 0, 30)
    879c:	e3a0201e 	mov	r2, #30
    87a0:	e3a01000 	mov	r1, #0
    87a4:	e51b0060 	ldr	r0, [fp, #-96]	; 0xffffffa0
    87a8:	eb0002f8 	bl	9390 <_Z4randjjj>
    87ac:	ee070a90 	vmov	s15, r0
    87b0:	eeb87b67 	vcvt.f64.u32	d7, s15
/home/hintik/dev/final/src/sources/userspace/user_task/main.cpp:210 (discriminator 2)
        populations[i] = Parameters{
    87b4:	e24b3a01 	sub	r3, fp, #4096	; 0x1000
    87b8:	e243303c 	sub	r3, r3, #60	; 0x3c
    87bc:	e1a01003 	mov	r1, r3
    87c0:	e51b2048 	ldr	r2, [fp, #-72]	; 0xffffffb8
    87c4:	e1a03002 	mov	r3, r2
    87c8:	e1a03083 	lsl	r3, r3, #1
    87cc:	e0833002 	add	r3, r3, r2
    87d0:	e1a03203 	lsl	r3, r3, #4
    87d4:	e0813003 	add	r3, r1, r3
    87d8:	e2431fea 	sub	r1, r3, #936	; 0x3a8
    87dc:	e3a02000 	mov	r2, #0
    87e0:	e3a03000 	mov	r3, #0
    87e4:	e1c120f0 	strd	r2, [r1]
    87e8:	e24b3a01 	sub	r3, fp, #4096	; 0x1000
    87ec:	e243303c 	sub	r3, r3, #60	; 0x3c
    87f0:	e1a01003 	mov	r1, r3
    87f4:	e51b2048 	ldr	r2, [fp, #-72]	; 0xffffffb8
    87f8:	e1a03002 	mov	r3, r2
    87fc:	e1a03083 	lsl	r3, r3, #1
    8800:	e0833002 	add	r3, r3, r2
    8804:	e1a03203 	lsl	r3, r3, #4
    8808:	e0813003 	add	r3, r1, r3
    880c:	e2433e3a 	sub	r3, r3, #928	; 0x3a0
    8810:	ed83bb00 	vstr	d11, [r3]
    8814:	e24b3a01 	sub	r3, fp, #4096	; 0x1000
    8818:	e243303c 	sub	r3, r3, #60	; 0x3c
    881c:	e1a01003 	mov	r1, r3
    8820:	e51b2048 	ldr	r2, [fp, #-72]	; 0xffffffb8
    8824:	e1a03002 	mov	r3, r2
    8828:	e1a03083 	lsl	r3, r3, #1
    882c:	e0833002 	add	r3, r3, r2
    8830:	e1a03203 	lsl	r3, r3, #4
    8834:	e0813003 	add	r3, r1, r3
    8838:	e2433fe6 	sub	r3, r3, #920	; 0x398
    883c:	ed83ab00 	vstr	d10, [r3]
    8840:	e24b3a01 	sub	r3, fp, #4096	; 0x1000
    8844:	e243303c 	sub	r3, r3, #60	; 0x3c
    8848:	e1a01003 	mov	r1, r3
    884c:	e51b2048 	ldr	r2, [fp, #-72]	; 0xffffffb8
    8850:	e1a03002 	mov	r3, r2
    8854:	e1a03083 	lsl	r3, r3, #1
    8858:	e0833002 	add	r3, r3, r2
    885c:	e1a03203 	lsl	r3, r3, #4
    8860:	e0813003 	add	r3, r1, r3
    8864:	e2433e39 	sub	r3, r3, #912	; 0x390
    8868:	ed839b00 	vstr	d9, [r3]
    886c:	e24b3a01 	sub	r3, fp, #4096	; 0x1000
    8870:	e243303c 	sub	r3, r3, #60	; 0x3c
    8874:	e1a01003 	mov	r1, r3
    8878:	e51b2048 	ldr	r2, [fp, #-72]	; 0xffffffb8
    887c:	e1a03002 	mov	r3, r2
    8880:	e1a03083 	lsl	r3, r3, #1
    8884:	e0833002 	add	r3, r3, r2
    8888:	e1a03203 	lsl	r3, r3, #4
    888c:	e0813003 	add	r3, r1, r3
    8890:	e2433fe2 	sub	r3, r3, #904	; 0x388
    8894:	ed838b00 	vstr	d8, [r3]
    8898:	e24b3a01 	sub	r3, fp, #4096	; 0x1000
    889c:	e243303c 	sub	r3, r3, #60	; 0x3c
    88a0:	e1a01003 	mov	r1, r3
    88a4:	e51b2048 	ldr	r2, [fp, #-72]	; 0xffffffb8
    88a8:	e1a03002 	mov	r3, r2
    88ac:	e1a03083 	lsl	r3, r3, #1
    88b0:	e0833002 	add	r3, r3, r2
    88b4:	e1a03203 	lsl	r3, r3, #4
    88b8:	e0813003 	add	r3, r1, r3
    88bc:	e2433d0e 	sub	r3, r3, #896	; 0x380
    88c0:	ed837b00 	vstr	d7, [r3]
/home/hintik/dev/final/src/sources/userspace/user_task/main.cpp:209 (discriminator 2)
    for (int i = 0; i < SOLUTION_SIZE; i++) {
    88c4:	e51b3048 	ldr	r3, [fp, #-72]	; 0xffffffb8
    88c8:	e2833001 	add	r3, r3, #1
    88cc:	e50b3048 	str	r3, [fp, #-72]	; 0xffffffb8
    88d0:	eaffff96 	b	8730 <_Z7programj+0xd0>
/home/hintik/dev/final/src/sources/userspace/user_task/main.cpp:225
    /*
     * Vstup od uzivatele
     */

    while (1) {
        await_input(file, input_buffer);
    88d4:	e24b3a02 	sub	r3, fp, #8192	; 0x2000
    88d8:	e243303c 	sub	r3, r3, #60	; 0x3c
    88dc:	e51b1064 	ldr	r1, [fp, #-100]	; 0xffffff9c
    88e0:	e513066c 	ldr	r0, [r3, #-1644]	; 0xfffff994
    88e4:	ebfffe7c 	bl	82dc <_Z11await_inputjPc>
/home/hintik/dev/final/src/sources/userspace/user_task/main.cpp:226
        int input_size = strlen(input_buffer);
    88e8:	e51b0064 	ldr	r0, [fp, #-100]	; 0xffffff9c
    88ec:	eb000909 	bl	ad18 <_Z6strlenPKc>
    88f0:	e50b0074 	str	r0, [fp, #-116]	; 0xffffff8c
/home/hintik/dev/final/src/sources/userspace/user_task/main.cpp:229

        // Vstup je prazdny retezec
        if (input_size == 0) {
    88f4:	e51b3074 	ldr	r3, [fp, #-116]	; 0xffffff8c
    88f8:	e3530000 	cmp	r3, #0
    88fc:	0a00027e 	beq	92fc <_Z7programj+0xc9c>
/home/hintik/dev/final/src/sources/userspace/user_task/main.cpp:234
            continue;
        }

        // Je zadan prikaz stop
        if (!strncmp(input_buffer, "stop", input_size)) {
    8900:	e51b2074 	ldr	r2, [fp, #-116]	; 0xffffff8c
    8904:	e59f189c 	ldr	r1, [pc, #2204]	; 91a8 <_Z7programj+0xb48>
    8908:	e51b0064 	ldr	r0, [fp, #-100]	; 0xffffff9c
    890c:	eb0008d6 	bl	ac6c <_Z7strncmpPKcS0_i>
    8910:	e1a03000 	mov	r3, r0
    8914:	e3530000 	cmp	r3, #0
    8918:	03a03001 	moveq	r3, #1
    891c:	13a03000 	movne	r3, #0
    8920:	e6ef3073 	uxtb	r3, r3
    8924:	e3530000 	cmp	r3, #0
    8928:	1a000275 	bne	9304 <_Z7programj+0xca4>
/home/hintik/dev/final/src/sources/userspace/user_task/main.cpp:239
            continue;
        }

        // Je zadan prikaz parameters
        if (!strncmp(input_buffer, "parameters", input_size)) {
    892c:	e51b2074 	ldr	r2, [fp, #-116]	; 0xffffff8c
    8930:	e59f1874 	ldr	r1, [pc, #2164]	; 91ac <_Z7programj+0xb4c>
    8934:	e51b0064 	ldr	r0, [fp, #-100]	; 0xffffff9c
    8938:	eb0008cb 	bl	ac6c <_Z7strncmpPKcS0_i>
    893c:	e1a03000 	mov	r3, r0
    8940:	e3530000 	cmp	r3, #0
    8944:	03a03001 	moveq	r3, #1
    8948:	13a03000 	movne	r3, #0
    894c:	e6ef3073 	uxtb	r3, r3
    8950:	e3530000 	cmp	r3, #0
    8954:	0a000014 	beq	89ac <_Z7programj+0x34c>
/home/hintik/dev/final/src/sources/userspace/user_task/main.cpp:240 (discriminator 1)
            print_params(file, (populations[0]), input_buffer);
    8958:	e24b3a01 	sub	r3, fp, #4096	; 0x1000
    895c:	e243303c 	sub	r3, r3, #60	; 0x3c
    8960:	e1a04003 	mov	r4, r3
    8964:	e24b3a02 	sub	r3, fp, #8192	; 0x2000
    8968:	e243303c 	sub	r3, r3, #60	; 0x3c
    896c:	e1a05003 	mov	r5, r3
    8970:	e51b3064 	ldr	r3, [fp, #-100]	; 0xffffff9c
    8974:	e58d3028 	str	r3, [sp, #40]	; 0x28
    8978:	e1a0e00d 	mov	lr, sp
    897c:	e244ce3a 	sub	ip, r4, #928	; 0x3a0
    8980:	e8bc000f 	ldm	ip!, {r0, r1, r2, r3}
    8984:	e8ae000f 	stmia	lr!, {r0, r1, r2, r3}
    8988:	e8bc000f 	ldm	ip!, {r0, r1, r2, r3}
    898c:	e8ae000f 	stmia	lr!, {r0, r1, r2, r3}
    8990:	e89c0003 	ldm	ip, {r0, r1}
    8994:	e88e0003 	stm	lr, {r0, r1}
    8998:	e2443fea 	sub	r3, r4, #936	; 0x3a8
    899c:	e893000c 	ldm	r3, {r2, r3}
    89a0:	e515066c 	ldr	r0, [r5, #-1644]	; 0xfffff994
    89a4:	ebfffef7 	bl	8588 <_Z12print_paramsj10ParametersPc>
/home/hintik/dev/final/src/sources/userspace/user_task/main.cpp:241 (discriminator 1)
            continue;
    89a8:	ea000256 	b	9308 <_Z7programj+0xca8>
/home/hintik/dev/final/src/sources/userspace/user_task/main.cpp:245
        }

        // Vstup je hodnota y(t)
        if (is_float(input_buffer)) {
    89ac:	e51b0064 	ldr	r0, [fp, #-100]	; 0xffffff9c
    89b0:	eb00099f 	bl	b034 <_Z8is_floatPKc>
    89b4:	e1a03000 	mov	r3, r0
    89b8:	e3530000 	cmp	r3, #0
    89bc:	0a000248 	beq	92e4 <_Z7programj+0xc84>
/home/hintik/dev/final/src/sources/userspace/user_task/main.cpp:246
            float value = atof(input_buffer);
    89c0:	e51b0064 	ldr	r0, [fp, #-100]	; 0xffffff9c
    89c4:	eb000747 	bl	a6e8 <_Z4atofPKc>
    89c8:	ed0b0a1e 	vstr	s0, [fp, #-120]	; 0xffffff88
/home/hintik/dev/final/src/sources/userspace/user_task/main.cpp:247
            values[index] = value;
    89cc:	e51b3044 	ldr	r3, [fp, #-68]	; 0xffffffbc
    89d0:	e1a03103 	lsl	r3, r3, #2
    89d4:	e24b203c 	sub	r2, fp, #60	; 0x3c
    89d8:	e0823003 	add	r3, r2, r3
    89dc:	e24330e4 	sub	r3, r3, #228	; 0xe4
    89e0:	e51b2078 	ldr	r2, [fp, #-120]	; 0xffffff88
    89e4:	e5832000 	str	r2, [r3]
/home/hintik/dev/final/src/sources/userspace/user_task/main.cpp:249

            if (time < t_pred) {
    89e8:	e51b2040 	ldr	r2, [fp, #-64]	; 0xffffffc0
    89ec:	e51b306c 	ldr	r3, [fp, #-108]	; 0xffffff94
    89f0:	e1520003 	cmp	r2, r3
    89f4:	aa000009 	bge	8a20 <_Z7programj+0x3c0>
/home/hintik/dev/final/src/sources/userspace/user_task/main.cpp:250
                time += t_delta;
    89f8:	e51b2040 	ldr	r2, [fp, #-64]	; 0xffffffc0
    89fc:	e51b3068 	ldr	r3, [fp, #-104]	; 0xffffff98
    8a00:	e0823003 	add	r3, r2, r3
    8a04:	e50b3040 	str	r3, [fp, #-64]	; 0xffffffc0
/home/hintik/dev/final/src/sources/userspace/user_task/main.cpp:251
                fputs(file, "NaN\n");
    8a08:	e24b3a02 	sub	r3, fp, #8192	; 0x2000
    8a0c:	e243303c 	sub	r3, r3, #60	; 0x3c
    8a10:	e59f1798 	ldr	r1, [pc, #1944]	; 91b0 <_Z7programj+0xb50>
    8a14:	e513066c 	ldr	r0, [r3, #-1644]	; 0xfffff994
    8a18:	ebfffe12 	bl	8268 <_ZL5fputsjPKc>
    8a1c:	ea000222 	b	92ac <_Z7programj+0xc4c>
/home/hintik/dev/final/src/sources/userspace/user_task/main.cpp:253
            } else {
                fputs(file, "Pocitam...\n");
    8a20:	e24b3a02 	sub	r3, fp, #8192	; 0x2000
    8a24:	e243303c 	sub	r3, r3, #60	; 0x3c
    8a28:	e59f1784 	ldr	r1, [pc, #1924]	; 91b4 <_Z7programj+0xb54>
    8a2c:	e513066c 	ldr	r0, [r3, #-1644]	; 0xfffff994
    8a30:	ebfffe0c 	bl	8268 <_ZL5fputsjPKc>
/home/hintik/dev/final/src/sources/userspace/user_task/main.cpp:255

                for (int i = 0; i < SOLUTION_SIZE; i++) {
    8a34:	e3a03000 	mov	r3, #0
    8a38:	e50b304c 	str	r3, [fp, #-76]	; 0xffffffb4
/home/hintik/dev/final/src/sources/userspace/user_task/main.cpp:255 (discriminator 3)
    8a3c:	e51b304c 	ldr	r3, [fp, #-76]	; 0xffffffb4
    8a40:	e3530063 	cmp	r3, #99	; 0x63
    8a44:	ca00002e 	bgt	8b04 <_Z7programj+0x4a4>
/home/hintik/dev/final/src/sources/userspace/user_task/main.cpp:256 (discriminator 2)
                    populations[i].fitness(values[(index - (t_pred / t_delta)) % VALUE_ARRAY_SIZE], values[index]);
    8a48:	e24b2d4e 	sub	r2, fp, #4992	; 0x1380
    8a4c:	e242203c 	sub	r2, r2, #60	; 0x3c
    8a50:	e2422028 	sub	r2, r2, #40	; 0x28
    8a54:	e51b104c 	ldr	r1, [fp, #-76]	; 0xffffffb4
    8a58:	e1a03001 	mov	r3, r1
    8a5c:	e1a03083 	lsl	r3, r3, #1
    8a60:	e0833001 	add	r3, r3, r1
    8a64:	e1a03203 	lsl	r3, r3, #4
    8a68:	e0824003 	add	r4, r2, r3
    8a6c:	e51b1068 	ldr	r1, [fp, #-104]	; 0xffffff98
    8a70:	e51b006c 	ldr	r0, [fp, #-108]	; 0xffffff94
    8a74:	eb000a63 	bl	b408 <__divsi3>
    8a78:	e1a03000 	mov	r3, r0
    8a7c:	e1a02003 	mov	r2, r3
    8a80:	e51b3044 	ldr	r3, [fp, #-68]	; 0xffffffbc
    8a84:	e0431002 	sub	r1, r3, r2
    8a88:	e59f3730 	ldr	r3, [pc, #1840]	; 91c0 <_Z7programj+0xb60>
    8a8c:	e0c32193 	smull	r2, r3, r3, r1
    8a90:	e1a02243 	asr	r2, r3, #4
    8a94:	e1a03fc1 	asr	r3, r1, #31
    8a98:	e0422003 	sub	r2, r2, r3
    8a9c:	e1a03002 	mov	r3, r2
    8aa0:	e1a03103 	lsl	r3, r3, #2
    8aa4:	e0833002 	add	r3, r3, r2
    8aa8:	e1a03183 	lsl	r3, r3, #3
    8aac:	e0412003 	sub	r2, r1, r3
    8ab0:	e1a03102 	lsl	r3, r2, #2
    8ab4:	e24b203c 	sub	r2, fp, #60	; 0x3c
    8ab8:	e0823003 	add	r3, r2, r3
    8abc:	e24330e4 	sub	r3, r3, #228	; 0xe4
    8ac0:	edd37a00 	vldr	s15, [r3]
    8ac4:	eeb77ae7 	vcvt.f64.f32	d7, s15
    8ac8:	e51b3044 	ldr	r3, [fp, #-68]	; 0xffffffbc
    8acc:	e1a03103 	lsl	r3, r3, #2
    8ad0:	e24b203c 	sub	r2, fp, #60	; 0x3c
    8ad4:	e0823003 	add	r3, r2, r3
    8ad8:	e24330e4 	sub	r3, r3, #228	; 0xe4
    8adc:	edd36a00 	vldr	s13, [r3]
    8ae0:	eeb76ae6 	vcvt.f64.f32	d6, s13
    8ae4:	eeb01b46 	vmov.f64	d1, d6
    8ae8:	eeb00b47 	vmov.f64	d0, d7
    8aec:	e1a00004 	mov	r0, r4
    8af0:	eb000312 	bl	9740 <_ZN10Parameters7fitnessEdd>
/home/hintik/dev/final/src/sources/userspace/user_task/main.cpp:255 (discriminator 2)
                for (int i = 0; i < SOLUTION_SIZE; i++) {
    8af4:	e51b304c 	ldr	r3, [fp, #-76]	; 0xffffffb4
    8af8:	e2833001 	add	r3, r3, #1
    8afc:	e50b304c 	str	r3, [fp, #-76]	; 0xffffffb4
    8b00:	eaffffcd 	b	8a3c <_Z7programj+0x3dc>
/home/hintik/dev/final/src/sources/userspace/user_task/main.cpp:260
                }

                // Razeni populace dle fitness funkce
                Quicksort(populations, 0, SOLUTION_SIZE - 1);
    8b04:	e24b3d4e 	sub	r3, fp, #4992	; 0x1380
    8b08:	e243303c 	sub	r3, r3, #60	; 0x3c
    8b0c:	e2433028 	sub	r3, r3, #40	; 0x28
    8b10:	e3a02063 	mov	r2, #99	; 0x63
    8b14:	e3a01000 	mov	r1, #0
    8b18:	e1a00003 	mov	r0, r3
    8b1c:	eb0002c1 	bl	9628 <_Z9QuicksortP10Parametersii>
/home/hintik/dev/final/src/sources/userspace/user_task/main.cpp:263


                const int SAMPLE_SIZE = 100;
    8b20:	e3a03064 	mov	r3, #100	; 0x64
    8b24:	e50b307c 	str	r3, [fp, #-124]	; 0xffffff84
/home/hintik/dev/final/src/sources/userspace/user_task/main.cpp:266
                Parameters sample[SOLUTION_SIZE];

                for (int x = 0; x < SOLUTION_SIZE; x++) {
    8b28:	e3a03000 	mov	r3, #0
    8b2c:	e50b3050 	str	r3, [fp, #-80]	; 0xffffffb0
/home/hintik/dev/final/src/sources/userspace/user_task/main.cpp:266 (discriminator 3)
    8b30:	e51b3050 	ldr	r3, [fp, #-80]	; 0xffffffb0
    8b34:	e3530063 	cmp	r3, #99	; 0x63
    8b38:	ca000020 	bgt	8bc0 <_Z7programj+0x560>
/home/hintik/dev/final/src/sources/userspace/user_task/main.cpp:267 (discriminator 2)
                    sample[x] = populations[x];
    8b3c:	e24b3a02 	sub	r3, fp, #8192	; 0x2000
    8b40:	e243303c 	sub	r3, r3, #60	; 0x3c
    8b44:	e1a01003 	mov	r1, r3
    8b48:	e51b2050 	ldr	r2, [fp, #-80]	; 0xffffffb0
    8b4c:	e1a03002 	mov	r3, r2
    8b50:	e1a03083 	lsl	r3, r3, #1
    8b54:	e0833002 	add	r3, r3, r2
    8b58:	e1a03203 	lsl	r3, r3, #4
    8b5c:	e0813003 	add	r3, r1, r3
    8b60:	e2432e66 	sub	r2, r3, #1632	; 0x660
    8b64:	e2422008 	sub	r2, r2, #8
    8b68:	e24b3a01 	sub	r3, fp, #4096	; 0x1000
    8b6c:	e243303c 	sub	r3, r3, #60	; 0x3c
    8b70:	e1a00003 	mov	r0, r3
    8b74:	e51b1050 	ldr	r1, [fp, #-80]	; 0xffffffb0
    8b78:	e1a03001 	mov	r3, r1
    8b7c:	e1a03083 	lsl	r3, r3, #1
    8b80:	e0833001 	add	r3, r3, r1
    8b84:	e1a03203 	lsl	r3, r3, #4
    8b88:	e0803003 	add	r3, r0, r3
    8b8c:	e2433fea 	sub	r3, r3, #936	; 0x3a8
    8b90:	e1a0c002 	mov	ip, r2
    8b94:	e1a0e003 	mov	lr, r3
    8b98:	e8be000f 	ldm	lr!, {r0, r1, r2, r3}
    8b9c:	e8ac000f 	stmia	ip!, {r0, r1, r2, r3}
    8ba0:	e8be000f 	ldm	lr!, {r0, r1, r2, r3}
    8ba4:	e8ac000f 	stmia	ip!, {r0, r1, r2, r3}
    8ba8:	e89e000f 	ldm	lr, {r0, r1, r2, r3}
    8bac:	e88c000f 	stm	ip, {r0, r1, r2, r3}
/home/hintik/dev/final/src/sources/userspace/user_task/main.cpp:266 (discriminator 2)
                for (int x = 0; x < SOLUTION_SIZE; x++) {
    8bb0:	e51b3050 	ldr	r3, [fp, #-80]	; 0xffffffb0
    8bb4:	e2833001 	add	r3, r3, #1
    8bb8:	e50b3050 	str	r3, [fp, #-80]	; 0xffffffb0
    8bbc:	eaffffdb 	b	8b30 <_Z7programj+0x4d0>
/home/hintik/dev/final/src/sources/userspace/user_task/main.cpp:270
                }

                for (int i = 0; i < SOLUTION_SIZE; i++) {
    8bc0:	e3a03000 	mov	r3, #0
    8bc4:	e50b3054 	str	r3, [fp, #-84]	; 0xffffffac
/home/hintik/dev/final/src/sources/userspace/user_task/main.cpp:270 (discriminator 3)
    8bc8:	e51b3054 	ldr	r3, [fp, #-84]	; 0xffffffac
    8bcc:	e3530063 	cmp	r3, #99	; 0x63
    8bd0:	ca000096 	bgt	8e30 <_Z7programj+0x7d0>
/home/hintik/dev/final/src/sources/userspace/user_task/main.cpp:273 (discriminator 2)
                    populations[i] = (Parameters{
                            0,
                            sample[rand(trng_file, 0, SAMPLE_SIZE - 1)].a,
    8bd4:	e3a02063 	mov	r2, #99	; 0x63
    8bd8:	e3a01000 	mov	r1, #0
    8bdc:	e51b0060 	ldr	r0, [fp, #-96]	; 0xffffffa0
    8be0:	eb0001ea 	bl	9390 <_Z4randjjj>
    8be4:	e1a02000 	mov	r2, r0
    8be8:	e24b3a02 	sub	r3, fp, #8192	; 0x2000
    8bec:	e243303c 	sub	r3, r3, #60	; 0x3c
    8bf0:	e2433e66 	sub	r3, r3, #1632	; 0x660
    8bf4:	e1a01003 	mov	r1, r3
    8bf8:	e1a03002 	mov	r3, r2
    8bfc:	e1a03083 	lsl	r3, r3, #1
    8c00:	e0833002 	add	r3, r3, r2
    8c04:	e1a03203 	lsl	r3, r3, #4
    8c08:	e0813003 	add	r3, r1, r3
    8c0c:	ed938b00 	vldr	d8, [r3]
/home/hintik/dev/final/src/sources/userspace/user_task/main.cpp:274 (discriminator 2)
                            sample[rand(trng_file, 0, SAMPLE_SIZE - 1)].b,
    8c10:	e3a02063 	mov	r2, #99	; 0x63
    8c14:	e3a01000 	mov	r1, #0
    8c18:	e51b0060 	ldr	r0, [fp, #-96]	; 0xffffffa0
    8c1c:	eb0001db 	bl	9390 <_Z4randjjj>
    8c20:	e1a02000 	mov	r2, r0
    8c24:	e24b3a02 	sub	r3, fp, #8192	; 0x2000
    8c28:	e243303c 	sub	r3, r3, #60	; 0x3c
    8c2c:	e2433e66 	sub	r3, r3, #1632	; 0x660
    8c30:	e1a01003 	mov	r1, r3
    8c34:	e1a03002 	mov	r3, r2
    8c38:	e1a03083 	lsl	r3, r3, #1
    8c3c:	e0833002 	add	r3, r3, r2
    8c40:	e1a03203 	lsl	r3, r3, #4
    8c44:	e0813003 	add	r3, r1, r3
    8c48:	e2833008 	add	r3, r3, #8
    8c4c:	e1c380d0 	ldrd	r8, [r3]
/home/hintik/dev/final/src/sources/userspace/user_task/main.cpp:275 (discriminator 2)
                            sample[rand(trng_file, 0, SAMPLE_SIZE - 1)].c,
    8c50:	e3a02063 	mov	r2, #99	; 0x63
    8c54:	e3a01000 	mov	r1, #0
    8c58:	e51b0060 	ldr	r0, [fp, #-96]	; 0xffffffa0
    8c5c:	eb0001cb 	bl	9390 <_Z4randjjj>
    8c60:	e1a02000 	mov	r2, r0
    8c64:	e24b3a02 	sub	r3, fp, #8192	; 0x2000
    8c68:	e243303c 	sub	r3, r3, #60	; 0x3c
    8c6c:	e2433e66 	sub	r3, r3, #1632	; 0x660
    8c70:	e1a01003 	mov	r1, r3
    8c74:	e1a03002 	mov	r3, r2
    8c78:	e1a03083 	lsl	r3, r3, #1
    8c7c:	e0833002 	add	r3, r3, r2
    8c80:	e1a03203 	lsl	r3, r3, #4
    8c84:	e0813003 	add	r3, r1, r3
    8c88:	e2833010 	add	r3, r3, #16
    8c8c:	e1c360d0 	ldrd	r6, [r3]
/home/hintik/dev/final/src/sources/userspace/user_task/main.cpp:276 (discriminator 2)
                            sample[rand(trng_file, 0, SAMPLE_SIZE - 1)].d,
    8c90:	e3a02063 	mov	r2, #99	; 0x63
    8c94:	e3a01000 	mov	r1, #0
    8c98:	e51b0060 	ldr	r0, [fp, #-96]	; 0xffffffa0
    8c9c:	eb0001bb 	bl	9390 <_Z4randjjj>
    8ca0:	e1a02000 	mov	r2, r0
    8ca4:	e24b3a02 	sub	r3, fp, #8192	; 0x2000
    8ca8:	e243303c 	sub	r3, r3, #60	; 0x3c
    8cac:	e2433e66 	sub	r3, r3, #1632	; 0x660
    8cb0:	e1a01003 	mov	r1, r3
    8cb4:	e1a03002 	mov	r3, r2
    8cb8:	e1a03083 	lsl	r3, r3, #1
    8cbc:	e0833002 	add	r3, r3, r2
    8cc0:	e1a03203 	lsl	r3, r3, #4
    8cc4:	e0813003 	add	r3, r1, r3
    8cc8:	e2833018 	add	r3, r3, #24
    8ccc:	e1c340d0 	ldrd	r4, [r3]
/home/hintik/dev/final/src/sources/userspace/user_task/main.cpp:277 (discriminator 2)
                            sample[rand(trng_file, 0, SAMPLE_SIZE - 1)].e,
    8cd0:	e3a02063 	mov	r2, #99	; 0x63
    8cd4:	e3a01000 	mov	r1, #0
    8cd8:	e51b0060 	ldr	r0, [fp, #-96]	; 0xffffffa0
    8cdc:	eb0001ab 	bl	9390 <_Z4randjjj>
    8ce0:	e1a02000 	mov	r2, r0
    8ce4:	e24b3a02 	sub	r3, fp, #8192	; 0x2000
    8ce8:	e243303c 	sub	r3, r3, #60	; 0x3c
    8cec:	e2433e66 	sub	r3, r3, #1632	; 0x660
    8cf0:	e1a01003 	mov	r1, r3
    8cf4:	e1a03002 	mov	r3, r2
    8cf8:	e1a03083 	lsl	r3, r3, #1
    8cfc:	e0833002 	add	r3, r3, r2
    8d00:	e1a03203 	lsl	r3, r3, #4
    8d04:	e0813003 	add	r3, r1, r3
    8d08:	e2833020 	add	r3, r3, #32
    8d0c:	e1c300d0 	ldrd	r0, [r3]
/home/hintik/dev/final/src/sources/userspace/user_task/main.cpp:271 (discriminator 2)
                    populations[i] = (Parameters{
    8d10:	e24b3a01 	sub	r3, fp, #4096	; 0x1000
    8d14:	e243303c 	sub	r3, r3, #60	; 0x3c
    8d18:	e1a0c003 	mov	ip, r3
    8d1c:	e51b2054 	ldr	r2, [fp, #-84]	; 0xffffffac
    8d20:	e1a03002 	mov	r3, r2
    8d24:	e1a03083 	lsl	r3, r3, #1
    8d28:	e0833002 	add	r3, r3, r2
    8d2c:	e1a03203 	lsl	r3, r3, #4
    8d30:	e08c3003 	add	r3, ip, r3
    8d34:	e243cfea 	sub	ip, r3, #936	; 0x3a8
    8d38:	e3a02000 	mov	r2, #0
    8d3c:	e3a03000 	mov	r3, #0
    8d40:	e1cc20f0 	strd	r2, [ip]
    8d44:	e24b3a01 	sub	r3, fp, #4096	; 0x1000
    8d48:	e243303c 	sub	r3, r3, #60	; 0x3c
    8d4c:	e1a0c003 	mov	ip, r3
    8d50:	e51b2054 	ldr	r2, [fp, #-84]	; 0xffffffac
    8d54:	e1a03002 	mov	r3, r2
    8d58:	e1a03083 	lsl	r3, r3, #1
    8d5c:	e0833002 	add	r3, r3, r2
    8d60:	e1a03203 	lsl	r3, r3, #4
    8d64:	e08c3003 	add	r3, ip, r3
    8d68:	e2433e3a 	sub	r3, r3, #928	; 0x3a0
    8d6c:	ed838b00 	vstr	d8, [r3]
    8d70:	e24b3a01 	sub	r3, fp, #4096	; 0x1000
    8d74:	e243303c 	sub	r3, r3, #60	; 0x3c
    8d78:	e1a0c003 	mov	ip, r3
    8d7c:	e51b2054 	ldr	r2, [fp, #-84]	; 0xffffffac
    8d80:	e1a03002 	mov	r3, r2
    8d84:	e1a03083 	lsl	r3, r3, #1
    8d88:	e0833002 	add	r3, r3, r2
    8d8c:	e1a03203 	lsl	r3, r3, #4
    8d90:	e08c3003 	add	r3, ip, r3
    8d94:	e2433fe6 	sub	r3, r3, #920	; 0x398
    8d98:	e1c380f0 	strd	r8, [r3]
    8d9c:	e24b3a01 	sub	r3, fp, #4096	; 0x1000
    8da0:	e243303c 	sub	r3, r3, #60	; 0x3c
    8da4:	e1a0c003 	mov	ip, r3
    8da8:	e51b2054 	ldr	r2, [fp, #-84]	; 0xffffffac
    8dac:	e1a03002 	mov	r3, r2
    8db0:	e1a03083 	lsl	r3, r3, #1
    8db4:	e0833002 	add	r3, r3, r2
    8db8:	e1a03203 	lsl	r3, r3, #4
    8dbc:	e08c3003 	add	r3, ip, r3
    8dc0:	e2433e39 	sub	r3, r3, #912	; 0x390
    8dc4:	e1c360f0 	strd	r6, [r3]
    8dc8:	e24b3a01 	sub	r3, fp, #4096	; 0x1000
    8dcc:	e243303c 	sub	r3, r3, #60	; 0x3c
    8dd0:	e1a0c003 	mov	ip, r3
    8dd4:	e51b2054 	ldr	r2, [fp, #-84]	; 0xffffffac
    8dd8:	e1a03002 	mov	r3, r2
    8ddc:	e1a03083 	lsl	r3, r3, #1
    8de0:	e0833002 	add	r3, r3, r2
    8de4:	e1a03203 	lsl	r3, r3, #4
    8de8:	e08c3003 	add	r3, ip, r3
    8dec:	e2433fe2 	sub	r3, r3, #904	; 0x388
    8df0:	e1c340f0 	strd	r4, [r3]
    8df4:	e24b3a01 	sub	r3, fp, #4096	; 0x1000
    8df8:	e243303c 	sub	r3, r3, #60	; 0x3c
    8dfc:	e1a0c003 	mov	ip, r3
    8e00:	e51b2054 	ldr	r2, [fp, #-84]	; 0xffffffac
    8e04:	e1a03002 	mov	r3, r2
    8e08:	e1a03083 	lsl	r3, r3, #1
    8e0c:	e0833002 	add	r3, r3, r2
    8e10:	e1a03203 	lsl	r3, r3, #4
    8e14:	e08c3003 	add	r3, ip, r3
    8e18:	e2433d0e 	sub	r3, r3, #896	; 0x380
    8e1c:	e1c300f0 	strd	r0, [r3]
/home/hintik/dev/final/src/sources/userspace/user_task/main.cpp:270 (discriminator 2)
                for (int i = 0; i < SOLUTION_SIZE; i++) {
    8e20:	e51b3054 	ldr	r3, [fp, #-84]	; 0xffffffac
    8e24:	e2833001 	add	r3, r3, #1
    8e28:	e50b3054 	str	r3, [fp, #-84]	; 0xffffffac
    8e2c:	eaffff65 	b	8bc8 <_Z7programj+0x568>
/home/hintik/dev/final/src/sources/userspace/user_task/main.cpp:282
                    });
                }

                // Mutace populace
                for (int j = 0; j < SOLUTION_SIZE; ++j) {
    8e30:	e3a03000 	mov	r3, #0
    8e34:	e50b3058 	str	r3, [fp, #-88]	; 0xffffffa8
/home/hintik/dev/final/src/sources/userspace/user_task/main.cpp:282 (discriminator 3)
    8e38:	e51b3058 	ldr	r3, [fp, #-88]	; 0xffffffa8
    8e3c:	e3530063 	cmp	r3, #99	; 0x63
    8e40:	ca00009e 	bgt	90c0 <_Z7programj+0xa60>
/home/hintik/dev/final/src/sources/userspace/user_task/main.cpp:283 (discriminator 2)
                    (populations[j]).a *= (rand(trng_file, 99, 101) / 100.0);
    8e44:	e3a02065 	mov	r2, #101	; 0x65
    8e48:	e3a01063 	mov	r1, #99	; 0x63
    8e4c:	e51b0060 	ldr	r0, [fp, #-96]	; 0xffffffa0
    8e50:	eb00014e 	bl	9390 <_Z4randjjj>
    8e54:	ee070a90 	vmov	s15, r0
    8e58:	eeb87b67 	vcvt.f64.u32	d7, s15
    8e5c:	ed9f5bcb 	vldr	d5, [pc, #812]	; 9190 <_Z7programj+0xb30>
    8e60:	ee876b05 	vdiv.f64	d6, d7, d5
    8e64:	e24b3a01 	sub	r3, fp, #4096	; 0x1000
    8e68:	e243303c 	sub	r3, r3, #60	; 0x3c
    8e6c:	e1a01003 	mov	r1, r3
    8e70:	e51b2058 	ldr	r2, [fp, #-88]	; 0xffffffa8
    8e74:	e1a03002 	mov	r3, r2
    8e78:	e1a03083 	lsl	r3, r3, #1
    8e7c:	e0833002 	add	r3, r3, r2
    8e80:	e1a03203 	lsl	r3, r3, #4
    8e84:	e0813003 	add	r3, r1, r3
    8e88:	e2433e3a 	sub	r3, r3, #928	; 0x3a0
    8e8c:	ed937b00 	vldr	d7, [r3]
    8e90:	ee267b07 	vmul.f64	d7, d6, d7
    8e94:	e24b3a01 	sub	r3, fp, #4096	; 0x1000
    8e98:	e243303c 	sub	r3, r3, #60	; 0x3c
    8e9c:	e1a01003 	mov	r1, r3
    8ea0:	e51b2058 	ldr	r2, [fp, #-88]	; 0xffffffa8
    8ea4:	e1a03002 	mov	r3, r2
    8ea8:	e1a03083 	lsl	r3, r3, #1
    8eac:	e0833002 	add	r3, r3, r2
    8eb0:	e1a03203 	lsl	r3, r3, #4
    8eb4:	e0813003 	add	r3, r1, r3
    8eb8:	e2433e3a 	sub	r3, r3, #928	; 0x3a0
    8ebc:	ed837b00 	vstr	d7, [r3]
/home/hintik/dev/final/src/sources/userspace/user_task/main.cpp:284 (discriminator 2)
                    (populations[j]).b *= (rand(trng_file, 99, 101) / 100.0);
    8ec0:	e3a02065 	mov	r2, #101	; 0x65
    8ec4:	e3a01063 	mov	r1, #99	; 0x63
    8ec8:	e51b0060 	ldr	r0, [fp, #-96]	; 0xffffffa0
    8ecc:	eb00012f 	bl	9390 <_Z4randjjj>
    8ed0:	ee070a90 	vmov	s15, r0
    8ed4:	eeb87b67 	vcvt.f64.u32	d7, s15
    8ed8:	ed9f5bac 	vldr	d5, [pc, #688]	; 9190 <_Z7programj+0xb30>
    8edc:	ee876b05 	vdiv.f64	d6, d7, d5
    8ee0:	e24b3a01 	sub	r3, fp, #4096	; 0x1000
    8ee4:	e243303c 	sub	r3, r3, #60	; 0x3c
    8ee8:	e1a01003 	mov	r1, r3
    8eec:	e51b2058 	ldr	r2, [fp, #-88]	; 0xffffffa8
    8ef0:	e1a03002 	mov	r3, r2
    8ef4:	e1a03083 	lsl	r3, r3, #1
    8ef8:	e0833002 	add	r3, r3, r2
    8efc:	e1a03203 	lsl	r3, r3, #4
    8f00:	e0813003 	add	r3, r1, r3
    8f04:	e2433fe6 	sub	r3, r3, #920	; 0x398
    8f08:	ed937b00 	vldr	d7, [r3]
    8f0c:	ee267b07 	vmul.f64	d7, d6, d7
    8f10:	e24b3a01 	sub	r3, fp, #4096	; 0x1000
    8f14:	e243303c 	sub	r3, r3, #60	; 0x3c
    8f18:	e1a01003 	mov	r1, r3
    8f1c:	e51b2058 	ldr	r2, [fp, #-88]	; 0xffffffa8
    8f20:	e1a03002 	mov	r3, r2
    8f24:	e1a03083 	lsl	r3, r3, #1
    8f28:	e0833002 	add	r3, r3, r2
    8f2c:	e1a03203 	lsl	r3, r3, #4
    8f30:	e0813003 	add	r3, r1, r3
    8f34:	e2433fe6 	sub	r3, r3, #920	; 0x398
    8f38:	ed837b00 	vstr	d7, [r3]
/home/hintik/dev/final/src/sources/userspace/user_task/main.cpp:285 (discriminator 2)
                    (populations[j]).c *= (rand(trng_file, 99, 101) / 100.0);
    8f3c:	e3a02065 	mov	r2, #101	; 0x65
    8f40:	e3a01063 	mov	r1, #99	; 0x63
    8f44:	e51b0060 	ldr	r0, [fp, #-96]	; 0xffffffa0
    8f48:	eb000110 	bl	9390 <_Z4randjjj>
    8f4c:	ee070a90 	vmov	s15, r0
    8f50:	eeb87b67 	vcvt.f64.u32	d7, s15
    8f54:	ed9f5b8d 	vldr	d5, [pc, #564]	; 9190 <_Z7programj+0xb30>
    8f58:	ee876b05 	vdiv.f64	d6, d7, d5
    8f5c:	e24b3a01 	sub	r3, fp, #4096	; 0x1000
    8f60:	e243303c 	sub	r3, r3, #60	; 0x3c
    8f64:	e1a01003 	mov	r1, r3
    8f68:	e51b2058 	ldr	r2, [fp, #-88]	; 0xffffffa8
    8f6c:	e1a03002 	mov	r3, r2
    8f70:	e1a03083 	lsl	r3, r3, #1
    8f74:	e0833002 	add	r3, r3, r2
    8f78:	e1a03203 	lsl	r3, r3, #4
    8f7c:	e0813003 	add	r3, r1, r3
    8f80:	e2433e39 	sub	r3, r3, #912	; 0x390
    8f84:	ed937b00 	vldr	d7, [r3]
    8f88:	ee267b07 	vmul.f64	d7, d6, d7
    8f8c:	e24b3a01 	sub	r3, fp, #4096	; 0x1000
    8f90:	e243303c 	sub	r3, r3, #60	; 0x3c
    8f94:	e1a01003 	mov	r1, r3
    8f98:	e51b2058 	ldr	r2, [fp, #-88]	; 0xffffffa8
    8f9c:	e1a03002 	mov	r3, r2
    8fa0:	e1a03083 	lsl	r3, r3, #1
    8fa4:	e0833002 	add	r3, r3, r2
    8fa8:	e1a03203 	lsl	r3, r3, #4
    8fac:	e0813003 	add	r3, r1, r3
    8fb0:	e2433e39 	sub	r3, r3, #912	; 0x390
    8fb4:	ed837b00 	vstr	d7, [r3]
/home/hintik/dev/final/src/sources/userspace/user_task/main.cpp:286 (discriminator 2)
                    (populations[j]).d *= (rand(trng_file, 99, 101) / 100.0);
    8fb8:	e3a02065 	mov	r2, #101	; 0x65
    8fbc:	e3a01063 	mov	r1, #99	; 0x63
    8fc0:	e51b0060 	ldr	r0, [fp, #-96]	; 0xffffffa0
    8fc4:	eb0000f1 	bl	9390 <_Z4randjjj>
    8fc8:	ee070a90 	vmov	s15, r0
    8fcc:	eeb87b67 	vcvt.f64.u32	d7, s15
    8fd0:	ed9f5b6e 	vldr	d5, [pc, #440]	; 9190 <_Z7programj+0xb30>
    8fd4:	ee876b05 	vdiv.f64	d6, d7, d5
    8fd8:	e24b3a01 	sub	r3, fp, #4096	; 0x1000
    8fdc:	e243303c 	sub	r3, r3, #60	; 0x3c
    8fe0:	e1a01003 	mov	r1, r3
    8fe4:	e51b2058 	ldr	r2, [fp, #-88]	; 0xffffffa8
    8fe8:	e1a03002 	mov	r3, r2
    8fec:	e1a03083 	lsl	r3, r3, #1
    8ff0:	e0833002 	add	r3, r3, r2
    8ff4:	e1a03203 	lsl	r3, r3, #4
    8ff8:	e0813003 	add	r3, r1, r3
    8ffc:	e2433fe2 	sub	r3, r3, #904	; 0x388
    9000:	ed937b00 	vldr	d7, [r3]
    9004:	ee267b07 	vmul.f64	d7, d6, d7
    9008:	e24b3a01 	sub	r3, fp, #4096	; 0x1000
    900c:	e243303c 	sub	r3, r3, #60	; 0x3c
    9010:	e1a01003 	mov	r1, r3
    9014:	e51b2058 	ldr	r2, [fp, #-88]	; 0xffffffa8
    9018:	e1a03002 	mov	r3, r2
    901c:	e1a03083 	lsl	r3, r3, #1
    9020:	e0833002 	add	r3, r3, r2
    9024:	e1a03203 	lsl	r3, r3, #4
    9028:	e0813003 	add	r3, r1, r3
    902c:	e2433fe2 	sub	r3, r3, #904	; 0x388
    9030:	ed837b00 	vstr	d7, [r3]
/home/hintik/dev/final/src/sources/userspace/user_task/main.cpp:287 (discriminator 2)
                    (populations[j]).e *= (rand(trng_file, 99, 101) / 100.0);
    9034:	e3a02065 	mov	r2, #101	; 0x65
    9038:	e3a01063 	mov	r1, #99	; 0x63
    903c:	e51b0060 	ldr	r0, [fp, #-96]	; 0xffffffa0
    9040:	eb0000d2 	bl	9390 <_Z4randjjj>
    9044:	ee070a90 	vmov	s15, r0
    9048:	eeb87b67 	vcvt.f64.u32	d7, s15
    904c:	ed9f5b4f 	vldr	d5, [pc, #316]	; 9190 <_Z7programj+0xb30>
    9050:	ee876b05 	vdiv.f64	d6, d7, d5
    9054:	e24b3a01 	sub	r3, fp, #4096	; 0x1000
    9058:	e243303c 	sub	r3, r3, #60	; 0x3c
    905c:	e1a01003 	mov	r1, r3
    9060:	e51b2058 	ldr	r2, [fp, #-88]	; 0xffffffa8
    9064:	e1a03002 	mov	r3, r2
    9068:	e1a03083 	lsl	r3, r3, #1
    906c:	e0833002 	add	r3, r3, r2
    9070:	e1a03203 	lsl	r3, r3, #4
    9074:	e0813003 	add	r3, r1, r3
    9078:	e2433d0e 	sub	r3, r3, #896	; 0x380
    907c:	ed937b00 	vldr	d7, [r3]
    9080:	ee267b07 	vmul.f64	d7, d6, d7
    9084:	e24b3a01 	sub	r3, fp, #4096	; 0x1000
    9088:	e243303c 	sub	r3, r3, #60	; 0x3c
    908c:	e1a01003 	mov	r1, r3
    9090:	e51b2058 	ldr	r2, [fp, #-88]	; 0xffffffa8
    9094:	e1a03002 	mov	r3, r2
    9098:	e1a03083 	lsl	r3, r3, #1
    909c:	e0833002 	add	r3, r3, r2
    90a0:	e1a03203 	lsl	r3, r3, #4
    90a4:	e0813003 	add	r3, r1, r3
    90a8:	e2433d0e 	sub	r3, r3, #896	; 0x380
    90ac:	ed837b00 	vstr	d7, [r3]
/home/hintik/dev/final/src/sources/userspace/user_task/main.cpp:282 (discriminator 2)
                for (int j = 0; j < SOLUTION_SIZE; ++j) {
    90b0:	e51b3058 	ldr	r3, [fp, #-88]	; 0xffffffa8
    90b4:	e2833001 	add	r3, r3, #1
    90b8:	e50b3058 	str	r3, [fp, #-88]	; 0xffffffa8
    90bc:	eaffff5d 	b	8e38 <_Z7programj+0x7d8>
/home/hintik/dev/final/src/sources/userspace/user_task/main.cpp:290
                }
                
                for (int i = 0; i < SOLUTION_SIZE; i++) {
    90c0:	e3a03000 	mov	r3, #0
    90c4:	e50b305c 	str	r3, [fp, #-92]	; 0xffffffa4
/home/hintik/dev/final/src/sources/userspace/user_task/main.cpp:290 (discriminator 3)
    90c8:	e51b305c 	ldr	r3, [fp, #-92]	; 0xffffffa4
    90cc:	e3530063 	cmp	r3, #99	; 0x63
    90d0:	ca00003c 	bgt	91c8 <_Z7programj+0xb68>
/home/hintik/dev/final/src/sources/userspace/user_task/main.cpp:291 (discriminator 2)
                    populations[i].fitness(values[(index - (t_pred / t_delta)) % VALUE_ARRAY_SIZE], values[index]);
    90d4:	e24b2d4e 	sub	r2, fp, #4992	; 0x1380
    90d8:	e242203c 	sub	r2, r2, #60	; 0x3c
    90dc:	e2422028 	sub	r2, r2, #40	; 0x28
    90e0:	e51b105c 	ldr	r1, [fp, #-92]	; 0xffffffa4
    90e4:	e1a03001 	mov	r3, r1
    90e8:	e1a03083 	lsl	r3, r3, #1
    90ec:	e0833001 	add	r3, r3, r1
    90f0:	e1a03203 	lsl	r3, r3, #4
    90f4:	e0824003 	add	r4, r2, r3
    90f8:	e51b1068 	ldr	r1, [fp, #-104]	; 0xffffff98
    90fc:	e51b006c 	ldr	r0, [fp, #-108]	; 0xffffff94
    9100:	eb0008c0 	bl	b408 <__divsi3>
    9104:	e1a03000 	mov	r3, r0
    9108:	e1a02003 	mov	r2, r3
    910c:	e51b3044 	ldr	r3, [fp, #-68]	; 0xffffffbc
    9110:	e0431002 	sub	r1, r3, r2
    9114:	e59f30a4 	ldr	r3, [pc, #164]	; 91c0 <_Z7programj+0xb60>
    9118:	e0c32193 	smull	r2, r3, r3, r1
    911c:	e1a02243 	asr	r2, r3, #4
    9120:	e1a03fc1 	asr	r3, r1, #31
    9124:	e0422003 	sub	r2, r2, r3
    9128:	e1a03002 	mov	r3, r2
    912c:	e1a03103 	lsl	r3, r3, #2
    9130:	e0833002 	add	r3, r3, r2
    9134:	e1a03183 	lsl	r3, r3, #3
    9138:	e0412003 	sub	r2, r1, r3
    913c:	e1a03102 	lsl	r3, r2, #2
    9140:	e24b203c 	sub	r2, fp, #60	; 0x3c
    9144:	e0823003 	add	r3, r2, r3
    9148:	e24330e4 	sub	r3, r3, #228	; 0xe4
    914c:	edd37a00 	vldr	s15, [r3]
    9150:	eeb77ae7 	vcvt.f64.f32	d7, s15
    9154:	e51b3044 	ldr	r3, [fp, #-68]	; 0xffffffbc
    9158:	e1a03103 	lsl	r3, r3, #2
    915c:	e24b203c 	sub	r2, fp, #60	; 0x3c
    9160:	e0823003 	add	r3, r2, r3
    9164:	e24330e4 	sub	r3, r3, #228	; 0xe4
    9168:	edd36a00 	vldr	s13, [r3]
    916c:	eeb76ae6 	vcvt.f64.f32	d6, s13
    9170:	eeb01b46 	vmov.f64	d1, d6
    9174:	eeb00b47 	vmov.f64	d0, d7
    9178:	e1a00004 	mov	r0, r4
    917c:	eb00016f 	bl	9740 <_ZN10Parameters7fitnessEdd>
/home/hintik/dev/final/src/sources/userspace/user_task/main.cpp:290 (discriminator 2)
                for (int i = 0; i < SOLUTION_SIZE; i++) {
    9180:	e51b305c 	ldr	r3, [fp, #-92]	; 0xffffffa4
    9184:	e2833001 	add	r3, r3, #1
    9188:	e50b305c 	str	r3, [fp, #-92]	; 0xffffffa4
    918c:	eaffffcd 	b	90c8 <_Z7programj+0xa68>
    9190:	00000000 	andeq	r0, r0, r0
    9194:	40590000 	subsmi	r0, r9, r0
    9198:	0000bc14 	andeq	fp, r0, r4, lsl ip
    919c:	0000bc20 	andeq	fp, r0, r0, lsr #24
    91a0:	0000bc28 	andeq	fp, r0, r8, lsr #24
    91a4:	0000bc38 	andeq	fp, r0, r8, lsr ip
    91a8:	0000bc48 	andeq	fp, r0, r8, asr #24
    91ac:	0000bc50 	andeq	fp, r0, r0, asr ip
    91b0:	0000bc5c 	andeq	fp, r0, ip, asr ip
    91b4:	0000bc64 	andeq	fp, r0, r4, ror #24
    91b8:	0000bb80 	andeq	fp, r0, r0, lsl #23
    91bc:	0000bc70 	andeq	fp, r0, r0, ror ip
    91c0:	66666667 	strbtvs	r6, [r6], -r7, ror #12
    91c4:	0000bc74 	andeq	fp, r0, r4, ror ip
/home/hintik/dev/final/src/sources/userspace/user_task/main.cpp:295
                }

                // Razeni populace dle fitness funkce
                Quicksort(populations, 0, SOLUTION_SIZE - 1);
    91c8:	e24b3d4e 	sub	r3, fp, #4992	; 0x1380
    91cc:	e243303c 	sub	r3, r3, #60	; 0x3c
    91d0:	e2433028 	sub	r3, r3, #40	; 0x28
    91d4:	e3a02063 	mov	r2, #99	; 0x63
    91d8:	e3a01000 	mov	r1, #0
    91dc:	e1a00003 	mov	r0, r3
    91e0:	eb000110 	bl	9628 <_Z9QuicksortP10Parametersii>
/home/hintik/dev/final/src/sources/userspace/user_task/main.cpp:297

                float result_value = populations[0].fitness(values[(index - (t_pred / t_delta)) % VALUE_ARRAY_SIZE],
    91e4:	e51b1068 	ldr	r1, [fp, #-104]	; 0xffffff98
    91e8:	e51b006c 	ldr	r0, [fp, #-108]	; 0xffffff94
    91ec:	eb000885 	bl	b408 <__divsi3>
    91f0:	e1a03000 	mov	r3, r0
    91f4:	e1a02003 	mov	r2, r3
    91f8:	e51b3044 	ldr	r3, [fp, #-68]	; 0xffffffbc
    91fc:	e0431002 	sub	r1, r3, r2
    9200:	e51f3048 	ldr	r3, [pc, #-72]	; 91c0 <_Z7programj+0xb60>
    9204:	e0c32193 	smull	r2, r3, r3, r1
    9208:	e1a02243 	asr	r2, r3, #4
    920c:	e1a03fc1 	asr	r3, r1, #31
    9210:	e0422003 	sub	r2, r2, r3
    9214:	e1a03002 	mov	r3, r2
    9218:	e1a03103 	lsl	r3, r3, #2
    921c:	e0833002 	add	r3, r3, r2
    9220:	e1a03183 	lsl	r3, r3, #3
    9224:	e0412003 	sub	r2, r1, r3
    9228:	e1a03102 	lsl	r3, r2, #2
    922c:	e24b203c 	sub	r2, fp, #60	; 0x3c
    9230:	e0823003 	add	r3, r2, r3
    9234:	e24330e4 	sub	r3, r3, #228	; 0xe4
    9238:	edd37a00 	vldr	s15, [r3]
    923c:	eeb77ae7 	vcvt.f64.f32	d7, s15
/home/hintik/dev/final/src/sources/userspace/user_task/main.cpp:298
                                                            values[index]);
    9240:	e51b3044 	ldr	r3, [fp, #-68]	; 0xffffffbc
    9244:	e1a03103 	lsl	r3, r3, #2
    9248:	e24b203c 	sub	r2, fp, #60	; 0x3c
    924c:	e0823003 	add	r3, r2, r3
    9250:	e24330e4 	sub	r3, r3, #228	; 0xe4
    9254:	edd36a00 	vldr	s13, [r3]
/home/hintik/dev/final/src/sources/userspace/user_task/main.cpp:297
                float result_value = populations[0].fitness(values[(index - (t_pred / t_delta)) % VALUE_ARRAY_SIZE],
    9258:	eeb76ae6 	vcvt.f64.f32	d6, s13
    925c:	e24b3d4e 	sub	r3, fp, #4992	; 0x1380
    9260:	e243303c 	sub	r3, r3, #60	; 0x3c
    9264:	e2433028 	sub	r3, r3, #40	; 0x28
    9268:	eeb01b46 	vmov.f64	d1, d6
    926c:	eeb00b47 	vmov.f64	d0, d7
    9270:	e1a00003 	mov	r0, r3
    9274:	eb000131 	bl	9740 <_ZN10Parameters7fitnessEdd>
    9278:	eeb07b40 	vmov.f64	d7, d0
/home/hintik/dev/final/src/sources/userspace/user_task/main.cpp:298
                                                            values[index]);
    927c:	eef77bc7 	vcvt.f32.f64	s15, d7
    9280:	ed4b7a20 	vstr	s15, [fp, #-128]	; 0xffffff80
/home/hintik/dev/final/src/sources/userspace/user_task/main.cpp:300

                ftoa(result_value, input_buffer);
    9284:	e51b0064 	ldr	r0, [fp, #-100]	; 0xffffff9c
    9288:	ed1b0a20 	vldr	s0, [fp, #-128]	; 0xffffff80
    928c:	eb00044d 	bl	a3c8 <_Z4ftoafPc>
/home/hintik/dev/final/src/sources/userspace/user_task/main.cpp:301
                print_float_value_line(file, "", result_value, "\n");
    9290:	e24b3a02 	sub	r3, fp, #8192	; 0x2000
    9294:	e243303c 	sub	r3, r3, #60	; 0x3c
    9298:	e51f20e8 	ldr	r2, [pc, #-232]	; 91b8 <_Z7programj+0xb58>
    929c:	ed1b0a20 	vldr	s0, [fp, #-128]	; 0xffffff80
    92a0:	e51f10ec 	ldr	r1, [pc, #-236]	; 91bc <_Z7programj+0xb5c>
    92a4:	e513066c 	ldr	r0, [r3, #-1644]	; 0xfffff994
    92a8:	ebfffc66 	bl	8448 <_Z22print_float_value_linejPKcfS0_>
/home/hintik/dev/final/src/sources/userspace/user_task/main.cpp:304
            }

            index = (index + 1) % VALUE_ARRAY_SIZE;
    92ac:	e51b3044 	ldr	r3, [fp, #-68]	; 0xffffffbc
    92b0:	e2832001 	add	r2, r3, #1
    92b4:	e51f30fc 	ldr	r3, [pc, #-252]	; 91c0 <_Z7programj+0xb60>
    92b8:	e0c31293 	smull	r1, r3, r3, r2
    92bc:	e1a01243 	asr	r1, r3, #4
    92c0:	e1a03fc2 	asr	r3, r2, #31
    92c4:	e0411003 	sub	r1, r1, r3
    92c8:	e1a03001 	mov	r3, r1
    92cc:	e1a03103 	lsl	r3, r3, #2
    92d0:	e0833001 	add	r3, r3, r1
    92d4:	e1a03183 	lsl	r3, r3, #3
    92d8:	e0423003 	sub	r3, r2, r3
    92dc:	e50b3044 	str	r3, [fp, #-68]	; 0xffffffbc
/home/hintik/dev/final/src/sources/userspace/user_task/main.cpp:306

            continue;
    92e0:	ea000008 	b	9308 <_Z7programj+0xca8>
/home/hintik/dev/final/src/sources/userspace/user_task/main.cpp:310
        }

        // Vstup je nekorektni resp. neni prikaz ani hodnota
        fputs(file, "Nekorektni vstup\n");
    92e4:	e24b3a02 	sub	r3, fp, #8192	; 0x2000
    92e8:	e243303c 	sub	r3, r3, #60	; 0x3c
    92ec:	e51f1130 	ldr	r1, [pc, #-304]	; 91c4 <_Z7programj+0xb64>
    92f0:	e513066c 	ldr	r0, [r3, #-1644]	; 0xfffff994
    92f4:	ebfffbdb 	bl	8268 <_ZL5fputsjPKc>
    92f8:	eafffd75 	b	88d4 <_Z7programj+0x274>
/home/hintik/dev/final/src/sources/userspace/user_task/main.cpp:230
            continue;
    92fc:	e320f000 	nop	{0}
    9300:	eafffd73 	b	88d4 <_Z7programj+0x274>
/home/hintik/dev/final/src/sources/userspace/user_task/main.cpp:235
            continue;
    9304:	e320f000 	nop	{0}
/home/hintik/dev/final/src/sources/userspace/user_task/main.cpp:311
    }
    9308:	eafffd71 	b	88d4 <_Z7programj+0x274>

0000930c <main>:
main():
/home/hintik/dev/final/src/sources/userspace/user_task/main.cpp:322
 * Hlavni vstup do programu / procesu
 * @param argc
 * @param argv
 * @return
 */
int main(int argc, char **argv) {
    930c:	e92d4800 	push	{fp, lr}
    9310:	e28db004 	add	fp, sp, #4
    9314:	e24dd018 	sub	sp, sp, #24
    9318:	e50b0018 	str	r0, [fp, #-24]	; 0xffffffe8
    931c:	e50b101c 	str	r1, [fp, #-28]	; 0xffffffe4
/home/hintik/dev/final/src/sources/userspace/user_task/main.cpp:323
    uint32_t uart_file = open("DEV:uart/0", NFile_Open_Mode::Read_Write);
    9320:	e3a01002 	mov	r1, #2
    9324:	e59f0054 	ldr	r0, [pc, #84]	; 9380 <main+0x74>
    9328:	eb000204 	bl	9b40 <_Z4openPKc15NFile_Open_Mode>
    932c:	e50b0008 	str	r0, [fp, #-8]
/home/hintik/dev/final/src/sources/userspace/user_task/main.cpp:325
    TUART_IOCtl_Params params;
    params.baud_rate = NUART_Baud_Rate::BR_115200;
    9330:	e59f304c 	ldr	r3, [pc, #76]	; 9384 <main+0x78>
    9334:	e50b300c 	str	r3, [fp, #-12]
/home/hintik/dev/final/src/sources/userspace/user_task/main.cpp:326
    params.char_length = NUART_Char_Length::Char_8;
    9338:	e3a03001 	mov	r3, #1
    933c:	e50b3010 	str	r3, [fp, #-16]
/home/hintik/dev/final/src/sources/userspace/user_task/main.cpp:327
    ioctl(uart_file, NIOCtl_Operation::Set_Params, &params);
    9340:	e24b3010 	sub	r3, fp, #16
    9344:	e1a02003 	mov	r2, r3
    9348:	e3a01001 	mov	r1, #1
    934c:	e51b0008 	ldr	r0, [fp, #-8]
    9350:	eb00023e 	bl	9c50 <_Z5ioctlj16NIOCtl_OperationPv>
/home/hintik/dev/final/src/sources/userspace/user_task/main.cpp:329

    fputs(uart_file,
    9354:	e59f102c 	ldr	r1, [pc, #44]	; 9388 <main+0x7c>
    9358:	e51b0008 	ldr	r0, [fp, #-8]
    935c:	ebfffbc1 	bl	8268 <_ZL5fputsjPKc>
/home/hintik/dev/final/src/sources/userspace/user_task/main.cpp:334
          "CalcOS v1.0\nAutor: Jan Hinterholzinger (A22N0045P)\n"
          "Zadejte nejprve casovy rozestup a predikcni okenko v minutach\n"
          "Dale podporovany prikazy: stop, parameters\n");

    circBuffer.Claim();
    9360:	e59f0024 	ldr	r0, [pc, #36]	; 938c <main+0x80>
    9364:	eb000144 	bl	987c <_ZN6Buffer5ClaimEv>
/home/hintik/dev/final/src/sources/userspace/user_task/main.cpp:337

    // Spusteni podprogramu s vypoctem
    program(uart_file);
    9368:	e51b0008 	ldr	r0, [fp, #-8]
    936c:	ebfffcbb 	bl	8660 <_Z7programj>
/home/hintik/dev/final/src/sources/userspace/user_task/main.cpp:339

    return 0;
    9370:	e3a03000 	mov	r3, #0
/home/hintik/dev/final/src/sources/userspace/user_task/main.cpp:340
}
    9374:	e1a00003 	mov	r0, r3
    9378:	e24bd004 	sub	sp, fp, #4
    937c:	e8bd8800 	pop	{fp, pc}
    9380:	0000bc88 	andeq	fp, r0, r8, lsl #25
    9384:	0001c200 	andeq	ip, r1, r0, lsl #4
    9388:	0000bc94 	muleq	r0, r4, ip
    938c:	0000bdd8 	ldrdeq	fp, [r0], -r8

00009390 <_Z4randjjj>:
_Z4randjjj():
/home/hintik/dev/final/src/sources/userspace/user_task/main.cpp:349
 * @param file
 * @param output_start
 * @param output_end
 * @return
 */
unsigned int rand(uint32_t file, uint32_t output_start, uint32_t output_end) {
    9390:	e92d4800 	push	{fp, lr}
    9394:	e28db004 	add	fp, sp, #4
    9398:	e24dd028 	sub	sp, sp, #40	; 0x28
    939c:	e50b0020 	str	r0, [fp, #-32]	; 0xffffffe0
    93a0:	e50b1024 	str	r1, [fp, #-36]	; 0xffffffdc
    93a4:	e50b2028 	str	r2, [fp, #-40]	; 0xffffffd8
/home/hintik/dev/final/src/sources/userspace/user_task/main.cpp:350
    uint32_t input_start = 0;
    93a8:	e3a03000 	mov	r3, #0
    93ac:	e50b3008 	str	r3, [fp, #-8]
/home/hintik/dev/final/src/sources/userspace/user_task/main.cpp:351
    uint32_t input_end = 4294967295;
    93b0:	e3e03000 	mvn	r3, #0
    93b4:	e50b300c 	str	r3, [fp, #-12]
/home/hintik/dev/final/src/sources/userspace/user_task/main.cpp:353

    uint32_t num = 0;
    93b8:	e3a03000 	mov	r3, #0
    93bc:	e50b3018 	str	r3, [fp, #-24]	; 0xffffffe8
/home/hintik/dev/final/src/sources/userspace/user_task/main.cpp:354
    read(file, reinterpret_cast<char *>(&num), sizeof(num));
    93c0:	e24b3018 	sub	r3, fp, #24
    93c4:	e3a02004 	mov	r2, #4
    93c8:	e1a01003 	mov	r1, r3
    93cc:	e51b0020 	ldr	r0, [fp, #-32]	; 0xffffffe0
    93d0:	eb0001eb 	bl	9b84 <_Z4readjPcj>
/home/hintik/dev/final/src/sources/userspace/user_task/main.cpp:355
    double slope = 1.0 * (output_end - output_start) / (input_end - input_start);
    93d4:	e51b2028 	ldr	r2, [fp, #-40]	; 0xffffffd8
    93d8:	e51b3024 	ldr	r3, [fp, #-36]	; 0xffffffdc
    93dc:	e0423003 	sub	r3, r2, r3
    93e0:	ee073a90 	vmov	s15, r3
    93e4:	eeb85b67 	vcvt.f64.u32	d5, s15
    93e8:	e51b200c 	ldr	r2, [fp, #-12]
    93ec:	e51b3008 	ldr	r3, [fp, #-8]
    93f0:	e0423003 	sub	r3, r2, r3
    93f4:	ee073a90 	vmov	s15, r3
    93f8:	eeb86b67 	vcvt.f64.u32	d6, s15
    93fc:	ee857b06 	vdiv.f64	d7, d5, d6
    9400:	ed0b7b05 	vstr	d7, [fp, #-20]	; 0xffffffec
/home/hintik/dev/final/src/sources/userspace/user_task/main.cpp:356
    return output_start + slope * (num - input_start);
    9404:	e51b3024 	ldr	r3, [fp, #-36]	; 0xffffffdc
    9408:	ee073a90 	vmov	s15, r3
    940c:	eeb86b67 	vcvt.f64.u32	d6, s15
    9410:	e51b2018 	ldr	r2, [fp, #-24]	; 0xffffffe8
    9414:	e51b3008 	ldr	r3, [fp, #-8]
    9418:	e0423003 	sub	r3, r2, r3
    941c:	ee073a90 	vmov	s15, r3
    9420:	eeb85b67 	vcvt.f64.u32	d5, s15
    9424:	ed1b7b05 	vldr	d7, [fp, #-20]	; 0xffffffec
    9428:	ee257b07 	vmul.f64	d7, d5, d7
    942c:	ee367b07 	vadd.f64	d7, d6, d7
    9430:	eefc7bc7 	vcvt.u32.f64	s15, d7
    9434:	ee173a90 	vmov	r3, s15
/home/hintik/dev/final/src/sources/userspace/user_task/main.cpp:357
}
    9438:	e1a00003 	mov	r0, r3
    943c:	e24bd004 	sub	sp, fp, #4
    9440:	e8bd8800 	pop	{fp, pc}

00009444 <_Z9PartitionP10Parametersii>:
_Z9PartitionP10Parametersii():
/home/hintik/dev/final/src/sources/userspace/user_task/main.cpp:360

// last element is taken as pivot
int Partition(Parameters v[], int start, int end) {
    9444:	e92d4800 	push	{fp, lr}
    9448:	e28db004 	add	fp, sp, #4
    944c:	e24dd020 	sub	sp, sp, #32
    9450:	e50b0018 	str	r0, [fp, #-24]	; 0xffffffe8
    9454:	e50b101c 	str	r1, [fp, #-28]	; 0xffffffe4
    9458:	e50b2020 	str	r2, [fp, #-32]	; 0xffffffe0
/home/hintik/dev/final/src/sources/userspace/user_task/main.cpp:362

    int pivot = end;
    945c:	e51b3020 	ldr	r3, [fp, #-32]	; 0xffffffe0
    9460:	e50b3010 	str	r3, [fp, #-16]
/home/hintik/dev/final/src/sources/userspace/user_task/main.cpp:363
    int j = start;
    9464:	e51b301c 	ldr	r3, [fp, #-28]	; 0xffffffe4
    9468:	e50b3008 	str	r3, [fp, #-8]
/home/hintik/dev/final/src/sources/userspace/user_task/main.cpp:364
    for (int i = start; i < end; i++) {
    946c:	e51b301c 	ldr	r3, [fp, #-28]	; 0xffffffe4
    9470:	e50b300c 	str	r3, [fp, #-12]
/home/hintik/dev/final/src/sources/userspace/user_task/main.cpp:364 (discriminator 1)
    9474:	e51b200c 	ldr	r2, [fp, #-12]
    9478:	e51b3020 	ldr	r3, [fp, #-32]	; 0xffffffe0
    947c:	e1520003 	cmp	r2, r3
    9480:	aa00001f 	bge	9504 <_Z9PartitionP10Parametersii+0xc0>
/home/hintik/dev/final/src/sources/userspace/user_task/main.cpp:365
        if (v[i].rank < v[pivot].rank) {
    9484:	e51b200c 	ldr	r2, [fp, #-12]
    9488:	e1a03002 	mov	r3, r2
    948c:	e1a03083 	lsl	r3, r3, #1
    9490:	e0833002 	add	r3, r3, r2
    9494:	e1a03203 	lsl	r3, r3, #4
    9498:	e1a02003 	mov	r2, r3
    949c:	e51b3018 	ldr	r3, [fp, #-24]	; 0xffffffe8
    94a0:	e0833002 	add	r3, r3, r2
    94a4:	ed936b00 	vldr	d6, [r3]
    94a8:	e51b2010 	ldr	r2, [fp, #-16]
    94ac:	e1a03002 	mov	r3, r2
    94b0:	e1a03083 	lsl	r3, r3, #1
    94b4:	e0833002 	add	r3, r3, r2
    94b8:	e1a03203 	lsl	r3, r3, #4
    94bc:	e1a02003 	mov	r2, r3
    94c0:	e51b3018 	ldr	r3, [fp, #-24]	; 0xffffffe8
    94c4:	e0833002 	add	r3, r3, r2
    94c8:	ed937b00 	vldr	d7, [r3]
    94cc:	eeb46bc7 	vcmpe.f64	d6, d7
    94d0:	eef1fa10 	vmrs	APSR_nzcv, fpscr
    94d4:	5a000006 	bpl	94f4 <_Z9PartitionP10Parametersii+0xb0>
/home/hintik/dev/final/src/sources/userspace/user_task/main.cpp:366
            swap(v, i, j);
    94d8:	e51b2008 	ldr	r2, [fp, #-8]
    94dc:	e51b100c 	ldr	r1, [fp, #-12]
    94e0:	e51b0018 	ldr	r0, [fp, #-24]	; 0xffffffe8
    94e4:	eb00000e 	bl	9524 <_Z4swapP10Parametersii>
/home/hintik/dev/final/src/sources/userspace/user_task/main.cpp:367
            ++j;
    94e8:	e51b3008 	ldr	r3, [fp, #-8]
    94ec:	e2833001 	add	r3, r3, #1
    94f0:	e50b3008 	str	r3, [fp, #-8]
/home/hintik/dev/final/src/sources/userspace/user_task/main.cpp:364 (discriminator 2)
    for (int i = start; i < end; i++) {
    94f4:	e51b300c 	ldr	r3, [fp, #-12]
    94f8:	e2833001 	add	r3, r3, #1
    94fc:	e50b300c 	str	r3, [fp, #-12]
    9500:	eaffffdb 	b	9474 <_Z9PartitionP10Parametersii+0x30>
/home/hintik/dev/final/src/sources/userspace/user_task/main.cpp:370
        }
    }
    swap(v, j, pivot);
    9504:	e51b2010 	ldr	r2, [fp, #-16]
    9508:	e51b1008 	ldr	r1, [fp, #-8]
    950c:	e51b0018 	ldr	r0, [fp, #-24]	; 0xffffffe8
    9510:	eb000003 	bl	9524 <_Z4swapP10Parametersii>
/home/hintik/dev/final/src/sources/userspace/user_task/main.cpp:371
    return j;
    9514:	e51b3008 	ldr	r3, [fp, #-8]
/home/hintik/dev/final/src/sources/userspace/user_task/main.cpp:373

}
    9518:	e1a00003 	mov	r0, r3
    951c:	e24bd004 	sub	sp, fp, #4
    9520:	e8bd8800 	pop	{fp, pc}

00009524 <_Z4swapP10Parametersii>:
_Z4swapP10Parametersii():
/home/hintik/dev/final/src/sources/userspace/user_task/main.cpp:375

void swap(Parameters arr[], int pos1, int pos2) {
    9524:	e92d4800 	push	{fp, lr}
    9528:	e28db004 	add	fp, sp, #4
    952c:	e24dd040 	sub	sp, sp, #64	; 0x40
    9530:	e50b0038 	str	r0, [fp, #-56]	; 0xffffffc8
    9534:	e50b103c 	str	r1, [fp, #-60]	; 0xffffffc4
    9538:	e50b2040 	str	r2, [fp, #-64]	; 0xffffffc0
/home/hintik/dev/final/src/sources/userspace/user_task/main.cpp:376
    Parameters temp = arr[pos1];
    953c:	e51b203c 	ldr	r2, [fp, #-60]	; 0xffffffc4
    9540:	e1a03002 	mov	r3, r2
    9544:	e1a03083 	lsl	r3, r3, #1
    9548:	e0833002 	add	r3, r3, r2
    954c:	e1a03203 	lsl	r3, r3, #4
    9550:	e1a02003 	mov	r2, r3
    9554:	e51b3038 	ldr	r3, [fp, #-56]	; 0xffffffc8
    9558:	e0833002 	add	r3, r3, r2
    955c:	e24bc034 	sub	ip, fp, #52	; 0x34
    9560:	e1a0e003 	mov	lr, r3
    9564:	e8be000f 	ldm	lr!, {r0, r1, r2, r3}
    9568:	e8ac000f 	stmia	ip!, {r0, r1, r2, r3}
    956c:	e8be000f 	ldm	lr!, {r0, r1, r2, r3}
    9570:	e8ac000f 	stmia	ip!, {r0, r1, r2, r3}
    9574:	e89e000f 	ldm	lr, {r0, r1, r2, r3}
    9578:	e88c000f 	stm	ip, {r0, r1, r2, r3}
/home/hintik/dev/final/src/sources/userspace/user_task/main.cpp:377
    arr[pos1] = arr[pos2];
    957c:	e51b2040 	ldr	r2, [fp, #-64]	; 0xffffffc0
    9580:	e1a03002 	mov	r3, r2
    9584:	e1a03083 	lsl	r3, r3, #1
    9588:	e0833002 	add	r3, r3, r2
    958c:	e1a03203 	lsl	r3, r3, #4
    9590:	e1a02003 	mov	r2, r3
    9594:	e51b3038 	ldr	r3, [fp, #-56]	; 0xffffffc8
    9598:	e0831002 	add	r1, r3, r2
    959c:	e51b203c 	ldr	r2, [fp, #-60]	; 0xffffffc4
    95a0:	e1a03002 	mov	r3, r2
    95a4:	e1a03083 	lsl	r3, r3, #1
    95a8:	e0833002 	add	r3, r3, r2
    95ac:	e1a03203 	lsl	r3, r3, #4
    95b0:	e1a02003 	mov	r2, r3
    95b4:	e51b3038 	ldr	r3, [fp, #-56]	; 0xffffffc8
    95b8:	e0833002 	add	r3, r3, r2
    95bc:	e1a0c003 	mov	ip, r3
    95c0:	e1a0e001 	mov	lr, r1
    95c4:	e8be000f 	ldm	lr!, {r0, r1, r2, r3}
    95c8:	e8ac000f 	stmia	ip!, {r0, r1, r2, r3}
    95cc:	e8be000f 	ldm	lr!, {r0, r1, r2, r3}
    95d0:	e8ac000f 	stmia	ip!, {r0, r1, r2, r3}
    95d4:	e89e000f 	ldm	lr, {r0, r1, r2, r3}
    95d8:	e88c000f 	stm	ip, {r0, r1, r2, r3}
/home/hintik/dev/final/src/sources/userspace/user_task/main.cpp:378
    arr[pos2] = temp;
    95dc:	e51b2040 	ldr	r2, [fp, #-64]	; 0xffffffc0
    95e0:	e1a03002 	mov	r3, r2
    95e4:	e1a03083 	lsl	r3, r3, #1
    95e8:	e0833002 	add	r3, r3, r2
    95ec:	e1a03203 	lsl	r3, r3, #4
    95f0:	e1a02003 	mov	r2, r3
    95f4:	e51b3038 	ldr	r3, [fp, #-56]	; 0xffffffc8
    95f8:	e0833002 	add	r3, r3, r2
    95fc:	e1a0e003 	mov	lr, r3
    9600:	e24bc034 	sub	ip, fp, #52	; 0x34
    9604:	e8bc000f 	ldm	ip!, {r0, r1, r2, r3}
    9608:	e8ae000f 	stmia	lr!, {r0, r1, r2, r3}
    960c:	e8bc000f 	ldm	ip!, {r0, r1, r2, r3}
    9610:	e8ae000f 	stmia	lr!, {r0, r1, r2, r3}
    9614:	e89c000f 	ldm	ip, {r0, r1, r2, r3}
    9618:	e88e000f 	stm	lr, {r0, r1, r2, r3}
/home/hintik/dev/final/src/sources/userspace/user_task/main.cpp:379
}
    961c:	e320f000 	nop	{0}
    9620:	e24bd004 	sub	sp, fp, #4
    9624:	e8bd8800 	pop	{fp, pc}

00009628 <_Z9QuicksortP10Parametersii>:
_Z9QuicksortP10Parametersii():
/home/hintik/dev/final/src/sources/userspace/user_task/main.cpp:387
 * Implementace QuickSortu pro razeni populaci dle fitness funkce
 * @param v
 * @param start
 * @param end
 */
void Quicksort(Parameters v[], int start, int end) {
    9628:	e92d4800 	push	{fp, lr}
    962c:	e28db004 	add	fp, sp, #4
    9630:	e24dd018 	sub	sp, sp, #24
    9634:	e50b0010 	str	r0, [fp, #-16]
    9638:	e50b1014 	str	r1, [fp, #-20]	; 0xffffffec
    963c:	e50b2018 	str	r2, [fp, #-24]	; 0xffffffe8
/home/hintik/dev/final/src/sources/userspace/user_task/main.cpp:388
    if (start < end) {
    9640:	e51b2014 	ldr	r2, [fp, #-20]	; 0xffffffec
    9644:	e51b3018 	ldr	r3, [fp, #-24]	; 0xffffffe8
    9648:	e1520003 	cmp	r2, r3
    964c:	aa000010 	bge	9694 <_Z9QuicksortP10Parametersii+0x6c>
/home/hintik/dev/final/src/sources/userspace/user_task/main.cpp:389
        int p = Partition(v, start, end);
    9650:	e51b2018 	ldr	r2, [fp, #-24]	; 0xffffffe8
    9654:	e51b1014 	ldr	r1, [fp, #-20]	; 0xffffffec
    9658:	e51b0010 	ldr	r0, [fp, #-16]
    965c:	ebffff78 	bl	9444 <_Z9PartitionP10Parametersii>
    9660:	e50b0008 	str	r0, [fp, #-8]
/home/hintik/dev/final/src/sources/userspace/user_task/main.cpp:390
        Quicksort(v, start, p - 1);
    9664:	e51b3008 	ldr	r3, [fp, #-8]
    9668:	e2433001 	sub	r3, r3, #1
    966c:	e1a02003 	mov	r2, r3
    9670:	e51b1014 	ldr	r1, [fp, #-20]	; 0xffffffec
    9674:	e51b0010 	ldr	r0, [fp, #-16]
    9678:	ebffffea 	bl	9628 <_Z9QuicksortP10Parametersii>
/home/hintik/dev/final/src/sources/userspace/user_task/main.cpp:391
        Quicksort(v, p + 1, end);
    967c:	e51b3008 	ldr	r3, [fp, #-8]
    9680:	e2833001 	add	r3, r3, #1
    9684:	e51b2018 	ldr	r2, [fp, #-24]	; 0xffffffe8
    9688:	e1a01003 	mov	r1, r3
    968c:	e51b0010 	ldr	r0, [fp, #-16]
    9690:	ebffffe4 	bl	9628 <_Z9QuicksortP10Parametersii>
/home/hintik/dev/final/src/sources/userspace/user_task/main.cpp:393
    }
}
    9694:	e320f000 	nop	{0}
    9698:	e24bd004 	sub	sp, fp, #4
    969c:	e8bd8800 	pop	{fp, pc}

000096a0 <_Znaj>:
_Znaj():
/home/hintik/dev/final/src/sources/userspace/../stdlib/include/stdmemory.h:45
{
    return sUserHeap.Alloc(size);
}

inline void* operator new[](uint32_t size)
{
    96a0:	e92d4800 	push	{fp, lr}
    96a4:	e28db004 	add	fp, sp, #4
    96a8:	e24dd008 	sub	sp, sp, #8
    96ac:	e50b0008 	str	r0, [fp, #-8]
/home/hintik/dev/final/src/sources/userspace/../stdlib/include/stdmemory.h:46
    return sUserHeap.Alloc(size);
    96b0:	e51b1008 	ldr	r1, [fp, #-8]
    96b4:	e59f0010 	ldr	r0, [pc, #16]	; 96cc <_Znaj+0x2c>
    96b8:	eb0002a7 	bl	a15c <_ZN12CUserHeapMan5AllocEj>
    96bc:	e1a03000 	mov	r3, r0
/home/hintik/dev/final/src/sources/userspace/../stdlib/include/stdmemory.h:47
}
    96c0:	e1a00003 	mov	r0, r3
    96c4:	e24bd004 	sub	sp, fp, #4
    96c8:	e8bd8800 	pop	{fp, pc}
    96cc:	0000bee4 	andeq	fp, r0, r4, ror #29

000096d0 <_ZN10Parameters2btEd>:
_ZN10Parameters2btEd():
/home/hintik/dev/final/src/sources/userspace/user_task/main.cpp:32
    double bt(double y) {
    96d0:	e52db004 	push	{fp}		; (str fp, [sp, #-4]!)
    96d4:	e28db000 	add	fp, sp, #0
    96d8:	e24dd014 	sub	sp, sp, #20
    96dc:	e50b0008 	str	r0, [fp, #-8]
    96e0:	ed0b0b05 	vstr	d0, [fp, #-20]	; 0xffffffec
/home/hintik/dev/final/src/sources/userspace/user_task/main.cpp:33
        return d / e * (1.0 / (24.0 * 60.0 * 60.0)) + 1 / e * y;
    96e4:	e51b3008 	ldr	r3, [fp, #-8]
    96e8:	ed935b08 	vldr	d5, [r3, #32]
    96ec:	e51b3008 	ldr	r3, [fp, #-8]
    96f0:	ed936b0a 	vldr	d6, [r3, #40]	; 0x28
    96f4:	ee857b06 	vdiv.f64	d7, d5, d6
    96f8:	ed9f6b0c 	vldr	d6, [pc, #48]	; 9730 <_ZN10Parameters2btEd+0x60>
    96fc:	ee276b06 	vmul.f64	d6, d7, d6
    9700:	e51b3008 	ldr	r3, [fp, #-8]
    9704:	ed937b0a 	vldr	d7, [r3, #40]	; 0x28
    9708:	ed9f4b0a 	vldr	d4, [pc, #40]	; 9738 <_ZN10Parameters2btEd+0x68>
    970c:	ee845b07 	vdiv.f64	d5, d4, d7
    9710:	ed1b7b05 	vldr	d7, [fp, #-20]	; 0xffffffec
    9714:	ee257b07 	vmul.f64	d7, d5, d7
    9718:	ee367b07 	vadd.f64	d7, d6, d7
/home/hintik/dev/final/src/sources/userspace/user_task/main.cpp:34
    }
    971c:	eeb00b47 	vmov.f64	d0, d7
    9720:	e28bd000 	add	sp, fp, #0
    9724:	e49db004 	pop	{fp}		; (ldr fp, [sp], #4)
    9728:	e12fff1e 	bx	lr
    972c:	e320f000 	nop	{0}
    9730:	a0ce5129 	sbcge	r5, lr, r9, lsr #2
    9734:	3ee845c8 	cdpcc	5, 14, cr4, cr8, cr8, {6}
    9738:	00000000 	andeq	r0, r0, r0
    973c:	3ff00000 	svccc	0x00f00000	; IMB

00009740 <_ZN10Parameters7fitnessEdd>:
_ZN10Parameters7fitnessEdd():
/home/hintik/dev/final/src/sources/userspace/user_task/main.cpp:42
    double fitness(double t_pred, double y_real) {
    9740:	e92d4800 	push	{fp, lr}
    9744:	ed2d8b04 	vpush	{d8-d9}
    9748:	e28db014 	add	fp, sp, #20
    974c:	e24dd020 	sub	sp, sp, #32
    9750:	e50b0020 	str	r0, [fp, #-32]	; 0xffffffe0
    9754:	ed0b0b0b 	vstr	d0, [fp, #-44]	; 0xffffffd4
    9758:	ed0b1b0d 	vstr	d1, [fp, #-52]	; 0xffffffcc
/home/hintik/dev/final/src/sources/userspace/user_task/main.cpp:44
        double ans = bt(t_pred) * a + b * bt(t_pred) * (bt(t_pred) - t_pred) + c;
    975c:	ed1b0b0b 	vldr	d0, [fp, #-44]	; 0xffffffd4
    9760:	e51b0020 	ldr	r0, [fp, #-32]	; 0xffffffe0
    9764:	ebffffd9 	bl	96d0 <_ZN10Parameters2btEd>
    9768:	eeb06b40 	vmov.f64	d6, d0
    976c:	e51b3020 	ldr	r3, [fp, #-32]	; 0xffffffe0
    9770:	ed937b02 	vldr	d7, [r3, #8]
    9774:	ee268b07 	vmul.f64	d8, d6, d7
    9778:	e51b3020 	ldr	r3, [fp, #-32]	; 0xffffffe0
    977c:	ed939b04 	vldr	d9, [r3, #16]
    9780:	ed1b0b0b 	vldr	d0, [fp, #-44]	; 0xffffffd4
    9784:	e51b0020 	ldr	r0, [fp, #-32]	; 0xffffffe0
    9788:	ebffffd0 	bl	96d0 <_ZN10Parameters2btEd>
    978c:	eeb07b40 	vmov.f64	d7, d0
    9790:	ee299b07 	vmul.f64	d9, d9, d7
    9794:	ed1b0b0b 	vldr	d0, [fp, #-44]	; 0xffffffd4
    9798:	e51b0020 	ldr	r0, [fp, #-32]	; 0xffffffe0
    979c:	ebffffcb 	bl	96d0 <_ZN10Parameters2btEd>
    97a0:	eeb06b40 	vmov.f64	d6, d0
    97a4:	ed1b7b0b 	vldr	d7, [fp, #-44]	; 0xffffffd4
    97a8:	ee367b47 	vsub.f64	d7, d6, d7
    97ac:	ee297b07 	vmul.f64	d7, d9, d7
    97b0:	ee386b07 	vadd.f64	d6, d8, d7
    97b4:	e51b3020 	ldr	r3, [fp, #-32]	; 0xffffffe0
    97b8:	ed937b06 	vldr	d7, [r3, #24]
    97bc:	ee367b07 	vadd.f64	d7, d6, d7
    97c0:	ed0b7b07 	vstr	d7, [fp, #-28]	; 0xffffffe4
/home/hintik/dev/final/src/sources/userspace/user_task/main.cpp:46
        rank = abs(ans - y_real);
    97c4:	ed1b6b07 	vldr	d6, [fp, #-28]	; 0xffffffe4
    97c8:	ed1b7b0d 	vldr	d7, [fp, #-52]	; 0xffffffcc
    97cc:	ee367b47 	vsub.f64	d7, d6, d7
    97d0:	eeb00b47 	vmov.f64	d0, d7
    97d4:	ebfffa93 	bl	8228 <_Z3absd>
    97d8:	eeb07b40 	vmov.f64	d7, d0
    97dc:	e51b3020 	ldr	r3, [fp, #-32]	; 0xffffffe0
    97e0:	ed837b00 	vstr	d7, [r3]
/home/hintik/dev/final/src/sources/userspace/user_task/main.cpp:48
        return ans;
    97e4:	e14b21dc 	ldrd	r2, [fp, #-28]	; 0xffffffe4
    97e8:	ec432b17 	vmov	d7, r2, r3
/home/hintik/dev/final/src/sources/userspace/user_task/main.cpp:49
    }
    97ec:	eeb00b47 	vmov.f64	d0, d7
    97f0:	e24bd014 	sub	sp, fp, #20
    97f4:	ecbd8b04 	vpop	{d8-d9}
    97f8:	e8bd8800 	pop	{fp, pc}

000097fc <_ZN6BufferC1Ev>:
_ZN6BufferC2Ev():
/home/hintik/dev/final/src/sources/stdlib/src/stdbuffer.cpp:5
#include <stdbuffer.h>

Buffer circBuffer;

Buffer::Buffer()
    97fc:	e52db004 	push	{fp}		; (str fp, [sp, #-4]!)
    9800:	e28db000 	add	fp, sp, #0
    9804:	e24dd014 	sub	sp, sp, #20
    9808:	e50b0010 	str	r0, [fp, #-16]
/home/hintik/dev/final/src/sources/stdlib/src/stdbuffer.cpp:6
    : mPushPtr(0), mPullPtr(0), mClaimed(false)
    980c:	e51b3010 	ldr	r3, [fp, #-16]
    9810:	e3a02000 	mov	r2, #0
    9814:	e5c32100 	strb	r2, [r3, #256]	; 0x100
    9818:	e51b3010 	ldr	r3, [fp, #-16]
    981c:	e3a02000 	mov	r2, #0
    9820:	e5832104 	str	r2, [r3, #260]	; 0x104
    9824:	e51b3010 	ldr	r3, [fp, #-16]
    9828:	e3a02000 	mov	r2, #0
    982c:	e5832108 	str	r2, [r3, #264]	; 0x108
/home/hintik/dev/final/src/sources/stdlib/src/stdbuffer.cpp:8
{
    for(int i = 0; i < buffer_constants::BUFFER_SIZE; i++)
    9830:	e3a03000 	mov	r3, #0
    9834:	e50b3008 	str	r3, [fp, #-8]
/home/hintik/dev/final/src/sources/stdlib/src/stdbuffer.cpp:8 (discriminator 3)
    9838:	e51b3008 	ldr	r3, [fp, #-8]
    983c:	e35300ff 	cmp	r3, #255	; 0xff
    9840:	ca000008 	bgt	9868 <_ZN6BufferC1Ev+0x6c>
/home/hintik/dev/final/src/sources/stdlib/src/stdbuffer.cpp:10 (discriminator 2)
    {
        mBuffer[i] = '\0';
    9844:	e51b2010 	ldr	r2, [fp, #-16]
    9848:	e51b3008 	ldr	r3, [fp, #-8]
    984c:	e0823003 	add	r3, r2, r3
    9850:	e3a02000 	mov	r2, #0
    9854:	e5c32000 	strb	r2, [r3]
/home/hintik/dev/final/src/sources/stdlib/src/stdbuffer.cpp:8 (discriminator 2)
    for(int i = 0; i < buffer_constants::BUFFER_SIZE; i++)
    9858:	e51b3008 	ldr	r3, [fp, #-8]
    985c:	e2833001 	add	r3, r3, #1
    9860:	e50b3008 	str	r3, [fp, #-8]
    9864:	eafffff3 	b	9838 <_ZN6BufferC1Ev+0x3c>
/home/hintik/dev/final/src/sources/stdlib/src/stdbuffer.cpp:12
    }
}
    9868:	e51b3010 	ldr	r3, [fp, #-16]
    986c:	e1a00003 	mov	r0, r3
    9870:	e28bd000 	add	sp, fp, #0
    9874:	e49db004 	pop	{fp}		; (ldr fp, [sp], #4)
    9878:	e12fff1e 	bx	lr

0000987c <_ZN6Buffer5ClaimEv>:
_ZN6Buffer5ClaimEv():
/home/hintik/dev/final/src/sources/stdlib/src/stdbuffer.cpp:15

bool Buffer::Claim()
{
    987c:	e52db004 	push	{fp}		; (str fp, [sp, #-4]!)
    9880:	e28db000 	add	fp, sp, #0
    9884:	e24dd00c 	sub	sp, sp, #12
    9888:	e50b0008 	str	r0, [fp, #-8]
/home/hintik/dev/final/src/sources/stdlib/src/stdbuffer.cpp:16
    if(mClaimed)
    988c:	e51b3008 	ldr	r3, [fp, #-8]
    9890:	e5d33100 	ldrb	r3, [r3, #256]	; 0x100
    9894:	e3530000 	cmp	r3, #0
    9898:	0a000001 	beq	98a4 <_ZN6Buffer5ClaimEv+0x28>
/home/hintik/dev/final/src/sources/stdlib/src/stdbuffer.cpp:17
        return false;
    989c:	e3a03000 	mov	r3, #0
    98a0:	ea000003 	b	98b4 <_ZN6Buffer5ClaimEv+0x38>
/home/hintik/dev/final/src/sources/stdlib/src/stdbuffer.cpp:19
        
    mClaimed = true;
    98a4:	e51b3008 	ldr	r3, [fp, #-8]
    98a8:	e3a02001 	mov	r2, #1
    98ac:	e5c32100 	strb	r2, [r3, #256]	; 0x100
/home/hintik/dev/final/src/sources/stdlib/src/stdbuffer.cpp:20
    return true;
    98b0:	e3a03001 	mov	r3, #1
/home/hintik/dev/final/src/sources/stdlib/src/stdbuffer.cpp:21
}
    98b4:	e1a00003 	mov	r0, r3
    98b8:	e28bd000 	add	sp, fp, #0
    98bc:	e49db004 	pop	{fp}		; (ldr fp, [sp], #4)
    98c0:	e12fff1e 	bx	lr

000098c4 <_ZN6Buffer7ReleaseEv>:
_ZN6Buffer7ReleaseEv():
/home/hintik/dev/final/src/sources/stdlib/src/stdbuffer.cpp:24

void Buffer::Release()
{
    98c4:	e52db004 	push	{fp}		; (str fp, [sp, #-4]!)
    98c8:	e28db000 	add	fp, sp, #0
    98cc:	e24dd014 	sub	sp, sp, #20
    98d0:	e50b0010 	str	r0, [fp, #-16]
/home/hintik/dev/final/src/sources/stdlib/src/stdbuffer.cpp:25
    for(int i = 0; i <= buffer_constants::BUFFER_SIZE; i++)
    98d4:	e3a03000 	mov	r3, #0
    98d8:	e50b3008 	str	r3, [fp, #-8]
/home/hintik/dev/final/src/sources/stdlib/src/stdbuffer.cpp:25 (discriminator 3)
    98dc:	e51b3008 	ldr	r3, [fp, #-8]
    98e0:	e3530c01 	cmp	r3, #256	; 0x100
    98e4:	ca000008 	bgt	990c <_ZN6Buffer7ReleaseEv+0x48>
/home/hintik/dev/final/src/sources/stdlib/src/stdbuffer.cpp:27 (discriminator 2)
    {
        mBuffer[i] = '\0';
    98e8:	e51b2010 	ldr	r2, [fp, #-16]
    98ec:	e51b3008 	ldr	r3, [fp, #-8]
    98f0:	e0823003 	add	r3, r2, r3
    98f4:	e3a02000 	mov	r2, #0
    98f8:	e5c32000 	strb	r2, [r3]
/home/hintik/dev/final/src/sources/stdlib/src/stdbuffer.cpp:25 (discriminator 2)
    for(int i = 0; i <= buffer_constants::BUFFER_SIZE; i++)
    98fc:	e51b3008 	ldr	r3, [fp, #-8]
    9900:	e2833001 	add	r3, r3, #1
    9904:	e50b3008 	str	r3, [fp, #-8]
    9908:	eafffff3 	b	98dc <_ZN6Buffer7ReleaseEv+0x18>
/home/hintik/dev/final/src/sources/stdlib/src/stdbuffer.cpp:30
    }
    
    mClaimed = false;
    990c:	e51b3010 	ldr	r3, [fp, #-16]
    9910:	e3a02000 	mov	r2, #0
    9914:	e5c32100 	strb	r2, [r3, #256]	; 0x100
/home/hintik/dev/final/src/sources/stdlib/src/stdbuffer.cpp:31
}
    9918:	e320f000 	nop	{0}
    991c:	e28bd000 	add	sp, fp, #0
    9920:	e49db004 	pop	{fp}		; (ldr fp, [sp], #4)
    9924:	e12fff1e 	bx	lr

00009928 <_ZN6Buffer13GetDifferenceEv>:
_ZN6Buffer13GetDifferenceEv():
/home/hintik/dev/final/src/sources/stdlib/src/stdbuffer.cpp:34

int Buffer::GetDifference()
{
    9928:	e52db004 	push	{fp}		; (str fp, [sp, #-4]!)
    992c:	e28db000 	add	fp, sp, #0
    9930:	e24dd00c 	sub	sp, sp, #12
    9934:	e50b0008 	str	r0, [fp, #-8]
/home/hintik/dev/final/src/sources/stdlib/src/stdbuffer.cpp:35
    return mPushPtr-mPullPtr;
    9938:	e51b3008 	ldr	r3, [fp, #-8]
    993c:	e5932104 	ldr	r2, [r3, #260]	; 0x104
    9940:	e51b3008 	ldr	r3, [fp, #-8]
    9944:	e5933108 	ldr	r3, [r3, #264]	; 0x108
    9948:	e0423003 	sub	r3, r2, r3
/home/hintik/dev/final/src/sources/stdlib/src/stdbuffer.cpp:36
}
    994c:	e1a00003 	mov	r0, r3
    9950:	e28bd000 	add	sp, fp, #0
    9954:	e49db004 	pop	{fp}		; (ldr fp, [sp], #4)
    9958:	e12fff1e 	bx	lr

0000995c <_ZN6Buffer4PushEc>:
_ZN6Buffer4PushEc():
/home/hintik/dev/final/src/sources/stdlib/src/stdbuffer.cpp:39

void Buffer::Push(char c)
{
    995c:	e52db004 	push	{fp}		; (str fp, [sp, #-4]!)
    9960:	e28db000 	add	fp, sp, #0
    9964:	e24dd00c 	sub	sp, sp, #12
    9968:	e50b0008 	str	r0, [fp, #-8]
    996c:	e1a03001 	mov	r3, r1
    9970:	e54b3009 	strb	r3, [fp, #-9]
/home/hintik/dev/final/src/sources/stdlib/src/stdbuffer.cpp:40
    mBuffer[mPushPtr] = c;
    9974:	e51b3008 	ldr	r3, [fp, #-8]
    9978:	e5933104 	ldr	r3, [r3, #260]	; 0x104
    997c:	e51b2008 	ldr	r2, [fp, #-8]
    9980:	e55b1009 	ldrb	r1, [fp, #-9]
    9984:	e7c21003 	strb	r1, [r2, r3]
/home/hintik/dev/final/src/sources/stdlib/src/stdbuffer.cpp:41
    mPushPtr = (mPushPtr + 1) % buffer_constants::BUFFER_SIZE;
    9988:	e51b3008 	ldr	r3, [fp, #-8]
    998c:	e5933104 	ldr	r3, [r3, #260]	; 0x104
    9990:	e2833001 	add	r3, r3, #1
    9994:	e2732000 	rsbs	r2, r3, #0
    9998:	e6ef3073 	uxtb	r3, r3
    999c:	e6ef2072 	uxtb	r2, r2
    99a0:	52623000 	rsbpl	r3, r2, #0
    99a4:	e51b2008 	ldr	r2, [fp, #-8]
    99a8:	e5823104 	str	r3, [r2, #260]	; 0x104
/home/hintik/dev/final/src/sources/stdlib/src/stdbuffer.cpp:42
}
    99ac:	e320f000 	nop	{0}
    99b0:	e28bd000 	add	sp, fp, #0
    99b4:	e49db004 	pop	{fp}		; (ldr fp, [sp], #4)
    99b8:	e12fff1e 	bx	lr

000099bc <_ZN6Buffer4PullEv>:
_ZN6Buffer4PullEv():
/home/hintik/dev/final/src/sources/stdlib/src/stdbuffer.cpp:45

char Buffer::Pull()
{
    99bc:	e52db004 	push	{fp}		; (str fp, [sp, #-4]!)
    99c0:	e28db000 	add	fp, sp, #0
    99c4:	e24dd014 	sub	sp, sp, #20
    99c8:	e50b0010 	str	r0, [fp, #-16]
/home/hintik/dev/final/src/sources/stdlib/src/stdbuffer.cpp:46
    if(mPullPtr == mPushPtr)
    99cc:	e51b3010 	ldr	r3, [fp, #-16]
    99d0:	e5932108 	ldr	r2, [r3, #264]	; 0x108
    99d4:	e51b3010 	ldr	r3, [fp, #-16]
    99d8:	e5933104 	ldr	r3, [r3, #260]	; 0x104
    99dc:	e1520003 	cmp	r2, r3
    99e0:	1a000001 	bne	99ec <_ZN6Buffer4PullEv+0x30>
/home/hintik/dev/final/src/sources/stdlib/src/stdbuffer.cpp:47
        return '\0';
    99e4:	e3a03000 	mov	r3, #0
    99e8:	ea00000e 	b	9a28 <_ZN6Buffer4PullEv+0x6c>
/home/hintik/dev/final/src/sources/stdlib/src/stdbuffer.cpp:49
    char ret;
    ret = mBuffer[mPullPtr];
    99ec:	e51b3010 	ldr	r3, [fp, #-16]
    99f0:	e5933108 	ldr	r3, [r3, #264]	; 0x108
    99f4:	e51b2010 	ldr	r2, [fp, #-16]
    99f8:	e7d23003 	ldrb	r3, [r2, r3]
    99fc:	e54b3005 	strb	r3, [fp, #-5]
/home/hintik/dev/final/src/sources/stdlib/src/stdbuffer.cpp:50
    mPullPtr = (mPullPtr + 1) % buffer_constants::BUFFER_SIZE;    
    9a00:	e51b3010 	ldr	r3, [fp, #-16]
    9a04:	e5933108 	ldr	r3, [r3, #264]	; 0x108
    9a08:	e2833001 	add	r3, r3, #1
    9a0c:	e2732000 	rsbs	r2, r3, #0
    9a10:	e6ef3073 	uxtb	r3, r3
    9a14:	e6ef2072 	uxtb	r2, r2
    9a18:	52623000 	rsbpl	r3, r2, #0
    9a1c:	e51b2010 	ldr	r2, [fp, #-16]
    9a20:	e5823108 	str	r3, [r2, #264]	; 0x108
/home/hintik/dev/final/src/sources/stdlib/src/stdbuffer.cpp:51
    return ret;
    9a24:	e55b3005 	ldrb	r3, [fp, #-5]
/home/hintik/dev/final/src/sources/stdlib/src/stdbuffer.cpp:52
}
    9a28:	e1a00003 	mov	r0, r3
    9a2c:	e28bd000 	add	sp, fp, #0
    9a30:	e49db004 	pop	{fp}		; (ldr fp, [sp], #4)
    9a34:	e12fff1e 	bx	lr

00009a38 <_Z41__static_initialization_and_destruction_0ii>:
_Z41__static_initialization_and_destruction_0ii():
/home/hintik/dev/final/src/sources/stdlib/src/stdbuffer.cpp:52
    9a38:	e92d4800 	push	{fp, lr}
    9a3c:	e28db004 	add	fp, sp, #4
    9a40:	e24dd008 	sub	sp, sp, #8
    9a44:	e50b0008 	str	r0, [fp, #-8]
    9a48:	e50b100c 	str	r1, [fp, #-12]
    9a4c:	e51b3008 	ldr	r3, [fp, #-8]
    9a50:	e3530001 	cmp	r3, #1
    9a54:	1a000005 	bne	9a70 <_Z41__static_initialization_and_destruction_0ii+0x38>
/home/hintik/dev/final/src/sources/stdlib/src/stdbuffer.cpp:52 (discriminator 1)
    9a58:	e51b300c 	ldr	r3, [fp, #-12]
    9a5c:	e59f2018 	ldr	r2, [pc, #24]	; 9a7c <_Z41__static_initialization_and_destruction_0ii+0x44>
    9a60:	e1530002 	cmp	r3, r2
    9a64:	1a000001 	bne	9a70 <_Z41__static_initialization_and_destruction_0ii+0x38>
/home/hintik/dev/final/src/sources/stdlib/src/stdbuffer.cpp:3
Buffer circBuffer;
    9a68:	e59f0010 	ldr	r0, [pc, #16]	; 9a80 <_Z41__static_initialization_and_destruction_0ii+0x48>
    9a6c:	ebffff62 	bl	97fc <_ZN6BufferC1Ev>
/home/hintik/dev/final/src/sources/stdlib/src/stdbuffer.cpp:52
}
    9a70:	e320f000 	nop	{0}
    9a74:	e24bd004 	sub	sp, fp, #4
    9a78:	e8bd8800 	pop	{fp, pc}
    9a7c:	0000ffff 	strdeq	pc, [r0], -pc	; <UNPREDICTABLE>
    9a80:	0000bdd8 	ldrdeq	fp, [r0], -r8

00009a84 <_GLOBAL__sub_I_circBuffer>:
_GLOBAL__sub_I_circBuffer():
/home/hintik/dev/final/src/sources/stdlib/src/stdbuffer.cpp:52
    9a84:	e92d4800 	push	{fp, lr}
    9a88:	e28db004 	add	fp, sp, #4
    9a8c:	e59f1008 	ldr	r1, [pc, #8]	; 9a9c <_GLOBAL__sub_I_circBuffer+0x18>
    9a90:	e3a00001 	mov	r0, #1
    9a94:	ebffffe7 	bl	9a38 <_Z41__static_initialization_and_destruction_0ii>
    9a98:	e8bd8800 	pop	{fp, pc}
    9a9c:	0000ffff 	strdeq	pc, [r0], -pc	; <UNPREDICTABLE>

00009aa0 <_Z6getpidv>:
_Z6getpidv():
/home/hintik/dev/final/src/sources/stdlib/src/stdfile.cpp:5
#include <stdfile.h>
#include <stdstring.h>

uint32_t getpid()
{
    9aa0:	e52db004 	push	{fp}		; (str fp, [sp, #-4]!)
    9aa4:	e28db000 	add	fp, sp, #0
    9aa8:	e24dd00c 	sub	sp, sp, #12
/home/hintik/dev/final/src/sources/stdlib/src/stdfile.cpp:8
    uint32_t pid;

    asm volatile("swi 0");
    9aac:	ef000000 	svc	0x00000000
/home/hintik/dev/final/src/sources/stdlib/src/stdfile.cpp:9
    asm volatile("mov %0, r0" : "=r" (pid));
    9ab0:	e1a03000 	mov	r3, r0
    9ab4:	e50b3008 	str	r3, [fp, #-8]
/home/hintik/dev/final/src/sources/stdlib/src/stdfile.cpp:11

    return pid;
    9ab8:	e51b3008 	ldr	r3, [fp, #-8]
/home/hintik/dev/final/src/sources/stdlib/src/stdfile.cpp:12
}
    9abc:	e1a00003 	mov	r0, r3
    9ac0:	e28bd000 	add	sp, fp, #0
    9ac4:	e49db004 	pop	{fp}		; (ldr fp, [sp], #4)
    9ac8:	e12fff1e 	bx	lr

00009acc <_Z17get_random_numberv>:
_Z17get_random_numberv():
/home/hintik/dev/final/src/sources/stdlib/src/stdfile.cpp:15

uint32_t get_random_number()
{
    9acc:	e52db004 	push	{fp}		; (str fp, [sp, #-4]!)
    9ad0:	e28db000 	add	fp, sp, #0
    9ad4:	e24dd00c 	sub	sp, sp, #12
/home/hintik/dev/final/src/sources/stdlib/src/stdfile.cpp:18
    uint32_t rng;

    asm volatile("swi 7");
    9ad8:	ef000007 	svc	0x00000007
/home/hintik/dev/final/src/sources/stdlib/src/stdfile.cpp:19
    asm volatile("mov %0, r0" : "=r" (rng));
    9adc:	e1a03000 	mov	r3, r0
    9ae0:	e50b3008 	str	r3, [fp, #-8]
/home/hintik/dev/final/src/sources/stdlib/src/stdfile.cpp:21

    return rng;
    9ae4:	e51b3008 	ldr	r3, [fp, #-8]
/home/hintik/dev/final/src/sources/stdlib/src/stdfile.cpp:22
}
    9ae8:	e1a00003 	mov	r0, r3
    9aec:	e28bd000 	add	sp, fp, #0
    9af0:	e49db004 	pop	{fp}		; (ldr fp, [sp], #4)
    9af4:	e12fff1e 	bx	lr

00009af8 <_Z9terminatei>:
_Z9terminatei():
/home/hintik/dev/final/src/sources/stdlib/src/stdfile.cpp:25

void terminate(int exitcode)
{
    9af8:	e52db004 	push	{fp}		; (str fp, [sp, #-4]!)
    9afc:	e28db000 	add	fp, sp, #0
    9b00:	e24dd00c 	sub	sp, sp, #12
    9b04:	e50b0008 	str	r0, [fp, #-8]
/home/hintik/dev/final/src/sources/stdlib/src/stdfile.cpp:26
    asm volatile("mov r0, %0" : : "r" (exitcode));
    9b08:	e51b3008 	ldr	r3, [fp, #-8]
    9b0c:	e1a00003 	mov	r0, r3
/home/hintik/dev/final/src/sources/stdlib/src/stdfile.cpp:27
    asm volatile("swi 1");
    9b10:	ef000001 	svc	0x00000001
/home/hintik/dev/final/src/sources/stdlib/src/stdfile.cpp:28
}
    9b14:	e320f000 	nop	{0}
    9b18:	e28bd000 	add	sp, fp, #0
    9b1c:	e49db004 	pop	{fp}		; (ldr fp, [sp], #4)
    9b20:	e12fff1e 	bx	lr

00009b24 <_Z11sched_yieldv>:
_Z11sched_yieldv():
/home/hintik/dev/final/src/sources/stdlib/src/stdfile.cpp:31

void sched_yield()
{
    9b24:	e52db004 	push	{fp}		; (str fp, [sp, #-4]!)
    9b28:	e28db000 	add	fp, sp, #0
/home/hintik/dev/final/src/sources/stdlib/src/stdfile.cpp:32
    asm volatile("swi 2");
    9b2c:	ef000002 	svc	0x00000002
/home/hintik/dev/final/src/sources/stdlib/src/stdfile.cpp:33
}
    9b30:	e320f000 	nop	{0}
    9b34:	e28bd000 	add	sp, fp, #0
    9b38:	e49db004 	pop	{fp}		; (ldr fp, [sp], #4)
    9b3c:	e12fff1e 	bx	lr

00009b40 <_Z4openPKc15NFile_Open_Mode>:
_Z4openPKc15NFile_Open_Mode():
/home/hintik/dev/final/src/sources/stdlib/src/stdfile.cpp:36

uint32_t open(const char* filename, NFile_Open_Mode mode)
{
    9b40:	e52db004 	push	{fp}		; (str fp, [sp, #-4]!)
    9b44:	e28db000 	add	fp, sp, #0
    9b48:	e24dd014 	sub	sp, sp, #20
    9b4c:	e50b0010 	str	r0, [fp, #-16]
    9b50:	e50b1014 	str	r1, [fp, #-20]	; 0xffffffec
/home/hintik/dev/final/src/sources/stdlib/src/stdfile.cpp:39
    uint32_t file;

    asm volatile("mov r0, %0" : : "r" (filename));
    9b54:	e51b3010 	ldr	r3, [fp, #-16]
    9b58:	e1a00003 	mov	r0, r3
/home/hintik/dev/final/src/sources/stdlib/src/stdfile.cpp:40
    asm volatile("mov r1, %0" : : "r" (mode));
    9b5c:	e51b3014 	ldr	r3, [fp, #-20]	; 0xffffffec
    9b60:	e1a01003 	mov	r1, r3
/home/hintik/dev/final/src/sources/stdlib/src/stdfile.cpp:41
    asm volatile("swi 64");
    9b64:	ef000040 	svc	0x00000040
/home/hintik/dev/final/src/sources/stdlib/src/stdfile.cpp:42
    asm volatile("mov %0, r0" : "=r" (file));
    9b68:	e1a03000 	mov	r3, r0
    9b6c:	e50b3008 	str	r3, [fp, #-8]
/home/hintik/dev/final/src/sources/stdlib/src/stdfile.cpp:44

    return file;
    9b70:	e51b3008 	ldr	r3, [fp, #-8]
/home/hintik/dev/final/src/sources/stdlib/src/stdfile.cpp:45
}
    9b74:	e1a00003 	mov	r0, r3
    9b78:	e28bd000 	add	sp, fp, #0
    9b7c:	e49db004 	pop	{fp}		; (ldr fp, [sp], #4)
    9b80:	e12fff1e 	bx	lr

00009b84 <_Z4readjPcj>:
_Z4readjPcj():
/home/hintik/dev/final/src/sources/stdlib/src/stdfile.cpp:48

uint32_t read(uint32_t file, char* const buffer, uint32_t size)
{
    9b84:	e52db004 	push	{fp}		; (str fp, [sp, #-4]!)
    9b88:	e28db000 	add	fp, sp, #0
    9b8c:	e24dd01c 	sub	sp, sp, #28
    9b90:	e50b0010 	str	r0, [fp, #-16]
    9b94:	e50b1014 	str	r1, [fp, #-20]	; 0xffffffec
    9b98:	e50b2018 	str	r2, [fp, #-24]	; 0xffffffe8
/home/hintik/dev/final/src/sources/stdlib/src/stdfile.cpp:51
    uint32_t rdnum;

    asm volatile("mov r0, %0" : : "r" (file));
    9b9c:	e51b3010 	ldr	r3, [fp, #-16]
    9ba0:	e1a00003 	mov	r0, r3
/home/hintik/dev/final/src/sources/stdlib/src/stdfile.cpp:52
    asm volatile("mov r1, %0" : : "r" (buffer));
    9ba4:	e51b3014 	ldr	r3, [fp, #-20]	; 0xffffffec
    9ba8:	e1a01003 	mov	r1, r3
/home/hintik/dev/final/src/sources/stdlib/src/stdfile.cpp:53
    asm volatile("mov r2, %0" : : "r" (size));
    9bac:	e51b3018 	ldr	r3, [fp, #-24]	; 0xffffffe8
    9bb0:	e1a02003 	mov	r2, r3
/home/hintik/dev/final/src/sources/stdlib/src/stdfile.cpp:54
    asm volatile("swi 65");
    9bb4:	ef000041 	svc	0x00000041
/home/hintik/dev/final/src/sources/stdlib/src/stdfile.cpp:55
    asm volatile("mov %0, r0" : "=r" (rdnum));
    9bb8:	e1a03000 	mov	r3, r0
    9bbc:	e50b3008 	str	r3, [fp, #-8]
/home/hintik/dev/final/src/sources/stdlib/src/stdfile.cpp:57

    return rdnum;
    9bc0:	e51b3008 	ldr	r3, [fp, #-8]
/home/hintik/dev/final/src/sources/stdlib/src/stdfile.cpp:58
}
    9bc4:	e1a00003 	mov	r0, r3
    9bc8:	e28bd000 	add	sp, fp, #0
    9bcc:	e49db004 	pop	{fp}		; (ldr fp, [sp], #4)
    9bd0:	e12fff1e 	bx	lr

00009bd4 <_Z5writejPKcj>:
_Z5writejPKcj():
/home/hintik/dev/final/src/sources/stdlib/src/stdfile.cpp:61

uint32_t write(uint32_t file, const char* buffer, uint32_t size)
{
    9bd4:	e52db004 	push	{fp}		; (str fp, [sp, #-4]!)
    9bd8:	e28db000 	add	fp, sp, #0
    9bdc:	e24dd01c 	sub	sp, sp, #28
    9be0:	e50b0010 	str	r0, [fp, #-16]
    9be4:	e50b1014 	str	r1, [fp, #-20]	; 0xffffffec
    9be8:	e50b2018 	str	r2, [fp, #-24]	; 0xffffffe8
/home/hintik/dev/final/src/sources/stdlib/src/stdfile.cpp:64
    uint32_t wrnum;

    asm volatile("mov r0, %0" : : "r" (file));
    9bec:	e51b3010 	ldr	r3, [fp, #-16]
    9bf0:	e1a00003 	mov	r0, r3
/home/hintik/dev/final/src/sources/stdlib/src/stdfile.cpp:65
    asm volatile("mov r1, %0" : : "r" (buffer));
    9bf4:	e51b3014 	ldr	r3, [fp, #-20]	; 0xffffffec
    9bf8:	e1a01003 	mov	r1, r3
/home/hintik/dev/final/src/sources/stdlib/src/stdfile.cpp:66
    asm volatile("mov r2, %0" : : "r" (size));
    9bfc:	e51b3018 	ldr	r3, [fp, #-24]	; 0xffffffe8
    9c00:	e1a02003 	mov	r2, r3
/home/hintik/dev/final/src/sources/stdlib/src/stdfile.cpp:67
    asm volatile("swi 66");
    9c04:	ef000042 	svc	0x00000042
/home/hintik/dev/final/src/sources/stdlib/src/stdfile.cpp:68
    asm volatile("mov %0, r0" : "=r" (wrnum));
    9c08:	e1a03000 	mov	r3, r0
    9c0c:	e50b3008 	str	r3, [fp, #-8]
/home/hintik/dev/final/src/sources/stdlib/src/stdfile.cpp:70

    return wrnum;
    9c10:	e51b3008 	ldr	r3, [fp, #-8]
/home/hintik/dev/final/src/sources/stdlib/src/stdfile.cpp:71
}
    9c14:	e1a00003 	mov	r0, r3
    9c18:	e28bd000 	add	sp, fp, #0
    9c1c:	e49db004 	pop	{fp}		; (ldr fp, [sp], #4)
    9c20:	e12fff1e 	bx	lr

00009c24 <_Z5closej>:
_Z5closej():
/home/hintik/dev/final/src/sources/stdlib/src/stdfile.cpp:74

void close(uint32_t file)
{
    9c24:	e52db004 	push	{fp}		; (str fp, [sp, #-4]!)
    9c28:	e28db000 	add	fp, sp, #0
    9c2c:	e24dd00c 	sub	sp, sp, #12
    9c30:	e50b0008 	str	r0, [fp, #-8]
/home/hintik/dev/final/src/sources/stdlib/src/stdfile.cpp:75
    asm volatile("mov r0, %0" : : "r" (file));
    9c34:	e51b3008 	ldr	r3, [fp, #-8]
    9c38:	e1a00003 	mov	r0, r3
/home/hintik/dev/final/src/sources/stdlib/src/stdfile.cpp:76
    asm volatile("swi 67");
    9c3c:	ef000043 	svc	0x00000043
/home/hintik/dev/final/src/sources/stdlib/src/stdfile.cpp:77
}
    9c40:	e320f000 	nop	{0}
    9c44:	e28bd000 	add	sp, fp, #0
    9c48:	e49db004 	pop	{fp}		; (ldr fp, [sp], #4)
    9c4c:	e12fff1e 	bx	lr

00009c50 <_Z5ioctlj16NIOCtl_OperationPv>:
_Z5ioctlj16NIOCtl_OperationPv():
/home/hintik/dev/final/src/sources/stdlib/src/stdfile.cpp:80

uint32_t ioctl(uint32_t file, NIOCtl_Operation operation, void* param)
{
    9c50:	e52db004 	push	{fp}		; (str fp, [sp, #-4]!)
    9c54:	e28db000 	add	fp, sp, #0
    9c58:	e24dd01c 	sub	sp, sp, #28
    9c5c:	e50b0010 	str	r0, [fp, #-16]
    9c60:	e50b1014 	str	r1, [fp, #-20]	; 0xffffffec
    9c64:	e50b2018 	str	r2, [fp, #-24]	; 0xffffffe8
/home/hintik/dev/final/src/sources/stdlib/src/stdfile.cpp:83
    uint32_t retcode;

    asm volatile("mov r0, %0" : : "r" (file));
    9c68:	e51b3010 	ldr	r3, [fp, #-16]
    9c6c:	e1a00003 	mov	r0, r3
/home/hintik/dev/final/src/sources/stdlib/src/stdfile.cpp:84
    asm volatile("mov r1, %0" : : "r" (operation));
    9c70:	e51b3014 	ldr	r3, [fp, #-20]	; 0xffffffec
    9c74:	e1a01003 	mov	r1, r3
/home/hintik/dev/final/src/sources/stdlib/src/stdfile.cpp:85
    asm volatile("mov r2, %0" : : "r" (param));
    9c78:	e51b3018 	ldr	r3, [fp, #-24]	; 0xffffffe8
    9c7c:	e1a02003 	mov	r2, r3
/home/hintik/dev/final/src/sources/stdlib/src/stdfile.cpp:86
    asm volatile("swi 68");
    9c80:	ef000044 	svc	0x00000044
/home/hintik/dev/final/src/sources/stdlib/src/stdfile.cpp:87
    asm volatile("mov %0, r0" : "=r" (retcode));
    9c84:	e1a03000 	mov	r3, r0
    9c88:	e50b3008 	str	r3, [fp, #-8]
/home/hintik/dev/final/src/sources/stdlib/src/stdfile.cpp:89

    return retcode;
    9c8c:	e51b3008 	ldr	r3, [fp, #-8]
/home/hintik/dev/final/src/sources/stdlib/src/stdfile.cpp:90
}
    9c90:	e1a00003 	mov	r0, r3
    9c94:	e28bd000 	add	sp, fp, #0
    9c98:	e49db004 	pop	{fp}		; (ldr fp, [sp], #4)
    9c9c:	e12fff1e 	bx	lr

00009ca0 <_Z6notifyjj>:
_Z6notifyjj():
/home/hintik/dev/final/src/sources/stdlib/src/stdfile.cpp:93

uint32_t notify(uint32_t file, uint32_t count)
{
    9ca0:	e52db004 	push	{fp}		; (str fp, [sp, #-4]!)
    9ca4:	e28db000 	add	fp, sp, #0
    9ca8:	e24dd014 	sub	sp, sp, #20
    9cac:	e50b0010 	str	r0, [fp, #-16]
    9cb0:	e50b1014 	str	r1, [fp, #-20]	; 0xffffffec
/home/hintik/dev/final/src/sources/stdlib/src/stdfile.cpp:96
    uint32_t retcnt;

    asm volatile("mov r0, %0" : : "r" (file));
    9cb4:	e51b3010 	ldr	r3, [fp, #-16]
    9cb8:	e1a00003 	mov	r0, r3
/home/hintik/dev/final/src/sources/stdlib/src/stdfile.cpp:97
    asm volatile("mov r1, %0" : : "r" (count));
    9cbc:	e51b3014 	ldr	r3, [fp, #-20]	; 0xffffffec
    9cc0:	e1a01003 	mov	r1, r3
/home/hintik/dev/final/src/sources/stdlib/src/stdfile.cpp:98
    asm volatile("swi 69");
    9cc4:	ef000045 	svc	0x00000045
/home/hintik/dev/final/src/sources/stdlib/src/stdfile.cpp:99
    asm volatile("mov %0, r0" : "=r" (retcnt));
    9cc8:	e1a03000 	mov	r3, r0
    9ccc:	e50b3008 	str	r3, [fp, #-8]
/home/hintik/dev/final/src/sources/stdlib/src/stdfile.cpp:101

    return retcnt;
    9cd0:	e51b3008 	ldr	r3, [fp, #-8]
/home/hintik/dev/final/src/sources/stdlib/src/stdfile.cpp:102
}
    9cd4:	e1a00003 	mov	r0, r3
    9cd8:	e28bd000 	add	sp, fp, #0
    9cdc:	e49db004 	pop	{fp}		; (ldr fp, [sp], #4)
    9ce0:	e12fff1e 	bx	lr

00009ce4 <_Z4waitjjj>:
_Z4waitjjj():
/home/hintik/dev/final/src/sources/stdlib/src/stdfile.cpp:105

NSWI_Result_Code wait(uint32_t file, uint32_t count, uint32_t notified_deadline)
{
    9ce4:	e52db004 	push	{fp}		; (str fp, [sp, #-4]!)
    9ce8:	e28db000 	add	fp, sp, #0
    9cec:	e24dd01c 	sub	sp, sp, #28
    9cf0:	e50b0010 	str	r0, [fp, #-16]
    9cf4:	e50b1014 	str	r1, [fp, #-20]	; 0xffffffec
    9cf8:	e50b2018 	str	r2, [fp, #-24]	; 0xffffffe8
/home/hintik/dev/final/src/sources/stdlib/src/stdfile.cpp:108
    NSWI_Result_Code retcode;

    asm volatile("mov r0, %0" : : "r" (file));
    9cfc:	e51b3010 	ldr	r3, [fp, #-16]
    9d00:	e1a00003 	mov	r0, r3
/home/hintik/dev/final/src/sources/stdlib/src/stdfile.cpp:109
    asm volatile("mov r1, %0" : : "r" (count));
    9d04:	e51b3014 	ldr	r3, [fp, #-20]	; 0xffffffec
    9d08:	e1a01003 	mov	r1, r3
/home/hintik/dev/final/src/sources/stdlib/src/stdfile.cpp:110
    asm volatile("mov r2, %0" : : "r" (notified_deadline));
    9d0c:	e51b3018 	ldr	r3, [fp, #-24]	; 0xffffffe8
    9d10:	e1a02003 	mov	r2, r3
/home/hintik/dev/final/src/sources/stdlib/src/stdfile.cpp:111
    asm volatile("swi 70");
    9d14:	ef000046 	svc	0x00000046
/home/hintik/dev/final/src/sources/stdlib/src/stdfile.cpp:112
    asm volatile("mov %0, r0" : "=r" (retcode));
    9d18:	e1a03000 	mov	r3, r0
    9d1c:	e50b3008 	str	r3, [fp, #-8]
/home/hintik/dev/final/src/sources/stdlib/src/stdfile.cpp:114

    return retcode;
    9d20:	e51b3008 	ldr	r3, [fp, #-8]
/home/hintik/dev/final/src/sources/stdlib/src/stdfile.cpp:115
}
    9d24:	e1a00003 	mov	r0, r3
    9d28:	e28bd000 	add	sp, fp, #0
    9d2c:	e49db004 	pop	{fp}		; (ldr fp, [sp], #4)
    9d30:	e12fff1e 	bx	lr

00009d34 <_Z5sleepjj>:
_Z5sleepjj():
/home/hintik/dev/final/src/sources/stdlib/src/stdfile.cpp:118

bool sleep(uint32_t ticks, uint32_t notified_deadline)
{
    9d34:	e52db004 	push	{fp}		; (str fp, [sp, #-4]!)
    9d38:	e28db000 	add	fp, sp, #0
    9d3c:	e24dd014 	sub	sp, sp, #20
    9d40:	e50b0010 	str	r0, [fp, #-16]
    9d44:	e50b1014 	str	r1, [fp, #-20]	; 0xffffffec
/home/hintik/dev/final/src/sources/stdlib/src/stdfile.cpp:121
    uint32_t retcode;

    asm volatile("mov r0, %0" : : "r" (ticks));
    9d48:	e51b3010 	ldr	r3, [fp, #-16]
    9d4c:	e1a00003 	mov	r0, r3
/home/hintik/dev/final/src/sources/stdlib/src/stdfile.cpp:122
    asm volatile("mov r1, %0" : : "r" (notified_deadline));
    9d50:	e51b3014 	ldr	r3, [fp, #-20]	; 0xffffffec
    9d54:	e1a01003 	mov	r1, r3
/home/hintik/dev/final/src/sources/stdlib/src/stdfile.cpp:123
    asm volatile("swi 3");
    9d58:	ef000003 	svc	0x00000003
/home/hintik/dev/final/src/sources/stdlib/src/stdfile.cpp:124
    asm volatile("mov %0, r0" : "=r" (retcode));
    9d5c:	e1a03000 	mov	r3, r0
    9d60:	e50b3008 	str	r3, [fp, #-8]
/home/hintik/dev/final/src/sources/stdlib/src/stdfile.cpp:126

    return retcode;
    9d64:	e51b3008 	ldr	r3, [fp, #-8]
    9d68:	e3530000 	cmp	r3, #0
    9d6c:	13a03001 	movne	r3, #1
    9d70:	03a03000 	moveq	r3, #0
    9d74:	e6ef3073 	uxtb	r3, r3
/home/hintik/dev/final/src/sources/stdlib/src/stdfile.cpp:127
}
    9d78:	e1a00003 	mov	r0, r3
    9d7c:	e28bd000 	add	sp, fp, #0
    9d80:	e49db004 	pop	{fp}		; (ldr fp, [sp], #4)
    9d84:	e12fff1e 	bx	lr

00009d88 <_Z24get_active_process_countv>:
_Z24get_active_process_countv():
/home/hintik/dev/final/src/sources/stdlib/src/stdfile.cpp:130

uint32_t get_active_process_count()
{
    9d88:	e52db004 	push	{fp}		; (str fp, [sp, #-4]!)
    9d8c:	e28db000 	add	fp, sp, #0
    9d90:	e24dd00c 	sub	sp, sp, #12
/home/hintik/dev/final/src/sources/stdlib/src/stdfile.cpp:131
    const NGet_Sched_Info_Type req = NGet_Sched_Info_Type::Active_Process_Count;
    9d94:	e3a03000 	mov	r3, #0
    9d98:	e50b3008 	str	r3, [fp, #-8]
/home/hintik/dev/final/src/sources/stdlib/src/stdfile.cpp:134
    uint32_t retval;

    asm volatile("mov r0, %0" : : "r" (req));
    9d9c:	e3a03000 	mov	r3, #0
    9da0:	e1a00003 	mov	r0, r3
/home/hintik/dev/final/src/sources/stdlib/src/stdfile.cpp:135
    asm volatile("mov r1, %0" : : "r" (&retval));
    9da4:	e24b300c 	sub	r3, fp, #12
    9da8:	e1a01003 	mov	r1, r3
/home/hintik/dev/final/src/sources/stdlib/src/stdfile.cpp:136
    asm volatile("swi 4");
    9dac:	ef000004 	svc	0x00000004
/home/hintik/dev/final/src/sources/stdlib/src/stdfile.cpp:138

    return retval;
    9db0:	e51b300c 	ldr	r3, [fp, #-12]
/home/hintik/dev/final/src/sources/stdlib/src/stdfile.cpp:139
}
    9db4:	e1a00003 	mov	r0, r3
    9db8:	e28bd000 	add	sp, fp, #0
    9dbc:	e49db004 	pop	{fp}		; (ldr fp, [sp], #4)
    9dc0:	e12fff1e 	bx	lr

00009dc4 <_Z14get_tick_countv>:
_Z14get_tick_countv():
/home/hintik/dev/final/src/sources/stdlib/src/stdfile.cpp:142

uint32_t get_tick_count()
{
    9dc4:	e52db004 	push	{fp}		; (str fp, [sp, #-4]!)
    9dc8:	e28db000 	add	fp, sp, #0
    9dcc:	e24dd00c 	sub	sp, sp, #12
/home/hintik/dev/final/src/sources/stdlib/src/stdfile.cpp:143
    const NGet_Sched_Info_Type req = NGet_Sched_Info_Type::Tick_Count;
    9dd0:	e3a03001 	mov	r3, #1
    9dd4:	e50b3008 	str	r3, [fp, #-8]
/home/hintik/dev/final/src/sources/stdlib/src/stdfile.cpp:146
    uint32_t retval;

    asm volatile("mov r0, %0" : : "r" (req));
    9dd8:	e3a03001 	mov	r3, #1
    9ddc:	e1a00003 	mov	r0, r3
/home/hintik/dev/final/src/sources/stdlib/src/stdfile.cpp:147
    asm volatile("mov r1, %0" : : "r" (&retval));
    9de0:	e24b300c 	sub	r3, fp, #12
    9de4:	e1a01003 	mov	r1, r3
/home/hintik/dev/final/src/sources/stdlib/src/stdfile.cpp:148
    asm volatile("swi 4");
    9de8:	ef000004 	svc	0x00000004
/home/hintik/dev/final/src/sources/stdlib/src/stdfile.cpp:150

    return retval;
    9dec:	e51b300c 	ldr	r3, [fp, #-12]
/home/hintik/dev/final/src/sources/stdlib/src/stdfile.cpp:151
}
    9df0:	e1a00003 	mov	r0, r3
    9df4:	e28bd000 	add	sp, fp, #0
    9df8:	e49db004 	pop	{fp}		; (ldr fp, [sp], #4)
    9dfc:	e12fff1e 	bx	lr

00009e00 <_Z17set_task_deadlinej>:
_Z17set_task_deadlinej():
/home/hintik/dev/final/src/sources/stdlib/src/stdfile.cpp:154

void set_task_deadline(uint32_t tick_count_required)
{
    9e00:	e52db004 	push	{fp}		; (str fp, [sp, #-4]!)
    9e04:	e28db000 	add	fp, sp, #0
    9e08:	e24dd014 	sub	sp, sp, #20
    9e0c:	e50b0010 	str	r0, [fp, #-16]
/home/hintik/dev/final/src/sources/stdlib/src/stdfile.cpp:155
    const NDeadline_Subservice req = NDeadline_Subservice::Set_Relative;
    9e10:	e3a03000 	mov	r3, #0
    9e14:	e50b3008 	str	r3, [fp, #-8]
/home/hintik/dev/final/src/sources/stdlib/src/stdfile.cpp:157

    asm volatile("mov r0, %0" : : "r" (req));
    9e18:	e3a03000 	mov	r3, #0
    9e1c:	e1a00003 	mov	r0, r3
/home/hintik/dev/final/src/sources/stdlib/src/stdfile.cpp:158
    asm volatile("mov r1, %0" : : "r" (&tick_count_required));
    9e20:	e24b3010 	sub	r3, fp, #16
    9e24:	e1a01003 	mov	r1, r3
/home/hintik/dev/final/src/sources/stdlib/src/stdfile.cpp:159
    asm volatile("swi 5");
    9e28:	ef000005 	svc	0x00000005
/home/hintik/dev/final/src/sources/stdlib/src/stdfile.cpp:160
}
    9e2c:	e320f000 	nop	{0}
    9e30:	e28bd000 	add	sp, fp, #0
    9e34:	e49db004 	pop	{fp}		; (ldr fp, [sp], #4)
    9e38:	e12fff1e 	bx	lr

00009e3c <_Z26get_task_ticks_to_deadlinev>:
_Z26get_task_ticks_to_deadlinev():
/home/hintik/dev/final/src/sources/stdlib/src/stdfile.cpp:163

uint32_t get_task_ticks_to_deadline()
{
    9e3c:	e52db004 	push	{fp}		; (str fp, [sp, #-4]!)
    9e40:	e28db000 	add	fp, sp, #0
    9e44:	e24dd00c 	sub	sp, sp, #12
/home/hintik/dev/final/src/sources/stdlib/src/stdfile.cpp:164
    const NDeadline_Subservice req = NDeadline_Subservice::Get_Remaining;
    9e48:	e3a03001 	mov	r3, #1
    9e4c:	e50b3008 	str	r3, [fp, #-8]
/home/hintik/dev/final/src/sources/stdlib/src/stdfile.cpp:167
    uint32_t ticks;

    asm volatile("mov r0, %0" : : "r" (req));
    9e50:	e3a03001 	mov	r3, #1
    9e54:	e1a00003 	mov	r0, r3
/home/hintik/dev/final/src/sources/stdlib/src/stdfile.cpp:168
    asm volatile("mov r1, %0" : : "r" (&ticks));
    9e58:	e24b300c 	sub	r3, fp, #12
    9e5c:	e1a01003 	mov	r1, r3
/home/hintik/dev/final/src/sources/stdlib/src/stdfile.cpp:169
    asm volatile("swi 5");
    9e60:	ef000005 	svc	0x00000005
/home/hintik/dev/final/src/sources/stdlib/src/stdfile.cpp:171

    return ticks;
    9e64:	e51b300c 	ldr	r3, [fp, #-12]
/home/hintik/dev/final/src/sources/stdlib/src/stdfile.cpp:172
}
    9e68:	e1a00003 	mov	r0, r3
    9e6c:	e28bd000 	add	sp, fp, #0
    9e70:	e49db004 	pop	{fp}		; (ldr fp, [sp], #4)
    9e74:	e12fff1e 	bx	lr

00009e78 <_Z4pipePKcj>:
_Z4pipePKcj():
/home/hintik/dev/final/src/sources/stdlib/src/stdfile.cpp:177

const char Pipe_File_Prefix[] = "SYS:pipe/";

uint32_t pipe(const char* name, uint32_t buf_size)
{
    9e78:	e92d4800 	push	{fp, lr}
    9e7c:	e28db004 	add	fp, sp, #4
    9e80:	e24dd050 	sub	sp, sp, #80	; 0x50
    9e84:	e50b0050 	str	r0, [fp, #-80]	; 0xffffffb0
    9e88:	e50b1054 	str	r1, [fp, #-84]	; 0xffffffac
/home/hintik/dev/final/src/sources/stdlib/src/stdfile.cpp:179
    char fname[64];
    strncpy(fname, Pipe_File_Prefix, sizeof(Pipe_File_Prefix));
    9e8c:	e24b3048 	sub	r3, fp, #72	; 0x48
    9e90:	e3a0200a 	mov	r2, #10
    9e94:	e59f108c 	ldr	r1, [pc, #140]	; 9f28 <_Z4pipePKcj+0xb0>
    9e98:	e1a00003 	mov	r0, r3
    9e9c:	eb000342 	bl	abac <_Z7strncpyPcPKci>
/home/hintik/dev/final/src/sources/stdlib/src/stdfile.cpp:180
    strncpy(fname + sizeof(Pipe_File_Prefix), name, sizeof(fname) - sizeof(Pipe_File_Prefix) - 1);
    9ea0:	e24b3048 	sub	r3, fp, #72	; 0x48
    9ea4:	e283300a 	add	r3, r3, #10
    9ea8:	e3a02035 	mov	r2, #53	; 0x35
    9eac:	e51b1050 	ldr	r1, [fp, #-80]	; 0xffffffb0
    9eb0:	e1a00003 	mov	r0, r3
    9eb4:	eb00033c 	bl	abac <_Z7strncpyPcPKci>
/home/hintik/dev/final/src/sources/stdlib/src/stdfile.cpp:182

    int ncur = sizeof(Pipe_File_Prefix) + strlen(name);
    9eb8:	e51b0050 	ldr	r0, [fp, #-80]	; 0xffffffb0
    9ebc:	eb000395 	bl	ad18 <_Z6strlenPKc>
    9ec0:	e1a03000 	mov	r3, r0
    9ec4:	e283300a 	add	r3, r3, #10
    9ec8:	e50b3008 	str	r3, [fp, #-8]
/home/hintik/dev/final/src/sources/stdlib/src/stdfile.cpp:184

    fname[ncur++] = '#';
    9ecc:	e51b3008 	ldr	r3, [fp, #-8]
    9ed0:	e2832001 	add	r2, r3, #1
    9ed4:	e50b2008 	str	r2, [fp, #-8]
    9ed8:	e24b2004 	sub	r2, fp, #4
    9edc:	e0823003 	add	r3, r2, r3
    9ee0:	e3a02023 	mov	r2, #35	; 0x23
    9ee4:	e5432044 	strb	r2, [r3, #-68]	; 0xffffffbc
/home/hintik/dev/final/src/sources/stdlib/src/stdfile.cpp:186

    itoa(buf_size, &fname[ncur], 10);
    9ee8:	e24b2048 	sub	r2, fp, #72	; 0x48
    9eec:	e51b3008 	ldr	r3, [fp, #-8]
    9ef0:	e0823003 	add	r3, r2, r3
    9ef4:	e3a0200a 	mov	r2, #10
    9ef8:	e1a01003 	mov	r1, r3
    9efc:	e51b0054 	ldr	r0, [fp, #-84]	; 0xffffffac
    9f00:	eb0002a5 	bl	a99c <_Z4itoajPcj>
/home/hintik/dev/final/src/sources/stdlib/src/stdfile.cpp:188

    return open(fname, NFile_Open_Mode::Read_Write);
    9f04:	e24b3048 	sub	r3, fp, #72	; 0x48
    9f08:	e3a01002 	mov	r1, #2
    9f0c:	e1a00003 	mov	r0, r3
    9f10:	ebffff0a 	bl	9b40 <_Z4openPKc15NFile_Open_Mode>
    9f14:	e1a03000 	mov	r3, r0
    9f18:	e320f000 	nop	{0}
/home/hintik/dev/final/src/sources/stdlib/src/stdfile.cpp:189
}
    9f1c:	e1a00003 	mov	r0, r3
    9f20:	e24bd004 	sub	sp, fp, #4
    9f24:	e8bd8800 	pop	{fp, pc}
    9f28:	0000bd64 	andeq	fp, r0, r4, ror #26

00009f2c <_ZN12CUserHeapManC1Ev>:
_ZN12CUserHeapManC2Ev():
/home/hintik/dev/final/src/sources/stdlib/src/stdmemory.cpp:7
#include<hal/intdef.h>
#include<memory/memmap.h>

CUserHeapMan sUserHeap;

CUserHeapMan::CUserHeapMan()
    9f2c:	e92d4800 	push	{fp, lr}
    9f30:	e28db004 	add	fp, sp, #4
    9f34:	e24dd010 	sub	sp, sp, #16
    9f38:	e50b0010 	str	r0, [fp, #-16]
/home/hintik/dev/final/src/sources/stdlib/src/stdmemory.cpp:9
{
    mFirst = nullptr;
    9f3c:	e51b3010 	ldr	r3, [fp, #-16]
    9f40:	e3a02000 	mov	r2, #0
    9f44:	e5832000 	str	r2, [r3]
/home/hintik/dev/final/src/sources/stdlib/src/stdmemory.cpp:10
    PTptr = nullptr;
    9f48:	e51b3010 	ldr	r3, [fp, #-16]
    9f4c:	e3a02000 	mov	r2, #0
    9f50:	e5832010 	str	r2, [r3, #16]
/home/hintik/dev/final/src/sources/stdlib/src/stdmemory.cpp:11
    uint32_t tempAddr = GetFirstNewPage(0x20000);
    9f54:	e3a01802 	mov	r1, #131072	; 0x20000
    9f58:	e51b0010 	ldr	r0, [fp, #-16]
    9f5c:	eb00000d 	bl	9f98 <_ZN12CUserHeapMan15GetFirstNewPageEj>
    9f60:	e50b0008 	str	r0, [fp, #-8]
/home/hintik/dev/final/src/sources/stdlib/src/stdmemory.cpp:13
    
    mSize = mem::PageSize;
    9f64:	e51b3010 	ldr	r3, [fp, #-16]
    9f68:	e3a02601 	mov	r2, #1048576	; 0x100000
    9f6c:	e5832004 	str	r2, [r3, #4]
/home/hintik/dev/final/src/sources/stdlib/src/stdmemory.cpp:14
    mVSize = 0;
    9f70:	e51b3010 	ldr	r3, [fp, #-16]
    9f74:	e3a02000 	mov	r2, #0
    9f78:	e5832008 	str	r2, [r3, #8]
/home/hintik/dev/final/src/sources/stdlib/src/stdmemory.cpp:15
    mBrake = 0x20000;
    9f7c:	e51b3010 	ldr	r3, [fp, #-16]
    9f80:	e3a02802 	mov	r2, #131072	; 0x20000
    9f84:	e583200c 	str	r2, [r3, #12]
/home/hintik/dev/final/src/sources/stdlib/src/stdmemory.cpp:16
}
    9f88:	e51b3010 	ldr	r3, [fp, #-16]
    9f8c:	e1a00003 	mov	r0, r3
    9f90:	e24bd004 	sub	sp, fp, #4
    9f94:	e8bd8800 	pop	{fp, pc}

00009f98 <_ZN12CUserHeapMan15GetFirstNewPageEj>:
_ZN12CUserHeapMan15GetFirstNewPageEj():
/home/hintik/dev/final/src/sources/stdlib/src/stdmemory.cpp:19

uint32_t CUserHeapMan::GetFirstNewPage(uint32_t NewVAddress)
{
    9f98:	e52db004 	push	{fp}		; (str fp, [sp, #-4]!)
    9f9c:	e28db000 	add	fp, sp, #0
    9fa0:	e24dd014 	sub	sp, sp, #20
    9fa4:	e50b0010 	str	r0, [fp, #-16]
    9fa8:	e50b1014 	str	r1, [fp, #-20]	; 0xffffffec
/home/hintik/dev/final/src/sources/stdlib/src/stdmemory.cpp:23
    uint32_t address;
    uint32_t PTptr_temp;

    asm volatile("mov r1, %0" : : "r" (NewVAddress));
    9fac:	e51b3014 	ldr	r3, [fp, #-20]	; 0xffffffec
    9fb0:	e1a01003 	mov	r1, r3
/home/hintik/dev/final/src/sources/stdlib/src/stdmemory.cpp:24
    asm volatile("swi 6");
    9fb4:	ef000006 	svc	0x00000006
/home/hintik/dev/final/src/sources/stdlib/src/stdmemory.cpp:25
    asm volatile("mov %0, r0" : "=r" (address));
    9fb8:	e1a03000 	mov	r3, r0
    9fbc:	e50b3008 	str	r3, [fp, #-8]
/home/hintik/dev/final/src/sources/stdlib/src/stdmemory.cpp:26
    asm volatile("mov %0, r1" : "=r" (PTptr_temp));
    9fc0:	e1a03001 	mov	r3, r1
    9fc4:	e50b300c 	str	r3, [fp, #-12]
/home/hintik/dev/final/src/sources/stdlib/src/stdmemory.cpp:27
    *PTptr = PTptr_temp;
    9fc8:	e51b3010 	ldr	r3, [fp, #-16]
    9fcc:	e5933010 	ldr	r3, [r3, #16]
    9fd0:	e51b200c 	ldr	r2, [fp, #-12]
    9fd4:	e5832000 	str	r2, [r3]
/home/hintik/dev/final/src/sources/stdlib/src/stdmemory.cpp:29

    return address;
    9fd8:	e51b3008 	ldr	r3, [fp, #-8]
/home/hintik/dev/final/src/sources/stdlib/src/stdmemory.cpp:30
}
    9fdc:	e1a00003 	mov	r0, r3
    9fe0:	e28bd000 	add	sp, fp, #0
    9fe4:	e49db004 	pop	{fp}		; (ldr fp, [sp], #4)
    9fe8:	e12fff1e 	bx	lr

00009fec <_ZN12CUserHeapMan10GetNewPageEj>:
_ZN12CUserHeapMan10GetNewPageEj():
/home/hintik/dev/final/src/sources/stdlib/src/stdmemory.cpp:33

uint32_t CUserHeapMan::GetNewPage(uint32_t NewVAddress)
{
    9fec:	e52db004 	push	{fp}		; (str fp, [sp, #-4]!)
    9ff0:	e28db000 	add	fp, sp, #0
    9ff4:	e24dd014 	sub	sp, sp, #20
    9ff8:	e50b0010 	str	r0, [fp, #-16]
    9ffc:	e50b1014 	str	r1, [fp, #-20]	; 0xffffffec
/home/hintik/dev/final/src/sources/stdlib/src/stdmemory.cpp:36
    uint32_t address;

    asm volatile("mov r1, %0" : : "r" (NewVAddress));
    a000:	e51b3014 	ldr	r3, [fp, #-20]	; 0xffffffec
    a004:	e1a01003 	mov	r1, r3
/home/hintik/dev/final/src/sources/stdlib/src/stdmemory.cpp:37
    asm volatile("mov r2, %0" : : "r" (PTptr));
    a008:	e51b3010 	ldr	r3, [fp, #-16]
    a00c:	e5933010 	ldr	r3, [r3, #16]
    a010:	e1a02003 	mov	r2, r3
/home/hintik/dev/final/src/sources/stdlib/src/stdmemory.cpp:38
    asm volatile("swi 8");
    a014:	ef000008 	svc	0x00000008
/home/hintik/dev/final/src/sources/stdlib/src/stdmemory.cpp:39
    asm volatile("mov %0, r0" : "=r" (address));
    a018:	e1a03000 	mov	r3, r0
    a01c:	e50b3008 	str	r3, [fp, #-8]
/home/hintik/dev/final/src/sources/stdlib/src/stdmemory.cpp:41

    return address;
    a020:	e51b3008 	ldr	r3, [fp, #-8]
/home/hintik/dev/final/src/sources/stdlib/src/stdmemory.cpp:42
}
    a024:	e1a00003 	mov	r0, r3
    a028:	e28bd000 	add	sp, fp, #0
    a02c:	e49db004 	pop	{fp}		; (ldr fp, [sp], #4)
    a030:	e12fff1e 	bx	lr

0000a034 <_ZN12CUserHeapMan4sbrkEjb>:
_ZN12CUserHeapMan4sbrkEjb():
/home/hintik/dev/final/src/sources/stdlib/src/stdmemory.cpp:45

void CUserHeapMan::sbrk(uint32_t size, bool over)
{
    a034:	e92d4800 	push	{fp, lr}
    a038:	e28db004 	add	fp, sp, #4
    a03c:	e24dd020 	sub	sp, sp, #32
    a040:	e50b0018 	str	r0, [fp, #-24]	; 0xffffffe8
    a044:	e50b101c 	str	r1, [fp, #-28]	; 0xffffffe4
    a048:	e1a03002 	mov	r3, r2
    a04c:	e54b301d 	strb	r3, [fp, #-29]	; 0xffffffe3
/home/hintik/dev/final/src/sources/stdlib/src/stdmemory.cpp:46
    uint32_t newsize = mVSize + size + sizeof(UPage);
    a050:	e51b3018 	ldr	r3, [fp, #-24]	; 0xffffffe8
    a054:	e5932008 	ldr	r2, [r3, #8]
    a058:	e51b301c 	ldr	r3, [fp, #-28]	; 0xffffffe4
    a05c:	e0823003 	add	r3, r2, r3
    a060:	e2833014 	add	r3, r3, #20
    a064:	e50b3008 	str	r3, [fp, #-8]
/home/hintik/dev/final/src/sources/stdlib/src/stdmemory.cpp:47
    if(over)
    a068:	e55b301d 	ldrb	r3, [fp, #-29]	; 0xffffffe3
    a06c:	e3530000 	cmp	r3, #0
    a070:	0a00002f 	beq	a134 <_ZN12CUserHeapMan4sbrkEjb+0x100>
/home/hintik/dev/final/src/sources/stdlib/src/stdmemory.cpp:49
    {
        uint32_t tempaddr = GetNewPage(0x20000 + size + mem::PageSize);
    a074:	e51b301c 	ldr	r3, [fp, #-28]	; 0xffffffe4
    a078:	e2833812 	add	r3, r3, #1179648	; 0x120000
    a07c:	e1a01003 	mov	r1, r3
    a080:	e51b0018 	ldr	r0, [fp, #-24]	; 0xffffffe8
    a084:	ebffffd8 	bl	9fec <_ZN12CUserHeapMan10GetNewPageEj>
    a088:	e50b000c 	str	r0, [fp, #-12]
/home/hintik/dev/final/src/sources/stdlib/src/stdmemory.cpp:51
        
        UPage* newchunk = reinterpret_cast<UPage*>(tempaddr);
    a08c:	e51b300c 	ldr	r3, [fp, #-12]
    a090:	e50b3010 	str	r3, [fp, #-16]
/home/hintik/dev/final/src/sources/stdlib/src/stdmemory.cpp:52
        newchunk->prev = mFirst;
    a094:	e51b3018 	ldr	r3, [fp, #-24]	; 0xffffffe8
    a098:	e5932000 	ldr	r2, [r3]
    a09c:	e51b3010 	ldr	r3, [fp, #-16]
    a0a0:	e5832000 	str	r2, [r3]
/home/hintik/dev/final/src/sources/stdlib/src/stdmemory.cpp:53
        newchunk->next = nullptr;
    a0a4:	e51b3010 	ldr	r3, [fp, #-16]
    a0a8:	e3a02000 	mov	r2, #0
    a0ac:	e5832004 	str	r2, [r3, #4]
/home/hintik/dev/final/src/sources/stdlib/src/stdmemory.cpp:54
        newchunk->address = tempaddr + sizeof(UPage);
    a0b0:	e51b300c 	ldr	r3, [fp, #-12]
    a0b4:	e2832014 	add	r2, r3, #20
    a0b8:	e51b3010 	ldr	r3, [fp, #-16]
    a0bc:	e5832008 	str	r2, [r3, #8]
/home/hintik/dev/final/src/sources/stdlib/src/stdmemory.cpp:55
        newchunk->free = false;
    a0c0:	e51b3010 	ldr	r3, [fp, #-16]
    a0c4:	e3a02000 	mov	r2, #0
    a0c8:	e5c32010 	strb	r2, [r3, #16]
/home/hintik/dev/final/src/sources/stdlib/src/stdmemory.cpp:56
        newchunk->size = size;
    a0cc:	e51b3010 	ldr	r3, [fp, #-16]
    a0d0:	e51b201c 	ldr	r2, [fp, #-28]	; 0xffffffe4
    a0d4:	e583200c 	str	r2, [r3, #12]
/home/hintik/dev/final/src/sources/stdlib/src/stdmemory.cpp:58
        
        mFirst->next = newchunk;
    a0d8:	e51b3018 	ldr	r3, [fp, #-24]	; 0xffffffe8
    a0dc:	e5933000 	ldr	r3, [r3]
    a0e0:	e51b2010 	ldr	r2, [fp, #-16]
    a0e4:	e5832004 	str	r2, [r3, #4]
/home/hintik/dev/final/src/sources/stdlib/src/stdmemory.cpp:59
        mFirst = newchunk;
    a0e8:	e51b3018 	ldr	r3, [fp, #-24]	; 0xffffffe8
    a0ec:	e51b2010 	ldr	r2, [fp, #-16]
    a0f0:	e5832000 	str	r2, [r3]
/home/hintik/dev/final/src/sources/stdlib/src/stdmemory.cpp:61
        
        mSize = mSize + mem::PageSize;
    a0f4:	e51b3018 	ldr	r3, [fp, #-24]	; 0xffffffe8
    a0f8:	e5933004 	ldr	r3, [r3, #4]
    a0fc:	e2832601 	add	r2, r3, #1048576	; 0x100000
    a100:	e51b3018 	ldr	r3, [fp, #-24]	; 0xffffffe8
    a104:	e5832004 	str	r2, [r3, #4]
/home/hintik/dev/final/src/sources/stdlib/src/stdmemory.cpp:62
        mVSize = mVSize + sizeof(UPage);
    a108:	e51b3018 	ldr	r3, [fp, #-24]	; 0xffffffe8
    a10c:	e5933008 	ldr	r3, [r3, #8]
    a110:	e2832014 	add	r2, r3, #20
    a114:	e51b3018 	ldr	r3, [fp, #-24]	; 0xffffffe8
    a118:	e5832008 	str	r2, [r3, #8]
/home/hintik/dev/final/src/sources/stdlib/src/stdmemory.cpp:63
        mBrake = mFirst->address;
    a11c:	e51b3018 	ldr	r3, [fp, #-24]	; 0xffffffe8
    a120:	e5933000 	ldr	r3, [r3]
    a124:	e5932008 	ldr	r2, [r3, #8]
    a128:	e51b3018 	ldr	r3, [fp, #-24]	; 0xffffffe8
    a12c:	e583200c 	str	r2, [r3, #12]
/home/hintik/dev/final/src/sources/stdlib/src/stdmemory.cpp:64
        return;
    a130:	ea000007 	b	a154 <_ZN12CUserHeapMan4sbrkEjb+0x120>
/home/hintik/dev/final/src/sources/stdlib/src/stdmemory.cpp:68
    }
    else
    {
        mBrake = mBrake + size + sizeof(UPage);
    a134:	e51b3018 	ldr	r3, [fp, #-24]	; 0xffffffe8
    a138:	e593200c 	ldr	r2, [r3, #12]
    a13c:	e51b301c 	ldr	r3, [fp, #-28]	; 0xffffffe4
    a140:	e0823003 	add	r3, r2, r3
    a144:	e2832014 	add	r2, r3, #20
    a148:	e51b3018 	ldr	r3, [fp, #-24]	; 0xffffffe8
    a14c:	e583200c 	str	r2, [r3, #12]
/home/hintik/dev/final/src/sources/stdlib/src/stdmemory.cpp:69
        return;
    a150:	e320f000 	nop	{0}
/home/hintik/dev/final/src/sources/stdlib/src/stdmemory.cpp:71
    }
}
    a154:	e24bd004 	sub	sp, fp, #4
    a158:	e8bd8800 	pop	{fp, pc}

0000a15c <_ZN12CUserHeapMan5AllocEj>:
_ZN12CUserHeapMan5AllocEj():
/home/hintik/dev/final/src/sources/stdlib/src/stdmemory.cpp:74

void* CUserHeapMan::Alloc(uint32_t size)
{
    a15c:	e92d4800 	push	{fp, lr}
    a160:	e28db004 	add	fp, sp, #4
    a164:	e24dd010 	sub	sp, sp, #16
    a168:	e50b0010 	str	r0, [fp, #-16]
    a16c:	e50b1014 	str	r1, [fp, #-20]	; 0xffffffec
/home/hintik/dev/final/src/sources/stdlib/src/stdmemory.cpp:75
    uint32_t saveBreak = mBrake;
    a170:	e51b3010 	ldr	r3, [fp, #-16]
    a174:	e593300c 	ldr	r3, [r3, #12]
    a178:	e50b3008 	str	r3, [fp, #-8]
/home/hintik/dev/final/src/sources/stdlib/src/stdmemory.cpp:77

    if(mFirst == nullptr)
    a17c:	e51b3010 	ldr	r3, [fp, #-16]
    a180:	e5933000 	ldr	r3, [r3]
    a184:	e3530000 	cmp	r3, #0
    a188:	1a000021 	bne	a214 <_ZN12CUserHeapMan5AllocEj+0xb8>
/home/hintik/dev/final/src/sources/stdlib/src/stdmemory.cpp:79
    {
        mFirst = reinterpret_cast<UPage*>(0x20000);
    a18c:	e51b3010 	ldr	r3, [fp, #-16]
    a190:	e3a02802 	mov	r2, #131072	; 0x20000
    a194:	e5832000 	str	r2, [r3]
/home/hintik/dev/final/src/sources/stdlib/src/stdmemory.cpp:80
        mFirst->prev = nullptr;
    a198:	e51b3010 	ldr	r3, [fp, #-16]
    a19c:	e5933000 	ldr	r3, [r3]
    a1a0:	e3a02000 	mov	r2, #0
    a1a4:	e5832000 	str	r2, [r3]
/home/hintik/dev/final/src/sources/stdlib/src/stdmemory.cpp:81
        mFirst->next = nullptr;
    a1a8:	e51b3010 	ldr	r3, [fp, #-16]
    a1ac:	e5933000 	ldr	r3, [r3]
    a1b0:	e3a02000 	mov	r2, #0
    a1b4:	e5832004 	str	r2, [r3, #4]
/home/hintik/dev/final/src/sources/stdlib/src/stdmemory.cpp:82
        mFirst->address = 0x20000;
    a1b8:	e51b3010 	ldr	r3, [fp, #-16]
    a1bc:	e5933000 	ldr	r3, [r3]
    a1c0:	e3a02802 	mov	r2, #131072	; 0x20000
    a1c4:	e5832008 	str	r2, [r3, #8]
/home/hintik/dev/final/src/sources/stdlib/src/stdmemory.cpp:83
        mFirst->size = size;
    a1c8:	e51b3010 	ldr	r3, [fp, #-16]
    a1cc:	e5933000 	ldr	r3, [r3]
    a1d0:	e51b2014 	ldr	r2, [fp, #-20]	; 0xffffffec
    a1d4:	e583200c 	str	r2, [r3, #12]
/home/hintik/dev/final/src/sources/stdlib/src/stdmemory.cpp:84
        mFirst->free = false;
    a1d8:	e51b3010 	ldr	r3, [fp, #-16]
    a1dc:	e5933000 	ldr	r3, [r3]
    a1e0:	e3a02000 	mov	r2, #0
    a1e4:	e5c32010 	strb	r2, [r3, #16]
/home/hintik/dev/final/src/sources/stdlib/src/stdmemory.cpp:85
        sbrk(size + sizeof(UPage), false);
    a1e8:	e51b3014 	ldr	r3, [fp, #-20]	; 0xffffffec
    a1ec:	e2833014 	add	r3, r3, #20
    a1f0:	e3a02000 	mov	r2, #0
    a1f4:	e1a01003 	mov	r1, r3
    a1f8:	e51b0010 	ldr	r0, [fp, #-16]
    a1fc:	ebffff8c 	bl	a034 <_ZN12CUserHeapMan4sbrkEjb>
/home/hintik/dev/final/src/sources/stdlib/src/stdmemory.cpp:86
        return reinterpret_cast<uint8_t*>(mFirst->address) + sizeof(UPage);
    a200:	e51b3010 	ldr	r3, [fp, #-16]
    a204:	e5933000 	ldr	r3, [r3]
    a208:	e5933008 	ldr	r3, [r3, #8]
    a20c:	e2833014 	add	r3, r3, #20
    a210:	ea000035 	b	a2ec <_ZN12CUserHeapMan5AllocEj+0x190>
/home/hintik/dev/final/src/sources/stdlib/src/stdmemory.cpp:89
    }
    
    if(size + sizeof(UPage) + mVSize > mSize)
    a214:	e51b3010 	ldr	r3, [fp, #-16]
    a218:	e5932008 	ldr	r2, [r3, #8]
    a21c:	e51b3014 	ldr	r3, [fp, #-20]	; 0xffffffec
    a220:	e0823003 	add	r3, r2, r3
    a224:	e2832014 	add	r2, r3, #20
    a228:	e51b3010 	ldr	r3, [fp, #-16]
    a22c:	e5933004 	ldr	r3, [r3, #4]
    a230:	e1520003 	cmp	r2, r3
    a234:	9a000007 	bls	a258 <_ZN12CUserHeapMan5AllocEj+0xfc>
/home/hintik/dev/final/src/sources/stdlib/src/stdmemory.cpp:91
    {
        sbrk(size, true);
    a238:	e3a02001 	mov	r2, #1
    a23c:	e51b1014 	ldr	r1, [fp, #-20]	; 0xffffffec
    a240:	e51b0010 	ldr	r0, [fp, #-16]
    a244:	ebffff7a 	bl	a034 <_ZN12CUserHeapMan4sbrkEjb>
/home/hintik/dev/final/src/sources/stdlib/src/stdmemory.cpp:92
        return reinterpret_cast<uint8_t*>(mFirst->address);
    a248:	e51b3010 	ldr	r3, [fp, #-16]
    a24c:	e5933000 	ldr	r3, [r3]
    a250:	e5933008 	ldr	r3, [r3, #8]
    a254:	ea000024 	b	a2ec <_ZN12CUserHeapMan5AllocEj+0x190>
/home/hintik/dev/final/src/sources/stdlib/src/stdmemory.cpp:95
    }
    
    UPage* newchunk = reinterpret_cast<UPage*>(mBrake);
    a258:	e51b3010 	ldr	r3, [fp, #-16]
    a25c:	e593300c 	ldr	r3, [r3, #12]
    a260:	e50b300c 	str	r3, [fp, #-12]
/home/hintik/dev/final/src/sources/stdlib/src/stdmemory.cpp:96
    newchunk->prev = mFirst;
    a264:	e51b3010 	ldr	r3, [fp, #-16]
    a268:	e5932000 	ldr	r2, [r3]
    a26c:	e51b300c 	ldr	r3, [fp, #-12]
    a270:	e5832000 	str	r2, [r3]
/home/hintik/dev/final/src/sources/stdlib/src/stdmemory.cpp:97
    newchunk->next = nullptr;
    a274:	e51b300c 	ldr	r3, [fp, #-12]
    a278:	e3a02000 	mov	r2, #0
    a27c:	e5832004 	str	r2, [r3, #4]
/home/hintik/dev/final/src/sources/stdlib/src/stdmemory.cpp:98
    newchunk->address = mBrake + sizeof(UPage);
    a280:	e51b3010 	ldr	r3, [fp, #-16]
    a284:	e593300c 	ldr	r3, [r3, #12]
    a288:	e2832014 	add	r2, r3, #20
    a28c:	e51b300c 	ldr	r3, [fp, #-12]
    a290:	e5832008 	str	r2, [r3, #8]
/home/hintik/dev/final/src/sources/stdlib/src/stdmemory.cpp:99
    newchunk->free = false;
    a294:	e51b300c 	ldr	r3, [fp, #-12]
    a298:	e3a02000 	mov	r2, #0
    a29c:	e5c32010 	strb	r2, [r3, #16]
/home/hintik/dev/final/src/sources/stdlib/src/stdmemory.cpp:100
    newchunk->size = size;
    a2a0:	e51b300c 	ldr	r3, [fp, #-12]
    a2a4:	e51b2014 	ldr	r2, [fp, #-20]	; 0xffffffec
    a2a8:	e583200c 	str	r2, [r3, #12]
/home/hintik/dev/final/src/sources/stdlib/src/stdmemory.cpp:102
    
    mFirst->next = newchunk;
    a2ac:	e51b3010 	ldr	r3, [fp, #-16]
    a2b0:	e5933000 	ldr	r3, [r3]
    a2b4:	e51b200c 	ldr	r2, [fp, #-12]
    a2b8:	e5832004 	str	r2, [r3, #4]
/home/hintik/dev/final/src/sources/stdlib/src/stdmemory.cpp:103
    mFirst = newchunk;
    a2bc:	e51b3010 	ldr	r3, [fp, #-16]
    a2c0:	e51b200c 	ldr	r2, [fp, #-12]
    a2c4:	e5832000 	str	r2, [r3]
/home/hintik/dev/final/src/sources/stdlib/src/stdmemory.cpp:104
    sbrk(size + sizeof(UPage),false);
    a2c8:	e51b3014 	ldr	r3, [fp, #-20]	; 0xffffffec
    a2cc:	e2833014 	add	r3, r3, #20
    a2d0:	e3a02000 	mov	r2, #0
    a2d4:	e1a01003 	mov	r1, r3
    a2d8:	e51b0010 	ldr	r0, [fp, #-16]
    a2dc:	ebffff54 	bl	a034 <_ZN12CUserHeapMan4sbrkEjb>
/home/hintik/dev/final/src/sources/stdlib/src/stdmemory.cpp:105
    return reinterpret_cast<uint8_t*>(mFirst->address); // vracime az pouzitelnou pamet, tedy to co nasleduje po hlavicce    
    a2e0:	e51b3010 	ldr	r3, [fp, #-16]
    a2e4:	e5933000 	ldr	r3, [r3]
    a2e8:	e5933008 	ldr	r3, [r3, #8]
/home/hintik/dev/final/src/sources/stdlib/src/stdmemory.cpp:106
}
    a2ec:	e1a00003 	mov	r0, r3
    a2f0:	e24bd004 	sub	sp, fp, #4
    a2f4:	e8bd8800 	pop	{fp, pc}

0000a2f8 <_Z41__static_initialization_and_destruction_0ii>:
_Z41__static_initialization_and_destruction_0ii():
/home/hintik/dev/final/src/sources/stdlib/src/stdmemory.cpp:106
    a2f8:	e92d4800 	push	{fp, lr}
    a2fc:	e28db004 	add	fp, sp, #4
    a300:	e24dd008 	sub	sp, sp, #8
    a304:	e50b0008 	str	r0, [fp, #-8]
    a308:	e50b100c 	str	r1, [fp, #-12]
    a30c:	e51b3008 	ldr	r3, [fp, #-8]
    a310:	e3530001 	cmp	r3, #1
    a314:	1a000005 	bne	a330 <_Z41__static_initialization_and_destruction_0ii+0x38>
/home/hintik/dev/final/src/sources/stdlib/src/stdmemory.cpp:106 (discriminator 1)
    a318:	e51b300c 	ldr	r3, [fp, #-12]
    a31c:	e59f2018 	ldr	r2, [pc, #24]	; a33c <_Z41__static_initialization_and_destruction_0ii+0x44>
    a320:	e1530002 	cmp	r3, r2
    a324:	1a000001 	bne	a330 <_Z41__static_initialization_and_destruction_0ii+0x38>
/home/hintik/dev/final/src/sources/stdlib/src/stdmemory.cpp:5
CUserHeapMan sUserHeap;
    a328:	e59f0010 	ldr	r0, [pc, #16]	; a340 <_Z41__static_initialization_and_destruction_0ii+0x48>
    a32c:	ebfffefe 	bl	9f2c <_ZN12CUserHeapManC1Ev>
/home/hintik/dev/final/src/sources/stdlib/src/stdmemory.cpp:106
}
    a330:	e320f000 	nop	{0}
    a334:	e24bd004 	sub	sp, fp, #4
    a338:	e8bd8800 	pop	{fp, pc}
    a33c:	0000ffff 	strdeq	pc, [r0], -pc	; <UNPREDICTABLE>
    a340:	0000bee4 	andeq	fp, r0, r4, ror #29

0000a344 <_GLOBAL__sub_I_sUserHeap>:
_GLOBAL__sub_I_sUserHeap():
/home/hintik/dev/final/src/sources/stdlib/src/stdmemory.cpp:106
    a344:	e92d4800 	push	{fp, lr}
    a348:	e28db004 	add	fp, sp, #4
    a34c:	e59f1008 	ldr	r1, [pc, #8]	; a35c <_GLOBAL__sub_I_sUserHeap+0x18>
    a350:	e3a00001 	mov	r0, #1
    a354:	ebffffe7 	bl	a2f8 <_Z41__static_initialization_and_destruction_0ii>
    a358:	e8bd8800 	pop	{fp, pc}
    a35c:	0000ffff 	strdeq	pc, [r0], -pc	; <UNPREDICTABLE>

0000a360 <_Z4n_tuii>:
_Z4n_tuii():
/home/hintik/dev/final/src/sources/stdlib/src/stdstring.cpp:7

namespace {
    const char CharConvArr[] = "0123456789ABCDEF";
}

int n_tu(int number, int count) {
    a360:	e52db004 	push	{fp}		; (str fp, [sp, #-4]!)
    a364:	e28db000 	add	fp, sp, #0
    a368:	e24dd014 	sub	sp, sp, #20
    a36c:	e50b0010 	str	r0, [fp, #-16]
    a370:	e50b1014 	str	r1, [fp, #-20]	; 0xffffffec
/home/hintik/dev/final/src/sources/stdlib/src/stdstring.cpp:8
    int result = 1;
    a374:	e3a03001 	mov	r3, #1
    a378:	e50b3008 	str	r3, [fp, #-8]
/home/hintik/dev/final/src/sources/stdlib/src/stdstring.cpp:9
    while (count-- > 0)
    a37c:	e51b3014 	ldr	r3, [fp, #-20]	; 0xffffffec
    a380:	e2432001 	sub	r2, r3, #1
    a384:	e50b2014 	str	r2, [fp, #-20]	; 0xffffffec
    a388:	e3530000 	cmp	r3, #0
    a38c:	c3a03001 	movgt	r3, #1
    a390:	d3a03000 	movle	r3, #0
    a394:	e6ef3073 	uxtb	r3, r3
    a398:	e3530000 	cmp	r3, #0
    a39c:	0a000004 	beq	a3b4 <_Z4n_tuii+0x54>
/home/hintik/dev/final/src/sources/stdlib/src/stdstring.cpp:10
        result *= number;
    a3a0:	e51b3008 	ldr	r3, [fp, #-8]
    a3a4:	e51b2010 	ldr	r2, [fp, #-16]
    a3a8:	e0030392 	mul	r3, r2, r3
    a3ac:	e50b3008 	str	r3, [fp, #-8]
/home/hintik/dev/final/src/sources/stdlib/src/stdstring.cpp:9
    while (count-- > 0)
    a3b0:	eafffff1 	b	a37c <_Z4n_tuii+0x1c>
/home/hintik/dev/final/src/sources/stdlib/src/stdstring.cpp:12

    return result;
    a3b4:	e51b3008 	ldr	r3, [fp, #-8]
/home/hintik/dev/final/src/sources/stdlib/src/stdstring.cpp:13
}
    a3b8:	e1a00003 	mov	r0, r3
    a3bc:	e28bd000 	add	sp, fp, #0
    a3c0:	e49db004 	pop	{fp}		; (ldr fp, [sp], #4)
    a3c4:	e12fff1e 	bx	lr

0000a3c8 <_Z4ftoafPc>:
_Z4ftoafPc():
/home/hintik/dev/final/src/sources/stdlib/src/stdstring.cpp:15

void ftoa(float f, char *r) {
    a3c8:	e92d4bf0 	push	{r4, r5, r6, r7, r8, r9, fp, lr}
    a3cc:	e28db01c 	add	fp, sp, #28
    a3d0:	e24dd060 	sub	sp, sp, #96	; 0x60
    a3d4:	ed0b0a16 	vstr	s0, [fp, #-88]	; 0xffffffa8
    a3d8:	e50b005c 	str	r0, [fp, #-92]	; 0xffffffa4
/home/hintik/dev/final/src/sources/stdlib/src/stdstring.cpp:19
    long long int length, length2, i, number, position, sign;
    float number2;

    sign = -1;   // -1 == positive number
    a3dc:	e3e02000 	mvn	r2, #0
    a3e0:	e3e03000 	mvn	r3, #0
    a3e4:	e14b23fc 	strd	r2, [fp, #-60]	; 0xffffffc4
/home/hintik/dev/final/src/sources/stdlib/src/stdstring.cpp:20
    if (f < 0) {
    a3e8:	ed5b7a16 	vldr	s15, [fp, #-88]	; 0xffffffa8
    a3ec:	eef57ac0 	vcmpe.f32	s15, #0.0
    a3f0:	eef1fa10 	vmrs	APSR_nzcv, fpscr
    a3f4:	5a000005 	bpl	a410 <_Z4ftoafPc+0x48>
/home/hintik/dev/final/src/sources/stdlib/src/stdstring.cpp:21
        sign = '-';
    a3f8:	e3a0202d 	mov	r2, #45	; 0x2d
    a3fc:	e3a03000 	mov	r3, #0
    a400:	e14b23fc 	strd	r2, [fp, #-60]	; 0xffffffc4
/home/hintik/dev/final/src/sources/stdlib/src/stdstring.cpp:22
        f *= -1;
    a404:	ed5b7a16 	vldr	s15, [fp, #-88]	; 0xffffffa8
    a408:	eef17a67 	vneg.f32	s15, s15
    a40c:	ed4b7a16 	vstr	s15, [fp, #-88]	; 0xffffffa8
/home/hintik/dev/final/src/sources/stdlib/src/stdstring.cpp:25
    }

    number2 = f;
    a410:	e51b3058 	ldr	r3, [fp, #-88]	; 0xffffffa8
    a414:	e50b3040 	str	r3, [fp, #-64]	; 0xffffffc0
/home/hintik/dev/final/src/sources/stdlib/src/stdstring.cpp:26
    number = f;
    a418:	e51b0058 	ldr	r0, [fp, #-88]	; 0xffffffa8
    a41c:	eb000553 	bl	b970 <__aeabi_f2lz>
    a420:	e1a02000 	mov	r2, r0
    a424:	e1a03001 	mov	r3, r1
    a428:	e14b23f4 	strd	r2, [fp, #-52]	; 0xffffffcc
/home/hintik/dev/final/src/sources/stdlib/src/stdstring.cpp:27
    length = 0;  // Size of decimal part
    a42c:	e3a02000 	mov	r2, #0
    a430:	e3a03000 	mov	r3, #0
    a434:	e14b24fc 	strd	r2, [fp, #-76]	; 0xffffffb4
/home/hintik/dev/final/src/sources/stdlib/src/stdstring.cpp:28
    length2 = 0; // Size of tenth
    a438:	e3a02000 	mov	r2, #0
    a43c:	e3a03000 	mov	r3, #0
    a440:	e14b22f4 	strd	r2, [fp, #-36]	; 0xffffffdc
/home/hintik/dev/final/src/sources/stdlib/src/stdstring.cpp:31

    /* Calculate length2 tenth part */
    while ((number2 - (float) number) != 0.0 && !((number2 - (float) number) < 0.0)) {
    a444:	e14b03d4 	ldrd	r0, [fp, #-52]	; 0xffffffcc
    a448:	eb0004f4 	bl	b820 <__aeabi_l2f>
    a44c:	ee070a10 	vmov	s14, r0
    a450:	ed5b7a10 	vldr	s15, [fp, #-64]	; 0xffffffc0
    a454:	ee777ac7 	vsub.f32	s15, s15, s14
    a458:	eef57a40 	vcmp.f32	s15, #0.0
    a45c:	eef1fa10 	vmrs	APSR_nzcv, fpscr
    a460:	0a00001b 	beq	a4d4 <_Z4ftoafPc+0x10c>
/home/hintik/dev/final/src/sources/stdlib/src/stdstring.cpp:31 (discriminator 1)
    a464:	e14b03d4 	ldrd	r0, [fp, #-52]	; 0xffffffcc
    a468:	eb0004ec 	bl	b820 <__aeabi_l2f>
    a46c:	ee070a10 	vmov	s14, r0
    a470:	ed5b7a10 	vldr	s15, [fp, #-64]	; 0xffffffc0
    a474:	ee777ac7 	vsub.f32	s15, s15, s14
    a478:	eef57ac0 	vcmpe.f32	s15, #0.0
    a47c:	eef1fa10 	vmrs	APSR_nzcv, fpscr
    a480:	4a000013 	bmi	a4d4 <_Z4ftoafPc+0x10c>
/home/hintik/dev/final/src/sources/stdlib/src/stdstring.cpp:32
        number2 = f * (n_tu(10.0, length2 + 1));
    a484:	e51b3024 	ldr	r3, [fp, #-36]	; 0xffffffdc
    a488:	e2833001 	add	r3, r3, #1
    a48c:	e1a01003 	mov	r1, r3
    a490:	e3a0000a 	mov	r0, #10
    a494:	ebffffb1 	bl	a360 <_Z4n_tuii>
    a498:	ee070a90 	vmov	s15, r0
    a49c:	eef87ae7 	vcvt.f32.s32	s15, s15
    a4a0:	ed1b7a16 	vldr	s14, [fp, #-88]	; 0xffffffa8
    a4a4:	ee677a27 	vmul.f32	s15, s14, s15
    a4a8:	ed4b7a10 	vstr	s15, [fp, #-64]	; 0xffffffc0
/home/hintik/dev/final/src/sources/stdlib/src/stdstring.cpp:33
        number = number2;
    a4ac:	e51b0040 	ldr	r0, [fp, #-64]	; 0xffffffc0
    a4b0:	eb00052e 	bl	b970 <__aeabi_f2lz>
    a4b4:	e1a02000 	mov	r2, r0
    a4b8:	e1a03001 	mov	r3, r1
    a4bc:	e14b23f4 	strd	r2, [fp, #-52]	; 0xffffffcc
/home/hintik/dev/final/src/sources/stdlib/src/stdstring.cpp:35

        length2++;
    a4c0:	e14b22d4 	ldrd	r2, [fp, #-36]	; 0xffffffdc
    a4c4:	e2926001 	adds	r6, r2, #1
    a4c8:	e2a37000 	adc	r7, r3, #0
    a4cc:	e14b62f4 	strd	r6, [fp, #-36]	; 0xffffffdc
/home/hintik/dev/final/src/sources/stdlib/src/stdstring.cpp:31
    while ((number2 - (float) number) != 0.0 && !((number2 - (float) number) < 0.0)) {
    a4d0:	eaffffdb 	b	a444 <_Z4ftoafPc+0x7c>
/home/hintik/dev/final/src/sources/stdlib/src/stdstring.cpp:39
    }

    /* Calculate length decimal part */
    for (length = (f > 1) ? 0 : 1; f > 1; length++)
    a4d4:	ed5b7a16 	vldr	s15, [fp, #-88]	; 0xffffffa8
    a4d8:	ed9f7a80 	vldr	s14, [pc, #512]	; a6e0 <_Z4ftoafPc+0x318>
    a4dc:	eef47ac7 	vcmpe.f32	s15, s14
    a4e0:	eef1fa10 	vmrs	APSR_nzcv, fpscr
    a4e4:	c3a03001 	movgt	r3, #1
    a4e8:	d3a03000 	movle	r3, #0
    a4ec:	e6ef3073 	uxtb	r3, r3
    a4f0:	e2233001 	eor	r3, r3, #1
    a4f4:	e6ef3073 	uxtb	r3, r3
    a4f8:	e6ef2073 	uxtb	r2, r3
    a4fc:	e3a03000 	mov	r3, #0
    a500:	e14b24fc 	strd	r2, [fp, #-76]	; 0xffffffb4
/home/hintik/dev/final/src/sources/stdlib/src/stdstring.cpp:39 (discriminator 3)
    a504:	ed5b7a16 	vldr	s15, [fp, #-88]	; 0xffffffa8
    a508:	ed9f7a74 	vldr	s14, [pc, #464]	; a6e0 <_Z4ftoafPc+0x318>
    a50c:	eef47ac7 	vcmpe.f32	s15, s14
    a510:	eef1fa10 	vmrs	APSR_nzcv, fpscr
    a514:	da00000b 	ble	a548 <_Z4ftoafPc+0x180>
/home/hintik/dev/final/src/sources/stdlib/src/stdstring.cpp:40 (discriminator 2)
        f /= 10;
    a518:	ed1b7a16 	vldr	s14, [fp, #-88]	; 0xffffffa8
    a51c:	eddf6a70 	vldr	s13, [pc, #448]	; a6e4 <_Z4ftoafPc+0x31c>
    a520:	eec77a26 	vdiv.f32	s15, s14, s13
    a524:	ed4b7a16 	vstr	s15, [fp, #-88]	; 0xffffffa8
/home/hintik/dev/final/src/sources/stdlib/src/stdstring.cpp:39 (discriminator 2)
    for (length = (f > 1) ? 0 : 1; f > 1; length++)
    a528:	e14b24dc 	ldrd	r2, [fp, #-76]	; 0xffffffb4
    a52c:	e2921001 	adds	r1, r2, #1
    a530:	e50b1064 	str	r1, [fp, #-100]	; 0xffffff9c
    a534:	e2a33000 	adc	r3, r3, #0
    a538:	e50b3060 	str	r3, [fp, #-96]	; 0xffffffa0
    a53c:	e14b26d4 	ldrd	r2, [fp, #-100]	; 0xffffff9c
    a540:	e14b24fc 	strd	r2, [fp, #-76]	; 0xffffffb4
    a544:	eaffffee 	b	a504 <_Z4ftoafPc+0x13c>
/home/hintik/dev/final/src/sources/stdlib/src/stdstring.cpp:42

    position = length;
    a548:	e14b24dc 	ldrd	r2, [fp, #-76]	; 0xffffffb4
    a54c:	e14b25f4 	strd	r2, [fp, #-84]	; 0xffffffac
/home/hintik/dev/final/src/sources/stdlib/src/stdstring.cpp:43
    length = length + 1 + length2;
    a550:	e14b24dc 	ldrd	r2, [fp, #-76]	; 0xffffffb4
    a554:	e2924001 	adds	r4, r2, #1
    a558:	e2a35000 	adc	r5, r3, #0
    a55c:	e14b22d4 	ldrd	r2, [fp, #-36]	; 0xffffffdc
    a560:	e0941002 	adds	r1, r4, r2
    a564:	e50b106c 	str	r1, [fp, #-108]	; 0xffffff94
    a568:	e0a53003 	adc	r3, r5, r3
    a56c:	e50b3068 	str	r3, [fp, #-104]	; 0xffffff98
    a570:	e14b26dc 	ldrd	r2, [fp, #-108]	; 0xffffff94
    a574:	e14b24fc 	strd	r2, [fp, #-76]	; 0xffffffb4
/home/hintik/dev/final/src/sources/stdlib/src/stdstring.cpp:44
    number = number2;
    a578:	e51b0040 	ldr	r0, [fp, #-64]	; 0xffffffc0
    a57c:	eb0004fb 	bl	b970 <__aeabi_f2lz>
    a580:	e1a02000 	mov	r2, r0
    a584:	e1a03001 	mov	r3, r1
    a588:	e14b23f4 	strd	r2, [fp, #-52]	; 0xffffffcc
/home/hintik/dev/final/src/sources/stdlib/src/stdstring.cpp:45
    if (sign == '-') {
    a58c:	e14b23dc 	ldrd	r2, [fp, #-60]	; 0xffffffc4
    a590:	e3530000 	cmp	r3, #0
    a594:	0352002d 	cmpeq	r2, #45	; 0x2d
    a598:	1a00000d 	bne	a5d4 <_Z4ftoafPc+0x20c>
/home/hintik/dev/final/src/sources/stdlib/src/stdstring.cpp:46
        length++;
    a59c:	e14b24dc 	ldrd	r2, [fp, #-76]	; 0xffffffb4
    a5a0:	e2921001 	adds	r1, r2, #1
    a5a4:	e50b1074 	str	r1, [fp, #-116]	; 0xffffff8c
    a5a8:	e2a33000 	adc	r3, r3, #0
    a5ac:	e50b3070 	str	r3, [fp, #-112]	; 0xffffff90
    a5b0:	e14b27d4 	ldrd	r2, [fp, #-116]	; 0xffffff8c
    a5b4:	e14b24fc 	strd	r2, [fp, #-76]	; 0xffffffb4
/home/hintik/dev/final/src/sources/stdlib/src/stdstring.cpp:47
        position++;
    a5b8:	e14b25d4 	ldrd	r2, [fp, #-84]	; 0xffffffac
    a5bc:	e2921001 	adds	r1, r2, #1
    a5c0:	e50b107c 	str	r1, [fp, #-124]	; 0xffffff84
    a5c4:	e2a33000 	adc	r3, r3, #0
    a5c8:	e50b3078 	str	r3, [fp, #-120]	; 0xffffff88
    a5cc:	e14b27dc 	ldrd	r2, [fp, #-124]	; 0xffffff84
    a5d0:	e14b25f4 	strd	r2, [fp, #-84]	; 0xffffffac
/home/hintik/dev/final/src/sources/stdlib/src/stdstring.cpp:50
    }

    for (i = length; i >= 0; i--) {
    a5d4:	e14b24dc 	ldrd	r2, [fp, #-76]	; 0xffffffb4
    a5d8:	e14b22fc 	strd	r2, [fp, #-44]	; 0xffffffd4
/home/hintik/dev/final/src/sources/stdlib/src/stdstring.cpp:50 (discriminator 1)
    a5dc:	e14b22dc 	ldrd	r2, [fp, #-44]	; 0xffffffd4
    a5e0:	e3520000 	cmp	r2, #0
    a5e4:	e2d33000 	sbcs	r3, r3, #0
    a5e8:	ba000039 	blt	a6d4 <_Z4ftoafPc+0x30c>
/home/hintik/dev/final/src/sources/stdlib/src/stdstring.cpp:51
        if (i == (length))
    a5ec:	e14b24dc 	ldrd	r2, [fp, #-76]	; 0xffffffb4
    a5f0:	e14b02dc 	ldrd	r0, [fp, #-44]	; 0xffffffd4
    a5f4:	e1510003 	cmp	r1, r3
    a5f8:	01500002 	cmpeq	r0, r2
    a5fc:	1a000005 	bne	a618 <_Z4ftoafPc+0x250>
/home/hintik/dev/final/src/sources/stdlib/src/stdstring.cpp:52
            r[i] = '\0';
    a600:	e51b302c 	ldr	r3, [fp, #-44]	; 0xffffffd4
    a604:	e51b205c 	ldr	r2, [fp, #-92]	; 0xffffffa4
    a608:	e0823003 	add	r3, r2, r3
    a60c:	e3a02000 	mov	r2, #0
    a610:	e5c32000 	strb	r2, [r3]
    a614:	ea000029 	b	a6c0 <_Z4ftoafPc+0x2f8>
/home/hintik/dev/final/src/sources/stdlib/src/stdstring.cpp:53
        else if (i == (position))
    a618:	e14b25d4 	ldrd	r2, [fp, #-84]	; 0xffffffac
    a61c:	e14b02dc 	ldrd	r0, [fp, #-44]	; 0xffffffd4
    a620:	e1510003 	cmp	r1, r3
    a624:	01500002 	cmpeq	r0, r2
    a628:	1a000005 	bne	a644 <_Z4ftoafPc+0x27c>
/home/hintik/dev/final/src/sources/stdlib/src/stdstring.cpp:54
            r[i] = '.';
    a62c:	e51b302c 	ldr	r3, [fp, #-44]	; 0xffffffd4
    a630:	e51b205c 	ldr	r2, [fp, #-92]	; 0xffffffa4
    a634:	e0823003 	add	r3, r2, r3
    a638:	e3a0202e 	mov	r2, #46	; 0x2e
    a63c:	e5c32000 	strb	r2, [r3]
    a640:	ea00001e 	b	a6c0 <_Z4ftoafPc+0x2f8>
/home/hintik/dev/final/src/sources/stdlib/src/stdstring.cpp:55
        else if (sign == '-' && i == 0)
    a644:	e14b23dc 	ldrd	r2, [fp, #-60]	; 0xffffffc4
    a648:	e3530000 	cmp	r3, #0
    a64c:	0352002d 	cmpeq	r2, #45	; 0x2d
    a650:	1a000008 	bne	a678 <_Z4ftoafPc+0x2b0>
/home/hintik/dev/final/src/sources/stdlib/src/stdstring.cpp:55 (discriminator 1)
    a654:	e14b22dc 	ldrd	r2, [fp, #-44]	; 0xffffffd4
    a658:	e1923003 	orrs	r3, r2, r3
    a65c:	1a000005 	bne	a678 <_Z4ftoafPc+0x2b0>
/home/hintik/dev/final/src/sources/stdlib/src/stdstring.cpp:56
            r[i] = '-';
    a660:	e51b302c 	ldr	r3, [fp, #-44]	; 0xffffffd4
    a664:	e51b205c 	ldr	r2, [fp, #-92]	; 0xffffffa4
    a668:	e0823003 	add	r3, r2, r3
    a66c:	e3a0202d 	mov	r2, #45	; 0x2d
    a670:	e5c32000 	strb	r2, [r3]
    a674:	ea000011 	b	a6c0 <_Z4ftoafPc+0x2f8>
/home/hintik/dev/final/src/sources/stdlib/src/stdstring.cpp:58
        else {
            r[i] = (number % 10) + '0';
    a678:	e14b03d4 	ldrd	r0, [fp, #-52]	; 0xffffffcc
    a67c:	e3a0200a 	mov	r2, #10
    a680:	e3a03000 	mov	r3, #0
    a684:	eb000484 	bl	b89c <__aeabi_ldivmod>
    a688:	e6ef2072 	uxtb	r2, r2
    a68c:	e51b302c 	ldr	r3, [fp, #-44]	; 0xffffffd4
    a690:	e51b105c 	ldr	r1, [fp, #-92]	; 0xffffffa4
    a694:	e0813003 	add	r3, r1, r3
    a698:	e2822030 	add	r2, r2, #48	; 0x30
    a69c:	e6ef2072 	uxtb	r2, r2
    a6a0:	e5c32000 	strb	r2, [r3]
/home/hintik/dev/final/src/sources/stdlib/src/stdstring.cpp:59
            number /= 10;
    a6a4:	e14b03d4 	ldrd	r0, [fp, #-52]	; 0xffffffcc
    a6a8:	e3a0200a 	mov	r2, #10
    a6ac:	e3a03000 	mov	r3, #0
    a6b0:	eb000479 	bl	b89c <__aeabi_ldivmod>
    a6b4:	e1a02000 	mov	r2, r0
    a6b8:	e1a03001 	mov	r3, r1
    a6bc:	e14b23f4 	strd	r2, [fp, #-52]	; 0xffffffcc
/home/hintik/dev/final/src/sources/stdlib/src/stdstring.cpp:50 (discriminator 2)
    for (i = length; i >= 0; i--) {
    a6c0:	e14b22dc 	ldrd	r2, [fp, #-44]	; 0xffffffd4
    a6c4:	e2528001 	subs	r8, r2, #1
    a6c8:	e2c39000 	sbc	r9, r3, #0
    a6cc:	e14b82fc 	strd	r8, [fp, #-44]	; 0xffffffd4
    a6d0:	eaffffc1 	b	a5dc <_Z4ftoafPc+0x214>
/home/hintik/dev/final/src/sources/stdlib/src/stdstring.cpp:62
        }
    }
}
    a6d4:	e320f000 	nop	{0}
    a6d8:	e24bd01c 	sub	sp, fp, #28
    a6dc:	e8bd8bf0 	pop	{r4, r5, r6, r7, r8, r9, fp, pc}
    a6e0:	3f800000 	svccc	0x00800000
    a6e4:	41200000 			; <UNDEFINED> instruction: 0x41200000

0000a6e8 <_Z4atofPKc>:
_Z4atofPKc():
/home/hintik/dev/final/src/sources/stdlib/src/stdstring.cpp:66

#define isdigit(c) (c >= '0' && c <= '9')

float atof(const char *s) {
    a6e8:	e52db004 	push	{fp}		; (str fp, [sp, #-4]!)
    a6ec:	e28db000 	add	fp, sp, #0
    a6f0:	e24dd024 	sub	sp, sp, #36	; 0x24
    a6f4:	e50b0020 	str	r0, [fp, #-32]	; 0xffffffe0
/home/hintik/dev/final/src/sources/stdlib/src/stdstring.cpp:67
    float a = 0.0;
    a6f8:	e3a03000 	mov	r3, #0
    a6fc:	e50b3008 	str	r3, [fp, #-8]
/home/hintik/dev/final/src/sources/stdlib/src/stdstring.cpp:68
    int e = 0;
    a700:	e3a03000 	mov	r3, #0
    a704:	e50b300c 	str	r3, [fp, #-12]
/home/hintik/dev/final/src/sources/stdlib/src/stdstring.cpp:70
    int c;
    while ((c = *s++) != '\0' && isdigit(c)) {
    a708:	e51b3020 	ldr	r3, [fp, #-32]	; 0xffffffe0
    a70c:	e2832001 	add	r2, r3, #1
    a710:	e50b2020 	str	r2, [fp, #-32]	; 0xffffffe0
    a714:	e5d33000 	ldrb	r3, [r3]
    a718:	e50b3010 	str	r3, [fp, #-16]
    a71c:	e51b3010 	ldr	r3, [fp, #-16]
    a720:	e3530000 	cmp	r3, #0
    a724:	0a000007 	beq	a748 <_Z4atofPKc+0x60>
/home/hintik/dev/final/src/sources/stdlib/src/stdstring.cpp:70 (discriminator 1)
    a728:	e51b3010 	ldr	r3, [fp, #-16]
    a72c:	e353002f 	cmp	r3, #47	; 0x2f
    a730:	da000004 	ble	a748 <_Z4atofPKc+0x60>
/home/hintik/dev/final/src/sources/stdlib/src/stdstring.cpp:70 (discriminator 3)
    a734:	e51b3010 	ldr	r3, [fp, #-16]
    a738:	e3530039 	cmp	r3, #57	; 0x39
    a73c:	ca000001 	bgt	a748 <_Z4atofPKc+0x60>
/home/hintik/dev/final/src/sources/stdlib/src/stdstring.cpp:70 (discriminator 5)
    a740:	e3a03001 	mov	r3, #1
    a744:	ea000000 	b	a74c <_Z4atofPKc+0x64>
/home/hintik/dev/final/src/sources/stdlib/src/stdstring.cpp:70 (discriminator 6)
    a748:	e3a03000 	mov	r3, #0
/home/hintik/dev/final/src/sources/stdlib/src/stdstring.cpp:70 (discriminator 8)
    a74c:	e3530000 	cmp	r3, #0
    a750:	0a00000b 	beq	a784 <_Z4atofPKc+0x9c>
/home/hintik/dev/final/src/sources/stdlib/src/stdstring.cpp:71
        a = a * 10.0 + (c - '0');
    a754:	ed5b7a02 	vldr	s15, [fp, #-8]
    a758:	eeb77ae7 	vcvt.f64.f32	d7, s15
    a75c:	ed9f6b89 	vldr	d6, [pc, #548]	; a988 <_Z4atofPKc+0x2a0>
    a760:	ee276b06 	vmul.f64	d6, d7, d6
    a764:	e51b3010 	ldr	r3, [fp, #-16]
    a768:	e2433030 	sub	r3, r3, #48	; 0x30
    a76c:	ee073a90 	vmov	s15, r3
    a770:	eeb87be7 	vcvt.f64.s32	d7, s15
    a774:	ee367b07 	vadd.f64	d7, d6, d7
    a778:	eef77bc7 	vcvt.f32.f64	s15, d7
    a77c:	ed4b7a02 	vstr	s15, [fp, #-8]
/home/hintik/dev/final/src/sources/stdlib/src/stdstring.cpp:70
    while ((c = *s++) != '\0' && isdigit(c)) {
    a780:	eaffffe0 	b	a708 <_Z4atofPKc+0x20>
/home/hintik/dev/final/src/sources/stdlib/src/stdstring.cpp:73
    }
    if (c == '.') {
    a784:	e51b3010 	ldr	r3, [fp, #-16]
    a788:	e353002e 	cmp	r3, #46	; 0x2e
    a78c:	1a000021 	bne	a818 <_Z4atofPKc+0x130>
/home/hintik/dev/final/src/sources/stdlib/src/stdstring.cpp:74
        while ((c = *s++) != '\0' && isdigit(c)) {
    a790:	e51b3020 	ldr	r3, [fp, #-32]	; 0xffffffe0
    a794:	e2832001 	add	r2, r3, #1
    a798:	e50b2020 	str	r2, [fp, #-32]	; 0xffffffe0
    a79c:	e5d33000 	ldrb	r3, [r3]
    a7a0:	e50b3010 	str	r3, [fp, #-16]
    a7a4:	e51b3010 	ldr	r3, [fp, #-16]
    a7a8:	e3530000 	cmp	r3, #0
    a7ac:	0a000007 	beq	a7d0 <_Z4atofPKc+0xe8>
/home/hintik/dev/final/src/sources/stdlib/src/stdstring.cpp:74 (discriminator 1)
    a7b0:	e51b3010 	ldr	r3, [fp, #-16]
    a7b4:	e353002f 	cmp	r3, #47	; 0x2f
    a7b8:	da000004 	ble	a7d0 <_Z4atofPKc+0xe8>
/home/hintik/dev/final/src/sources/stdlib/src/stdstring.cpp:74 (discriminator 3)
    a7bc:	e51b3010 	ldr	r3, [fp, #-16]
    a7c0:	e3530039 	cmp	r3, #57	; 0x39
    a7c4:	ca000001 	bgt	a7d0 <_Z4atofPKc+0xe8>
/home/hintik/dev/final/src/sources/stdlib/src/stdstring.cpp:74 (discriminator 5)
    a7c8:	e3a03001 	mov	r3, #1
    a7cc:	ea000000 	b	a7d4 <_Z4atofPKc+0xec>
/home/hintik/dev/final/src/sources/stdlib/src/stdstring.cpp:74 (discriminator 6)
    a7d0:	e3a03000 	mov	r3, #0
/home/hintik/dev/final/src/sources/stdlib/src/stdstring.cpp:74 (discriminator 8)
    a7d4:	e3530000 	cmp	r3, #0
    a7d8:	0a00000e 	beq	a818 <_Z4atofPKc+0x130>
/home/hintik/dev/final/src/sources/stdlib/src/stdstring.cpp:75
            a = a * 10.0 + (c - '0');
    a7dc:	ed5b7a02 	vldr	s15, [fp, #-8]
    a7e0:	eeb77ae7 	vcvt.f64.f32	d7, s15
    a7e4:	ed9f6b67 	vldr	d6, [pc, #412]	; a988 <_Z4atofPKc+0x2a0>
    a7e8:	ee276b06 	vmul.f64	d6, d7, d6
    a7ec:	e51b3010 	ldr	r3, [fp, #-16]
    a7f0:	e2433030 	sub	r3, r3, #48	; 0x30
    a7f4:	ee073a90 	vmov	s15, r3
    a7f8:	eeb87be7 	vcvt.f64.s32	d7, s15
    a7fc:	ee367b07 	vadd.f64	d7, d6, d7
    a800:	eef77bc7 	vcvt.f32.f64	s15, d7
    a804:	ed4b7a02 	vstr	s15, [fp, #-8]
/home/hintik/dev/final/src/sources/stdlib/src/stdstring.cpp:76
            e = e - 1;
    a808:	e51b300c 	ldr	r3, [fp, #-12]
    a80c:	e2433001 	sub	r3, r3, #1
    a810:	e50b300c 	str	r3, [fp, #-12]
/home/hintik/dev/final/src/sources/stdlib/src/stdstring.cpp:74
        while ((c = *s++) != '\0' && isdigit(c)) {
    a814:	eaffffdd 	b	a790 <_Z4atofPKc+0xa8>
/home/hintik/dev/final/src/sources/stdlib/src/stdstring.cpp:79
        }
    }
    if (c == 'e' || c == 'E') {
    a818:	e51b3010 	ldr	r3, [fp, #-16]
    a81c:	e3530065 	cmp	r3, #101	; 0x65
    a820:	0a000002 	beq	a830 <_Z4atofPKc+0x148>
/home/hintik/dev/final/src/sources/stdlib/src/stdstring.cpp:79 (discriminator 1)
    a824:	e51b3010 	ldr	r3, [fp, #-16]
    a828:	e3530045 	cmp	r3, #69	; 0x45
    a82c:	1a000037 	bne	a910 <_Z4atofPKc+0x228>
/home/hintik/dev/final/src/sources/stdlib/src/stdstring.cpp:80
        int sign = 1;
    a830:	e3a03001 	mov	r3, #1
    a834:	e50b3014 	str	r3, [fp, #-20]	; 0xffffffec
/home/hintik/dev/final/src/sources/stdlib/src/stdstring.cpp:81
        int i = 0;
    a838:	e3a03000 	mov	r3, #0
    a83c:	e50b3018 	str	r3, [fp, #-24]	; 0xffffffe8
/home/hintik/dev/final/src/sources/stdlib/src/stdstring.cpp:82
        c = *s++;
    a840:	e51b3020 	ldr	r3, [fp, #-32]	; 0xffffffe0
    a844:	e2832001 	add	r2, r3, #1
    a848:	e50b2020 	str	r2, [fp, #-32]	; 0xffffffe0
    a84c:	e5d33000 	ldrb	r3, [r3]
    a850:	e50b3010 	str	r3, [fp, #-16]
/home/hintik/dev/final/src/sources/stdlib/src/stdstring.cpp:83
        if (c == '+')
    a854:	e51b3010 	ldr	r3, [fp, #-16]
    a858:	e353002b 	cmp	r3, #43	; 0x2b
    a85c:	1a000005 	bne	a878 <_Z4atofPKc+0x190>
/home/hintik/dev/final/src/sources/stdlib/src/stdstring.cpp:84
            c = *s++;
    a860:	e51b3020 	ldr	r3, [fp, #-32]	; 0xffffffe0
    a864:	e2832001 	add	r2, r3, #1
    a868:	e50b2020 	str	r2, [fp, #-32]	; 0xffffffe0
    a86c:	e5d33000 	ldrb	r3, [r3]
    a870:	e50b3010 	str	r3, [fp, #-16]
    a874:	ea000009 	b	a8a0 <_Z4atofPKc+0x1b8>
/home/hintik/dev/final/src/sources/stdlib/src/stdstring.cpp:85
        else if (c == '-') {
    a878:	e51b3010 	ldr	r3, [fp, #-16]
    a87c:	e353002d 	cmp	r3, #45	; 0x2d
    a880:	1a000006 	bne	a8a0 <_Z4atofPKc+0x1b8>
/home/hintik/dev/final/src/sources/stdlib/src/stdstring.cpp:86
            c = *s++;
    a884:	e51b3020 	ldr	r3, [fp, #-32]	; 0xffffffe0
    a888:	e2832001 	add	r2, r3, #1
    a88c:	e50b2020 	str	r2, [fp, #-32]	; 0xffffffe0
    a890:	e5d33000 	ldrb	r3, [r3]
    a894:	e50b3010 	str	r3, [fp, #-16]
/home/hintik/dev/final/src/sources/stdlib/src/stdstring.cpp:87
            sign = -1;
    a898:	e3e03000 	mvn	r3, #0
    a89c:	e50b3014 	str	r3, [fp, #-20]	; 0xffffffec
/home/hintik/dev/final/src/sources/stdlib/src/stdstring.cpp:89
        }
        while (isdigit(c)) {
    a8a0:	e51b3010 	ldr	r3, [fp, #-16]
    a8a4:	e353002f 	cmp	r3, #47	; 0x2f
    a8a8:	da000012 	ble	a8f8 <_Z4atofPKc+0x210>
/home/hintik/dev/final/src/sources/stdlib/src/stdstring.cpp:89 (discriminator 1)
    a8ac:	e51b3010 	ldr	r3, [fp, #-16]
    a8b0:	e3530039 	cmp	r3, #57	; 0x39
    a8b4:	ca00000f 	bgt	a8f8 <_Z4atofPKc+0x210>
/home/hintik/dev/final/src/sources/stdlib/src/stdstring.cpp:90
            i = i * 10 + (c - '0');
    a8b8:	e51b2018 	ldr	r2, [fp, #-24]	; 0xffffffe8
    a8bc:	e1a03002 	mov	r3, r2
    a8c0:	e1a03103 	lsl	r3, r3, #2
    a8c4:	e0833002 	add	r3, r3, r2
    a8c8:	e1a03083 	lsl	r3, r3, #1
    a8cc:	e1a02003 	mov	r2, r3
    a8d0:	e51b3010 	ldr	r3, [fp, #-16]
    a8d4:	e2433030 	sub	r3, r3, #48	; 0x30
    a8d8:	e0823003 	add	r3, r2, r3
    a8dc:	e50b3018 	str	r3, [fp, #-24]	; 0xffffffe8
/home/hintik/dev/final/src/sources/stdlib/src/stdstring.cpp:91
            c = *s++;
    a8e0:	e51b3020 	ldr	r3, [fp, #-32]	; 0xffffffe0
    a8e4:	e2832001 	add	r2, r3, #1
    a8e8:	e50b2020 	str	r2, [fp, #-32]	; 0xffffffe0
    a8ec:	e5d33000 	ldrb	r3, [r3]
    a8f0:	e50b3010 	str	r3, [fp, #-16]
/home/hintik/dev/final/src/sources/stdlib/src/stdstring.cpp:89
        while (isdigit(c)) {
    a8f4:	eaffffe9 	b	a8a0 <_Z4atofPKc+0x1b8>
/home/hintik/dev/final/src/sources/stdlib/src/stdstring.cpp:93
        }
        e += i * sign;
    a8f8:	e51b3018 	ldr	r3, [fp, #-24]	; 0xffffffe8
    a8fc:	e51b2014 	ldr	r2, [fp, #-20]	; 0xffffffec
    a900:	e0030392 	mul	r3, r2, r3
    a904:	e51b200c 	ldr	r2, [fp, #-12]
    a908:	e0823003 	add	r3, r2, r3
    a90c:	e50b300c 	str	r3, [fp, #-12]
/home/hintik/dev/final/src/sources/stdlib/src/stdstring.cpp:95
    }
    while (e > 0) {
    a910:	e51b300c 	ldr	r3, [fp, #-12]
    a914:	e3530000 	cmp	r3, #0
    a918:	da000007 	ble	a93c <_Z4atofPKc+0x254>
/home/hintik/dev/final/src/sources/stdlib/src/stdstring.cpp:96
        a *= 10.0;
    a91c:	ed5b7a02 	vldr	s15, [fp, #-8]
    a920:	ed9f7a1c 	vldr	s14, [pc, #112]	; a998 <_Z4atofPKc+0x2b0>
    a924:	ee677a87 	vmul.f32	s15, s15, s14
    a928:	ed4b7a02 	vstr	s15, [fp, #-8]
/home/hintik/dev/final/src/sources/stdlib/src/stdstring.cpp:97
        e--;
    a92c:	e51b300c 	ldr	r3, [fp, #-12]
    a930:	e2433001 	sub	r3, r3, #1
    a934:	e50b300c 	str	r3, [fp, #-12]
/home/hintik/dev/final/src/sources/stdlib/src/stdstring.cpp:95
    while (e > 0) {
    a938:	eafffff4 	b	a910 <_Z4atofPKc+0x228>
/home/hintik/dev/final/src/sources/stdlib/src/stdstring.cpp:99
    }
    while (e < 0) {
    a93c:	e51b300c 	ldr	r3, [fp, #-12]
    a940:	e3530000 	cmp	r3, #0
    a944:	aa000009 	bge	a970 <_Z4atofPKc+0x288>
/home/hintik/dev/final/src/sources/stdlib/src/stdstring.cpp:100
        a *= 0.1;
    a948:	ed5b7a02 	vldr	s15, [fp, #-8]
    a94c:	eeb77ae7 	vcvt.f64.f32	d7, s15
    a950:	ed9f6b0e 	vldr	d6, [pc, #56]	; a990 <_Z4atofPKc+0x2a8>
    a954:	ee277b06 	vmul.f64	d7, d7, d6
    a958:	eef77bc7 	vcvt.f32.f64	s15, d7
    a95c:	ed4b7a02 	vstr	s15, [fp, #-8]
/home/hintik/dev/final/src/sources/stdlib/src/stdstring.cpp:101
        e++;
    a960:	e51b300c 	ldr	r3, [fp, #-12]
    a964:	e2833001 	add	r3, r3, #1
    a968:	e50b300c 	str	r3, [fp, #-12]
/home/hintik/dev/final/src/sources/stdlib/src/stdstring.cpp:99
    while (e < 0) {
    a96c:	eafffff2 	b	a93c <_Z4atofPKc+0x254>
/home/hintik/dev/final/src/sources/stdlib/src/stdstring.cpp:103
    }
    return a;
    a970:	e51b3008 	ldr	r3, [fp, #-8]
    a974:	ee073a90 	vmov	s15, r3
/home/hintik/dev/final/src/sources/stdlib/src/stdstring.cpp:104
}
    a978:	eeb00a67 	vmov.f32	s0, s15
    a97c:	e28bd000 	add	sp, fp, #0
    a980:	e49db004 	pop	{fp}		; (ldr fp, [sp], #4)
    a984:	e12fff1e 	bx	lr
    a988:	00000000 	andeq	r0, r0, r0
    a98c:	40240000 	eormi	r0, r4, r0
    a990:	9999999a 	ldmibls	r9, {r1, r3, r4, r7, r8, fp, ip, pc}
    a994:	3fb99999 	svccc	0x00b99999
    a998:	41200000 			; <UNDEFINED> instruction: 0x41200000

0000a99c <_Z4itoajPcj>:
_Z4itoajPcj():
/home/hintik/dev/final/src/sources/stdlib/src/stdstring.cpp:106

void itoa(unsigned int input, char *output, unsigned int base) {
    a99c:	e92d4800 	push	{fp, lr}
    a9a0:	e28db004 	add	fp, sp, #4
    a9a4:	e24dd020 	sub	sp, sp, #32
    a9a8:	e50b0018 	str	r0, [fp, #-24]	; 0xffffffe8
    a9ac:	e50b101c 	str	r1, [fp, #-28]	; 0xffffffe4
    a9b0:	e50b2020 	str	r2, [fp, #-32]	; 0xffffffe0
/home/hintik/dev/final/src/sources/stdlib/src/stdstring.cpp:107
    int i = 0;
    a9b4:	e3a03000 	mov	r3, #0
    a9b8:	e50b3008 	str	r3, [fp, #-8]
/home/hintik/dev/final/src/sources/stdlib/src/stdstring.cpp:109

    while (input > 0) {
    a9bc:	e51b3018 	ldr	r3, [fp, #-24]	; 0xffffffe8
    a9c0:	e3530000 	cmp	r3, #0
    a9c4:	0a000014 	beq	aa1c <_Z4itoajPcj+0x80>
/home/hintik/dev/final/src/sources/stdlib/src/stdstring.cpp:110
        output[i] = CharConvArr[input % base];
    a9c8:	e51b3018 	ldr	r3, [fp, #-24]	; 0xffffffe8
    a9cc:	e51b1020 	ldr	r1, [fp, #-32]	; 0xffffffe0
    a9d0:	e1a00003 	mov	r0, r3
    a9d4:	eb000283 	bl	b3e8 <__aeabi_uidivmod>
    a9d8:	e1a03001 	mov	r3, r1
    a9dc:	e1a01003 	mov	r1, r3
    a9e0:	e51b3008 	ldr	r3, [fp, #-8]
    a9e4:	e51b201c 	ldr	r2, [fp, #-28]	; 0xffffffe4
    a9e8:	e0823003 	add	r3, r2, r3
    a9ec:	e59f2118 	ldr	r2, [pc, #280]	; ab0c <_Z4itoajPcj+0x170>
    a9f0:	e7d22001 	ldrb	r2, [r2, r1]
    a9f4:	e5c32000 	strb	r2, [r3]
/home/hintik/dev/final/src/sources/stdlib/src/stdstring.cpp:111
        input /= base;
    a9f8:	e51b1020 	ldr	r1, [fp, #-32]	; 0xffffffe0
    a9fc:	e51b0018 	ldr	r0, [fp, #-24]	; 0xffffffe8
    aa00:	eb0001fd 	bl	b1fc <__udivsi3>
    aa04:	e1a03000 	mov	r3, r0
    aa08:	e50b3018 	str	r3, [fp, #-24]	; 0xffffffe8
/home/hintik/dev/final/src/sources/stdlib/src/stdstring.cpp:112
        i++;
    aa0c:	e51b3008 	ldr	r3, [fp, #-8]
    aa10:	e2833001 	add	r3, r3, #1
    aa14:	e50b3008 	str	r3, [fp, #-8]
/home/hintik/dev/final/src/sources/stdlib/src/stdstring.cpp:109
    while (input > 0) {
    aa18:	eaffffe7 	b	a9bc <_Z4itoajPcj+0x20>
/home/hintik/dev/final/src/sources/stdlib/src/stdstring.cpp:115
    }

    if (i == 0) {
    aa1c:	e51b3008 	ldr	r3, [fp, #-8]
    aa20:	e3530000 	cmp	r3, #0
    aa24:	1a000007 	bne	aa48 <_Z4itoajPcj+0xac>
/home/hintik/dev/final/src/sources/stdlib/src/stdstring.cpp:116
        output[i] = CharConvArr[0];
    aa28:	e51b3008 	ldr	r3, [fp, #-8]
    aa2c:	e51b201c 	ldr	r2, [fp, #-28]	; 0xffffffe4
    aa30:	e0823003 	add	r3, r2, r3
    aa34:	e3a02030 	mov	r2, #48	; 0x30
    aa38:	e5c32000 	strb	r2, [r3]
/home/hintik/dev/final/src/sources/stdlib/src/stdstring.cpp:117
        i++;
    aa3c:	e51b3008 	ldr	r3, [fp, #-8]
    aa40:	e2833001 	add	r3, r3, #1
    aa44:	e50b3008 	str	r3, [fp, #-8]
/home/hintik/dev/final/src/sources/stdlib/src/stdstring.cpp:120
    }

    output[i] = '\0';
    aa48:	e51b3008 	ldr	r3, [fp, #-8]
    aa4c:	e51b201c 	ldr	r2, [fp, #-28]	; 0xffffffe4
    aa50:	e0823003 	add	r3, r2, r3
    aa54:	e3a02000 	mov	r2, #0
    aa58:	e5c32000 	strb	r2, [r3]
/home/hintik/dev/final/src/sources/stdlib/src/stdstring.cpp:121
    i--;
    aa5c:	e51b3008 	ldr	r3, [fp, #-8]
    aa60:	e2433001 	sub	r3, r3, #1
    aa64:	e50b3008 	str	r3, [fp, #-8]
/home/hintik/dev/final/src/sources/stdlib/src/stdstring.cpp:123

    for (int j = 0; j <= i / 2; j++) {
    aa68:	e3a03000 	mov	r3, #0
    aa6c:	e50b300c 	str	r3, [fp, #-12]
/home/hintik/dev/final/src/sources/stdlib/src/stdstring.cpp:123 (discriminator 3)
    aa70:	e51b3008 	ldr	r3, [fp, #-8]
    aa74:	e1a02fa3 	lsr	r2, r3, #31
    aa78:	e0823003 	add	r3, r2, r3
    aa7c:	e1a030c3 	asr	r3, r3, #1
    aa80:	e1a02003 	mov	r2, r3
    aa84:	e51b300c 	ldr	r3, [fp, #-12]
    aa88:	e1530002 	cmp	r3, r2
    aa8c:	ca00001b 	bgt	ab00 <_Z4itoajPcj+0x164>
/home/hintik/dev/final/src/sources/stdlib/src/stdstring.cpp:124 (discriminator 2)
        char c = output[i - j];
    aa90:	e51b2008 	ldr	r2, [fp, #-8]
    aa94:	e51b300c 	ldr	r3, [fp, #-12]
    aa98:	e0423003 	sub	r3, r2, r3
    aa9c:	e1a02003 	mov	r2, r3
    aaa0:	e51b301c 	ldr	r3, [fp, #-28]	; 0xffffffe4
    aaa4:	e0833002 	add	r3, r3, r2
    aaa8:	e5d33000 	ldrb	r3, [r3]
    aaac:	e54b300d 	strb	r3, [fp, #-13]
/home/hintik/dev/final/src/sources/stdlib/src/stdstring.cpp:125 (discriminator 2)
        output[i - j] = output[j];
    aab0:	e51b300c 	ldr	r3, [fp, #-12]
    aab4:	e51b201c 	ldr	r2, [fp, #-28]	; 0xffffffe4
    aab8:	e0822003 	add	r2, r2, r3
    aabc:	e51b1008 	ldr	r1, [fp, #-8]
    aac0:	e51b300c 	ldr	r3, [fp, #-12]
    aac4:	e0413003 	sub	r3, r1, r3
    aac8:	e1a01003 	mov	r1, r3
    aacc:	e51b301c 	ldr	r3, [fp, #-28]	; 0xffffffe4
    aad0:	e0833001 	add	r3, r3, r1
    aad4:	e5d22000 	ldrb	r2, [r2]
    aad8:	e5c32000 	strb	r2, [r3]
/home/hintik/dev/final/src/sources/stdlib/src/stdstring.cpp:126 (discriminator 2)
        output[j] = c;
    aadc:	e51b300c 	ldr	r3, [fp, #-12]
    aae0:	e51b201c 	ldr	r2, [fp, #-28]	; 0xffffffe4
    aae4:	e0823003 	add	r3, r2, r3
    aae8:	e55b200d 	ldrb	r2, [fp, #-13]
    aaec:	e5c32000 	strb	r2, [r3]
/home/hintik/dev/final/src/sources/stdlib/src/stdstring.cpp:123 (discriminator 2)
    for (int j = 0; j <= i / 2; j++) {
    aaf0:	e51b300c 	ldr	r3, [fp, #-12]
    aaf4:	e2833001 	add	r3, r3, #1
    aaf8:	e50b300c 	str	r3, [fp, #-12]
    aafc:	eaffffdb 	b	aa70 <_Z4itoajPcj+0xd4>
/home/hintik/dev/final/src/sources/stdlib/src/stdstring.cpp:128
    }
}
    ab00:	e320f000 	nop	{0}
    ab04:	e24bd004 	sub	sp, fp, #4
    ab08:	e8bd8800 	pop	{fp, pc}
    ab0c:	0000bdb4 			; <UNDEFINED> instruction: 0x0000bdb4

0000ab10 <_Z4atoiPKc>:
_Z4atoiPKc():
/home/hintik/dev/final/src/sources/stdlib/src/stdstring.cpp:130

int atoi(const char *input) {
    ab10:	e52db004 	push	{fp}		; (str fp, [sp, #-4]!)
    ab14:	e28db000 	add	fp, sp, #0
    ab18:	e24dd014 	sub	sp, sp, #20
    ab1c:	e50b0010 	str	r0, [fp, #-16]
/home/hintik/dev/final/src/sources/stdlib/src/stdstring.cpp:131
    int output = 0;
    ab20:	e3a03000 	mov	r3, #0
    ab24:	e50b3008 	str	r3, [fp, #-8]
/home/hintik/dev/final/src/sources/stdlib/src/stdstring.cpp:133

    while (*input != '\0') {
    ab28:	e51b3010 	ldr	r3, [fp, #-16]
    ab2c:	e5d33000 	ldrb	r3, [r3]
    ab30:	e3530000 	cmp	r3, #0
    ab34:	0a000017 	beq	ab98 <_Z4atoiPKc+0x88>
/home/hintik/dev/final/src/sources/stdlib/src/stdstring.cpp:134
        output *= 10;
    ab38:	e51b2008 	ldr	r2, [fp, #-8]
    ab3c:	e1a03002 	mov	r3, r2
    ab40:	e1a03103 	lsl	r3, r3, #2
    ab44:	e0833002 	add	r3, r3, r2
    ab48:	e1a03083 	lsl	r3, r3, #1
    ab4c:	e50b3008 	str	r3, [fp, #-8]
/home/hintik/dev/final/src/sources/stdlib/src/stdstring.cpp:135
        if (*input > '9' || *input < '0')
    ab50:	e51b3010 	ldr	r3, [fp, #-16]
    ab54:	e5d33000 	ldrb	r3, [r3]
    ab58:	e3530039 	cmp	r3, #57	; 0x39
    ab5c:	8a00000d 	bhi	ab98 <_Z4atoiPKc+0x88>
/home/hintik/dev/final/src/sources/stdlib/src/stdstring.cpp:135 (discriminator 1)
    ab60:	e51b3010 	ldr	r3, [fp, #-16]
    ab64:	e5d33000 	ldrb	r3, [r3]
    ab68:	e353002f 	cmp	r3, #47	; 0x2f
    ab6c:	9a000009 	bls	ab98 <_Z4atoiPKc+0x88>
/home/hintik/dev/final/src/sources/stdlib/src/stdstring.cpp:138
            break;

        output += *input - '0';
    ab70:	e51b3010 	ldr	r3, [fp, #-16]
    ab74:	e5d33000 	ldrb	r3, [r3]
    ab78:	e2433030 	sub	r3, r3, #48	; 0x30
    ab7c:	e51b2008 	ldr	r2, [fp, #-8]
    ab80:	e0823003 	add	r3, r2, r3
    ab84:	e50b3008 	str	r3, [fp, #-8]
/home/hintik/dev/final/src/sources/stdlib/src/stdstring.cpp:140

        input++;
    ab88:	e51b3010 	ldr	r3, [fp, #-16]
    ab8c:	e2833001 	add	r3, r3, #1
    ab90:	e50b3010 	str	r3, [fp, #-16]
/home/hintik/dev/final/src/sources/stdlib/src/stdstring.cpp:133
    while (*input != '\0') {
    ab94:	eaffffe3 	b	ab28 <_Z4atoiPKc+0x18>
/home/hintik/dev/final/src/sources/stdlib/src/stdstring.cpp:143
    }

    return output;
    ab98:	e51b3008 	ldr	r3, [fp, #-8]
/home/hintik/dev/final/src/sources/stdlib/src/stdstring.cpp:144
}
    ab9c:	e1a00003 	mov	r0, r3
    aba0:	e28bd000 	add	sp, fp, #0
    aba4:	e49db004 	pop	{fp}		; (ldr fp, [sp], #4)
    aba8:	e12fff1e 	bx	lr

0000abac <_Z7strncpyPcPKci>:
_Z7strncpyPcPKci():
/home/hintik/dev/final/src/sources/stdlib/src/stdstring.cpp:146

char *strncpy(char *dest, const char *src, int num) {
    abac:	e52db004 	push	{fp}		; (str fp, [sp, #-4]!)
    abb0:	e28db000 	add	fp, sp, #0
    abb4:	e24dd01c 	sub	sp, sp, #28
    abb8:	e50b0010 	str	r0, [fp, #-16]
    abbc:	e50b1014 	str	r1, [fp, #-20]	; 0xffffffec
    abc0:	e50b2018 	str	r2, [fp, #-24]	; 0xffffffe8
/home/hintik/dev/final/src/sources/stdlib/src/stdstring.cpp:149
    int i;

    for (i = 0; i < num && src[i] != '\0'; i++)
    abc4:	e3a03000 	mov	r3, #0
    abc8:	e50b3008 	str	r3, [fp, #-8]
/home/hintik/dev/final/src/sources/stdlib/src/stdstring.cpp:149 (discriminator 4)
    abcc:	e51b2008 	ldr	r2, [fp, #-8]
    abd0:	e51b3018 	ldr	r3, [fp, #-24]	; 0xffffffe8
    abd4:	e1520003 	cmp	r2, r3
    abd8:	aa000011 	bge	ac24 <_Z7strncpyPcPKci+0x78>
/home/hintik/dev/final/src/sources/stdlib/src/stdstring.cpp:149 (discriminator 2)
    abdc:	e51b3008 	ldr	r3, [fp, #-8]
    abe0:	e51b2014 	ldr	r2, [fp, #-20]	; 0xffffffec
    abe4:	e0823003 	add	r3, r2, r3
    abe8:	e5d33000 	ldrb	r3, [r3]
    abec:	e3530000 	cmp	r3, #0
    abf0:	0a00000b 	beq	ac24 <_Z7strncpyPcPKci+0x78>
/home/hintik/dev/final/src/sources/stdlib/src/stdstring.cpp:150 (discriminator 3)
        dest[i] = src[i];
    abf4:	e51b3008 	ldr	r3, [fp, #-8]
    abf8:	e51b2014 	ldr	r2, [fp, #-20]	; 0xffffffec
    abfc:	e0822003 	add	r2, r2, r3
    ac00:	e51b3008 	ldr	r3, [fp, #-8]
    ac04:	e51b1010 	ldr	r1, [fp, #-16]
    ac08:	e0813003 	add	r3, r1, r3
    ac0c:	e5d22000 	ldrb	r2, [r2]
    ac10:	e5c32000 	strb	r2, [r3]
/home/hintik/dev/final/src/sources/stdlib/src/stdstring.cpp:149 (discriminator 3)
    for (i = 0; i < num && src[i] != '\0'; i++)
    ac14:	e51b3008 	ldr	r3, [fp, #-8]
    ac18:	e2833001 	add	r3, r3, #1
    ac1c:	e50b3008 	str	r3, [fp, #-8]
    ac20:	eaffffe9 	b	abcc <_Z7strncpyPcPKci+0x20>
/home/hintik/dev/final/src/sources/stdlib/src/stdstring.cpp:151 (discriminator 2)
    for (; i < num; i++)
    ac24:	e51b2008 	ldr	r2, [fp, #-8]
    ac28:	e51b3018 	ldr	r3, [fp, #-24]	; 0xffffffe8
    ac2c:	e1520003 	cmp	r2, r3
    ac30:	aa000008 	bge	ac58 <_Z7strncpyPcPKci+0xac>
/home/hintik/dev/final/src/sources/stdlib/src/stdstring.cpp:152 (discriminator 1)
        dest[i] = '\0';
    ac34:	e51b3008 	ldr	r3, [fp, #-8]
    ac38:	e51b2010 	ldr	r2, [fp, #-16]
    ac3c:	e0823003 	add	r3, r2, r3
    ac40:	e3a02000 	mov	r2, #0
    ac44:	e5c32000 	strb	r2, [r3]
/home/hintik/dev/final/src/sources/stdlib/src/stdstring.cpp:151 (discriminator 1)
    for (; i < num; i++)
    ac48:	e51b3008 	ldr	r3, [fp, #-8]
    ac4c:	e2833001 	add	r3, r3, #1
    ac50:	e50b3008 	str	r3, [fp, #-8]
    ac54:	eafffff2 	b	ac24 <_Z7strncpyPcPKci+0x78>
/home/hintik/dev/final/src/sources/stdlib/src/stdstring.cpp:154

    return dest;
    ac58:	e51b3010 	ldr	r3, [fp, #-16]
/home/hintik/dev/final/src/sources/stdlib/src/stdstring.cpp:155
}
    ac5c:	e1a00003 	mov	r0, r3
    ac60:	e28bd000 	add	sp, fp, #0
    ac64:	e49db004 	pop	{fp}		; (ldr fp, [sp], #4)
    ac68:	e12fff1e 	bx	lr

0000ac6c <_Z7strncmpPKcS0_i>:
_Z7strncmpPKcS0_i():
/home/hintik/dev/final/src/sources/stdlib/src/stdstring.cpp:157

int strncmp(const char *s1, const char *s2, int num) {
    ac6c:	e52db004 	push	{fp}		; (str fp, [sp, #-4]!)
    ac70:	e28db000 	add	fp, sp, #0
    ac74:	e24dd01c 	sub	sp, sp, #28
    ac78:	e50b0010 	str	r0, [fp, #-16]
    ac7c:	e50b1014 	str	r1, [fp, #-20]	; 0xffffffec
    ac80:	e50b2018 	str	r2, [fp, #-24]	; 0xffffffe8
/home/hintik/dev/final/src/sources/stdlib/src/stdstring.cpp:159
    unsigned char u1, u2;
    while (num-- > 0) {
    ac84:	e51b3018 	ldr	r3, [fp, #-24]	; 0xffffffe8
    ac88:	e2432001 	sub	r2, r3, #1
    ac8c:	e50b2018 	str	r2, [fp, #-24]	; 0xffffffe8
    ac90:	e3530000 	cmp	r3, #0
    ac94:	c3a03001 	movgt	r3, #1
    ac98:	d3a03000 	movle	r3, #0
    ac9c:	e6ef3073 	uxtb	r3, r3
    aca0:	e3530000 	cmp	r3, #0
    aca4:	0a000016 	beq	ad04 <_Z7strncmpPKcS0_i+0x98>
/home/hintik/dev/final/src/sources/stdlib/src/stdstring.cpp:160
        u1 = (unsigned char) *s1++;
    aca8:	e51b3010 	ldr	r3, [fp, #-16]
    acac:	e2832001 	add	r2, r3, #1
    acb0:	e50b2010 	str	r2, [fp, #-16]
    acb4:	e5d33000 	ldrb	r3, [r3]
    acb8:	e54b3005 	strb	r3, [fp, #-5]
/home/hintik/dev/final/src/sources/stdlib/src/stdstring.cpp:161
        u2 = (unsigned char) *s2++;
    acbc:	e51b3014 	ldr	r3, [fp, #-20]	; 0xffffffec
    acc0:	e2832001 	add	r2, r3, #1
    acc4:	e50b2014 	str	r2, [fp, #-20]	; 0xffffffec
    acc8:	e5d33000 	ldrb	r3, [r3]
    accc:	e54b3006 	strb	r3, [fp, #-6]
/home/hintik/dev/final/src/sources/stdlib/src/stdstring.cpp:162
        if (u1 != u2)
    acd0:	e55b2005 	ldrb	r2, [fp, #-5]
    acd4:	e55b3006 	ldrb	r3, [fp, #-6]
    acd8:	e1520003 	cmp	r2, r3
    acdc:	0a000003 	beq	acf0 <_Z7strncmpPKcS0_i+0x84>
/home/hintik/dev/final/src/sources/stdlib/src/stdstring.cpp:163
            return u1 - u2;
    ace0:	e55b2005 	ldrb	r2, [fp, #-5]
    ace4:	e55b3006 	ldrb	r3, [fp, #-6]
    ace8:	e0423003 	sub	r3, r2, r3
    acec:	ea000005 	b	ad08 <_Z7strncmpPKcS0_i+0x9c>
/home/hintik/dev/final/src/sources/stdlib/src/stdstring.cpp:164
        if (u1 == '\0')
    acf0:	e55b3005 	ldrb	r3, [fp, #-5]
    acf4:	e3530000 	cmp	r3, #0
    acf8:	1affffe1 	bne	ac84 <_Z7strncmpPKcS0_i+0x18>
/home/hintik/dev/final/src/sources/stdlib/src/stdstring.cpp:165
            return 0;
    acfc:	e3a03000 	mov	r3, #0
    ad00:	ea000000 	b	ad08 <_Z7strncmpPKcS0_i+0x9c>
/home/hintik/dev/final/src/sources/stdlib/src/stdstring.cpp:168
    }

    return 0;
    ad04:	e3a03000 	mov	r3, #0
/home/hintik/dev/final/src/sources/stdlib/src/stdstring.cpp:169
}
    ad08:	e1a00003 	mov	r0, r3
    ad0c:	e28bd000 	add	sp, fp, #0
    ad10:	e49db004 	pop	{fp}		; (ldr fp, [sp], #4)
    ad14:	e12fff1e 	bx	lr

0000ad18 <_Z6strlenPKc>:
_Z6strlenPKc():
/home/hintik/dev/final/src/sources/stdlib/src/stdstring.cpp:171

int strlen(const char *s) {
    ad18:	e52db004 	push	{fp}		; (str fp, [sp, #-4]!)
    ad1c:	e28db000 	add	fp, sp, #0
    ad20:	e24dd014 	sub	sp, sp, #20
    ad24:	e50b0010 	str	r0, [fp, #-16]
/home/hintik/dev/final/src/sources/stdlib/src/stdstring.cpp:172
    int i = 0;
    ad28:	e3a03000 	mov	r3, #0
    ad2c:	e50b3008 	str	r3, [fp, #-8]
/home/hintik/dev/final/src/sources/stdlib/src/stdstring.cpp:174

    while (s[i] != '\0')
    ad30:	e51b3008 	ldr	r3, [fp, #-8]
    ad34:	e51b2010 	ldr	r2, [fp, #-16]
    ad38:	e0823003 	add	r3, r2, r3
    ad3c:	e5d33000 	ldrb	r3, [r3]
    ad40:	e3530000 	cmp	r3, #0
    ad44:	0a000003 	beq	ad58 <_Z6strlenPKc+0x40>
/home/hintik/dev/final/src/sources/stdlib/src/stdstring.cpp:175
        i++;
    ad48:	e51b3008 	ldr	r3, [fp, #-8]
    ad4c:	e2833001 	add	r3, r3, #1
    ad50:	e50b3008 	str	r3, [fp, #-8]
/home/hintik/dev/final/src/sources/stdlib/src/stdstring.cpp:174
    while (s[i] != '\0')
    ad54:	eafffff5 	b	ad30 <_Z6strlenPKc+0x18>
/home/hintik/dev/final/src/sources/stdlib/src/stdstring.cpp:177

    return i;
    ad58:	e51b3008 	ldr	r3, [fp, #-8]
/home/hintik/dev/final/src/sources/stdlib/src/stdstring.cpp:178
}
    ad5c:	e1a00003 	mov	r0, r3
    ad60:	e28bd000 	add	sp, fp, #0
    ad64:	e49db004 	pop	{fp}		; (ldr fp, [sp], #4)
    ad68:	e12fff1e 	bx	lr

0000ad6c <_Z9constainsPKcc>:
_Z9constainsPKcc():
/home/hintik/dev/final/src/sources/stdlib/src/stdstring.cpp:180

bool constains(const char *source, const char target) {
    ad6c:	e52db004 	push	{fp}		; (str fp, [sp, #-4]!)
    ad70:	e28db000 	add	fp, sp, #0
    ad74:	e24dd014 	sub	sp, sp, #20
    ad78:	e50b0010 	str	r0, [fp, #-16]
    ad7c:	e1a03001 	mov	r3, r1
    ad80:	e54b3011 	strb	r3, [fp, #-17]	; 0xffffffef
/home/hintik/dev/final/src/sources/stdlib/src/stdstring.cpp:181
    int i = 0;
    ad84:	e3a03000 	mov	r3, #0
    ad88:	e50b3008 	str	r3, [fp, #-8]
/home/hintik/dev/final/src/sources/stdlib/src/stdstring.cpp:183

    while (source[i] != '\0') {
    ad8c:	e51b3008 	ldr	r3, [fp, #-8]
    ad90:	e51b2010 	ldr	r2, [fp, #-16]
    ad94:	e0823003 	add	r3, r2, r3
    ad98:	e5d33000 	ldrb	r3, [r3]
    ad9c:	e3530000 	cmp	r3, #0
    ada0:	0a00000c 	beq	add8 <_Z9constainsPKcc+0x6c>
/home/hintik/dev/final/src/sources/stdlib/src/stdstring.cpp:184
        if (source[i] == target)
    ada4:	e51b3008 	ldr	r3, [fp, #-8]
    ada8:	e51b2010 	ldr	r2, [fp, #-16]
    adac:	e0823003 	add	r3, r2, r3
    adb0:	e5d33000 	ldrb	r3, [r3]
    adb4:	e55b2011 	ldrb	r2, [fp, #-17]	; 0xffffffef
    adb8:	e1520003 	cmp	r2, r3
    adbc:	1a000001 	bne	adc8 <_Z9constainsPKcc+0x5c>
/home/hintik/dev/final/src/sources/stdlib/src/stdstring.cpp:185
            return true;
    adc0:	e3a03001 	mov	r3, #1
    adc4:	ea000004 	b	addc <_Z9constainsPKcc+0x70>
/home/hintik/dev/final/src/sources/stdlib/src/stdstring.cpp:186
        i++;
    adc8:	e51b3008 	ldr	r3, [fp, #-8]
    adcc:	e2833001 	add	r3, r3, #1
    add0:	e50b3008 	str	r3, [fp, #-8]
/home/hintik/dev/final/src/sources/stdlib/src/stdstring.cpp:183
    while (source[i] != '\0') {
    add4:	eaffffec 	b	ad8c <_Z9constainsPKcc+0x20>
/home/hintik/dev/final/src/sources/stdlib/src/stdstring.cpp:188
    }
    return false;
    add8:	e3a03000 	mov	r3, #0
/home/hintik/dev/final/src/sources/stdlib/src/stdstring.cpp:189
}
    addc:	e1a00003 	mov	r0, r3
    ade0:	e28bd000 	add	sp, fp, #0
    ade4:	e49db004 	pop	{fp}		; (ldr fp, [sp], #4)
    ade8:	e12fff1e 	bx	lr

0000adec <_Z5bzeroPvi>:
_Z5bzeroPvi():
/home/hintik/dev/final/src/sources/stdlib/src/stdstring.cpp:191

void bzero(void *memory, int length) {
    adec:	e52db004 	push	{fp}		; (str fp, [sp, #-4]!)
    adf0:	e28db000 	add	fp, sp, #0
    adf4:	e24dd014 	sub	sp, sp, #20
    adf8:	e50b0010 	str	r0, [fp, #-16]
    adfc:	e50b1014 	str	r1, [fp, #-20]	; 0xffffffec
/home/hintik/dev/final/src/sources/stdlib/src/stdstring.cpp:192
    char *mem = reinterpret_cast<char *>(memory);
    ae00:	e51b3010 	ldr	r3, [fp, #-16]
    ae04:	e50b300c 	str	r3, [fp, #-12]
/home/hintik/dev/final/src/sources/stdlib/src/stdstring.cpp:194

    for (int i = 0; i < length; i++)
    ae08:	e3a03000 	mov	r3, #0
    ae0c:	e50b3008 	str	r3, [fp, #-8]
/home/hintik/dev/final/src/sources/stdlib/src/stdstring.cpp:194 (discriminator 3)
    ae10:	e51b2008 	ldr	r2, [fp, #-8]
    ae14:	e51b3014 	ldr	r3, [fp, #-20]	; 0xffffffec
    ae18:	e1520003 	cmp	r2, r3
    ae1c:	aa000008 	bge	ae44 <_Z5bzeroPvi+0x58>
/home/hintik/dev/final/src/sources/stdlib/src/stdstring.cpp:195 (discriminator 2)
        mem[i] = 0;
    ae20:	e51b3008 	ldr	r3, [fp, #-8]
    ae24:	e51b200c 	ldr	r2, [fp, #-12]
    ae28:	e0823003 	add	r3, r2, r3
    ae2c:	e3a02000 	mov	r2, #0
    ae30:	e5c32000 	strb	r2, [r3]
/home/hintik/dev/final/src/sources/stdlib/src/stdstring.cpp:194 (discriminator 2)
    for (int i = 0; i < length; i++)
    ae34:	e51b3008 	ldr	r3, [fp, #-8]
    ae38:	e2833001 	add	r3, r3, #1
    ae3c:	e50b3008 	str	r3, [fp, #-8]
    ae40:	eafffff2 	b	ae10 <_Z5bzeroPvi+0x24>
/home/hintik/dev/final/src/sources/stdlib/src/stdstring.cpp:196
}
    ae44:	e320f000 	nop	{0}
    ae48:	e28bd000 	add	sp, fp, #0
    ae4c:	e49db004 	pop	{fp}		; (ldr fp, [sp], #4)
    ae50:	e12fff1e 	bx	lr

0000ae54 <_Z6memcpyPKvPvi>:
_Z6memcpyPKvPvi():
/home/hintik/dev/final/src/sources/stdlib/src/stdstring.cpp:198

void memcpy(const void *src, void *dst, int num) {
    ae54:	e52db004 	push	{fp}		; (str fp, [sp, #-4]!)
    ae58:	e28db000 	add	fp, sp, #0
    ae5c:	e24dd024 	sub	sp, sp, #36	; 0x24
    ae60:	e50b0018 	str	r0, [fp, #-24]	; 0xffffffe8
    ae64:	e50b101c 	str	r1, [fp, #-28]	; 0xffffffe4
    ae68:	e50b2020 	str	r2, [fp, #-32]	; 0xffffffe0
/home/hintik/dev/final/src/sources/stdlib/src/stdstring.cpp:199
    const char *memsrc = reinterpret_cast<const char *>(src);
    ae6c:	e51b3018 	ldr	r3, [fp, #-24]	; 0xffffffe8
    ae70:	e50b300c 	str	r3, [fp, #-12]
/home/hintik/dev/final/src/sources/stdlib/src/stdstring.cpp:200
    char *memdst = reinterpret_cast<char *>(dst);
    ae74:	e51b301c 	ldr	r3, [fp, #-28]	; 0xffffffe4
    ae78:	e50b3010 	str	r3, [fp, #-16]
/home/hintik/dev/final/src/sources/stdlib/src/stdstring.cpp:202

    for (int i = 0; i < num; i++)
    ae7c:	e3a03000 	mov	r3, #0
    ae80:	e50b3008 	str	r3, [fp, #-8]
/home/hintik/dev/final/src/sources/stdlib/src/stdstring.cpp:202 (discriminator 3)
    ae84:	e51b2008 	ldr	r2, [fp, #-8]
    ae88:	e51b3020 	ldr	r3, [fp, #-32]	; 0xffffffe0
    ae8c:	e1520003 	cmp	r2, r3
    ae90:	aa00000b 	bge	aec4 <_Z6memcpyPKvPvi+0x70>
/home/hintik/dev/final/src/sources/stdlib/src/stdstring.cpp:203 (discriminator 2)
        memdst[i] = memsrc[i];
    ae94:	e51b3008 	ldr	r3, [fp, #-8]
    ae98:	e51b200c 	ldr	r2, [fp, #-12]
    ae9c:	e0822003 	add	r2, r2, r3
    aea0:	e51b3008 	ldr	r3, [fp, #-8]
    aea4:	e51b1010 	ldr	r1, [fp, #-16]
    aea8:	e0813003 	add	r3, r1, r3
    aeac:	e5d22000 	ldrb	r2, [r2]
    aeb0:	e5c32000 	strb	r2, [r3]
/home/hintik/dev/final/src/sources/stdlib/src/stdstring.cpp:202 (discriminator 2)
    for (int i = 0; i < num; i++)
    aeb4:	e51b3008 	ldr	r3, [fp, #-8]
    aeb8:	e2833001 	add	r3, r3, #1
    aebc:	e50b3008 	str	r3, [fp, #-8]
    aec0:	eaffffef 	b	ae84 <_Z6memcpyPKvPvi+0x30>
/home/hintik/dev/final/src/sources/stdlib/src/stdstring.cpp:204
}
    aec4:	e320f000 	nop	{0}
    aec8:	e28bd000 	add	sp, fp, #0
    aecc:	e49db004 	pop	{fp}		; (ldr fp, [sp], #4)
    aed0:	e12fff1e 	bx	lr

0000aed4 <_Z8is_digitc>:
_Z8is_digitc():
/home/hintik/dev/final/src/sources/stdlib/src/stdstring.cpp:206

bool is_digit(char c) {
    aed4:	e52db004 	push	{fp}		; (str fp, [sp, #-4]!)
    aed8:	e28db000 	add	fp, sp, #0
    aedc:	e24dd00c 	sub	sp, sp, #12
    aee0:	e1a03000 	mov	r3, r0
    aee4:	e54b3005 	strb	r3, [fp, #-5]
/home/hintik/dev/final/src/sources/stdlib/src/stdstring.cpp:207
    return (c >= '0') && (c <= '9');
    aee8:	e55b3005 	ldrb	r3, [fp, #-5]
    aeec:	e353002f 	cmp	r3, #47	; 0x2f
    aef0:	9a000004 	bls	af08 <_Z8is_digitc+0x34>
/home/hintik/dev/final/src/sources/stdlib/src/stdstring.cpp:207 (discriminator 1)
    aef4:	e55b3005 	ldrb	r3, [fp, #-5]
    aef8:	e3530039 	cmp	r3, #57	; 0x39
    aefc:	8a000001 	bhi	af08 <_Z8is_digitc+0x34>
/home/hintik/dev/final/src/sources/stdlib/src/stdstring.cpp:207 (discriminator 3)
    af00:	e3a03001 	mov	r3, #1
    af04:	ea000000 	b	af0c <_Z8is_digitc+0x38>
/home/hintik/dev/final/src/sources/stdlib/src/stdstring.cpp:207 (discriminator 4)
    af08:	e3a03000 	mov	r3, #0
/home/hintik/dev/final/src/sources/stdlib/src/stdstring.cpp:208 (discriminator 6)
}
    af0c:	e1a00003 	mov	r0, r3
    af10:	e28bd000 	add	sp, fp, #0
    af14:	e49db004 	pop	{fp}		; (ldr fp, [sp], #4)
    af18:	e12fff1e 	bx	lr

0000af1c <_Z10is_decimalPKc>:
_Z10is_decimalPKc():
/home/hintik/dev/final/src/sources/stdlib/src/stdstring.cpp:210

bool is_decimal(const char *str) {
    af1c:	e92d4800 	push	{fp, lr}
    af20:	e28db004 	add	fp, sp, #4
    af24:	e24dd018 	sub	sp, sp, #24
    af28:	e50b0018 	str	r0, [fp, #-24]	; 0xffffffe8
/home/hintik/dev/final/src/sources/stdlib/src/stdstring.cpp:211
    char c = str[0];
    af2c:	e51b3018 	ldr	r3, [fp, #-24]	; 0xffffffe8
    af30:	e5d33000 	ldrb	r3, [r3]
    af34:	e54b300d 	strb	r3, [fp, #-13]
/home/hintik/dev/final/src/sources/stdlib/src/stdstring.cpp:212
    if (c == '\0') return false;
    af38:	e55b300d 	ldrb	r3, [fp, #-13]
    af3c:	e3530000 	cmp	r3, #0
    af40:	1a000001 	bne	af4c <_Z10is_decimalPKc+0x30>
/home/hintik/dev/final/src/sources/stdlib/src/stdstring.cpp:212 (discriminator 1)
    af44:	e3a03000 	mov	r3, #0
    af48:	ea000036 	b	b028 <_Z10is_decimalPKc+0x10c>
/home/hintik/dev/final/src/sources/stdlib/src/stdstring.cpp:214

    int size = 0;
    af4c:	e3a03000 	mov	r3, #0
    af50:	e50b3008 	str	r3, [fp, #-8]
/home/hintik/dev/final/src/sources/stdlib/src/stdstring.cpp:216

    if (!is_digit(c)) {
    af54:	e55b300d 	ldrb	r3, [fp, #-13]
    af58:	e1a00003 	mov	r0, r3
    af5c:	ebffffdc 	bl	aed4 <_Z8is_digitc>
    af60:	e1a03000 	mov	r3, r0
    af64:	e2233001 	eor	r3, r3, #1
    af68:	e6ef3073 	uxtb	r3, r3
    af6c:	e3530000 	cmp	r3, #0
    af70:	0a000007 	beq	af94 <_Z10is_decimalPKc+0x78>
/home/hintik/dev/final/src/sources/stdlib/src/stdstring.cpp:217
        if (c != '+' && c != '-') {
    af74:	e55b300d 	ldrb	r3, [fp, #-13]
    af78:	e353002b 	cmp	r3, #43	; 0x2b
    af7c:	0a000007 	beq	afa0 <_Z10is_decimalPKc+0x84>
/home/hintik/dev/final/src/sources/stdlib/src/stdstring.cpp:217 (discriminator 1)
    af80:	e55b300d 	ldrb	r3, [fp, #-13]
    af84:	e353002d 	cmp	r3, #45	; 0x2d
    af88:	0a000004 	beq	afa0 <_Z10is_decimalPKc+0x84>
/home/hintik/dev/final/src/sources/stdlib/src/stdstring.cpp:218
            return false;
    af8c:	e3a03000 	mov	r3, #0
    af90:	ea000024 	b	b028 <_Z10is_decimalPKc+0x10c>
/home/hintik/dev/final/src/sources/stdlib/src/stdstring.cpp:221
        }
    } else {
        size++;
    af94:	e51b3008 	ldr	r3, [fp, #-8]
    af98:	e2833001 	add	r3, r3, #1
    af9c:	e50b3008 	str	r3, [fp, #-8]
/home/hintik/dev/final/src/sources/stdlib/src/stdstring.cpp:224
    }

    int i = 1;
    afa0:	e3a03001 	mov	r3, #1
    afa4:	e50b300c 	str	r3, [fp, #-12]
/home/hintik/dev/final/src/sources/stdlib/src/stdstring.cpp:225
    while (str[i] != '\0') {
    afa8:	e51b300c 	ldr	r3, [fp, #-12]
    afac:	e51b2018 	ldr	r2, [fp, #-24]	; 0xffffffe8
    afb0:	e0823003 	add	r3, r2, r3
    afb4:	e5d33000 	ldrb	r3, [r3]
    afb8:	e3530000 	cmp	r3, #0
    afbc:	0a000013 	beq	b010 <_Z10is_decimalPKc+0xf4>
/home/hintik/dev/final/src/sources/stdlib/src/stdstring.cpp:226
        if (!is_digit(str[i])) {
    afc0:	e51b300c 	ldr	r3, [fp, #-12]
    afc4:	e51b2018 	ldr	r2, [fp, #-24]	; 0xffffffe8
    afc8:	e0823003 	add	r3, r2, r3
    afcc:	e5d33000 	ldrb	r3, [r3]
    afd0:	e1a00003 	mov	r0, r3
    afd4:	ebffffbe 	bl	aed4 <_Z8is_digitc>
    afd8:	e1a03000 	mov	r3, r0
    afdc:	e2233001 	eor	r3, r3, #1
    afe0:	e6ef3073 	uxtb	r3, r3
    afe4:	e3530000 	cmp	r3, #0
    afe8:	0a000001 	beq	aff4 <_Z10is_decimalPKc+0xd8>
/home/hintik/dev/final/src/sources/stdlib/src/stdstring.cpp:227
            return false;
    afec:	e3a03000 	mov	r3, #0
    aff0:	ea00000c 	b	b028 <_Z10is_decimalPKc+0x10c>
/home/hintik/dev/final/src/sources/stdlib/src/stdstring.cpp:229
        }
        size++;
    aff4:	e51b3008 	ldr	r3, [fp, #-8]
    aff8:	e2833001 	add	r3, r3, #1
    affc:	e50b3008 	str	r3, [fp, #-8]
/home/hintik/dev/final/src/sources/stdlib/src/stdstring.cpp:230
        i++;
    b000:	e51b300c 	ldr	r3, [fp, #-12]
    b004:	e2833001 	add	r3, r3, #1
    b008:	e50b300c 	str	r3, [fp, #-12]
/home/hintik/dev/final/src/sources/stdlib/src/stdstring.cpp:225
    while (str[i] != '\0') {
    b00c:	eaffffe5 	b	afa8 <_Z10is_decimalPKc+0x8c>
/home/hintik/dev/final/src/sources/stdlib/src/stdstring.cpp:233
    }

    if (size == 0) {
    b010:	e51b3008 	ldr	r3, [fp, #-8]
    b014:	e3530000 	cmp	r3, #0
    b018:	1a000001 	bne	b024 <_Z10is_decimalPKc+0x108>
/home/hintik/dev/final/src/sources/stdlib/src/stdstring.cpp:234
        return false;
    b01c:	e3a03000 	mov	r3, #0
    b020:	ea000000 	b	b028 <_Z10is_decimalPKc+0x10c>
/home/hintik/dev/final/src/sources/stdlib/src/stdstring.cpp:237
    }

    return true;
    b024:	e3a03001 	mov	r3, #1
/home/hintik/dev/final/src/sources/stdlib/src/stdstring.cpp:238
}
    b028:	e1a00003 	mov	r0, r3
    b02c:	e24bd004 	sub	sp, fp, #4
    b030:	e8bd8800 	pop	{fp, pc}

0000b034 <_Z8is_floatPKc>:
_Z8is_floatPKc():
/home/hintik/dev/final/src/sources/stdlib/src/stdstring.cpp:240

bool is_float(const char *str) {
    b034:	e92d4800 	push	{fp, lr}
    b038:	e28db004 	add	fp, sp, #4
    b03c:	e24dd020 	sub	sp, sp, #32
    b040:	e50b0020 	str	r0, [fp, #-32]	; 0xffffffe0
/home/hintik/dev/final/src/sources/stdlib/src/stdstring.cpp:241
    char c = str[0];
    b044:	e51b3020 	ldr	r3, [fp, #-32]	; 0xffffffe0
    b048:	e5d33000 	ldrb	r3, [r3]
    b04c:	e54b3015 	strb	r3, [fp, #-21]	; 0xffffffeb
/home/hintik/dev/final/src/sources/stdlib/src/stdstring.cpp:242
    bool point = false;
    b050:	e3a03000 	mov	r3, #0
    b054:	e54b3005 	strb	r3, [fp, #-5]
/home/hintik/dev/final/src/sources/stdlib/src/stdstring.cpp:243
    int after_point = 0;
    b058:	e3a03000 	mov	r3, #0
    b05c:	e50b300c 	str	r3, [fp, #-12]
/home/hintik/dev/final/src/sources/stdlib/src/stdstring.cpp:244
    int before_point = 0;
    b060:	e3a03000 	mov	r3, #0
    b064:	e50b3010 	str	r3, [fp, #-16]
/home/hintik/dev/final/src/sources/stdlib/src/stdstring.cpp:246

    if (c == '\0') return false;
    b068:	e55b3015 	ldrb	r3, [fp, #-21]	; 0xffffffeb
    b06c:	e3530000 	cmp	r3, #0
    b070:	1a000001 	bne	b07c <_Z8is_floatPKc+0x48>
/home/hintik/dev/final/src/sources/stdlib/src/stdstring.cpp:246 (discriminator 1)
    b074:	e3a03000 	mov	r3, #0
    b078:	ea00005c 	b	b1f0 <_Z8is_floatPKc+0x1bc>
/home/hintik/dev/final/src/sources/stdlib/src/stdstring.cpp:248

    if (c != '+' && c != '-' && !is_digit(c)) return false;
    b07c:	e55b3015 	ldrb	r3, [fp, #-21]	; 0xffffffeb
    b080:	e353002b 	cmp	r3, #43	; 0x2b
    b084:	0a00000c 	beq	b0bc <_Z8is_floatPKc+0x88>
/home/hintik/dev/final/src/sources/stdlib/src/stdstring.cpp:248 (discriminator 1)
    b088:	e55b3015 	ldrb	r3, [fp, #-21]	; 0xffffffeb
    b08c:	e353002d 	cmp	r3, #45	; 0x2d
    b090:	0a000009 	beq	b0bc <_Z8is_floatPKc+0x88>
/home/hintik/dev/final/src/sources/stdlib/src/stdstring.cpp:248 (discriminator 3)
    b094:	e55b3015 	ldrb	r3, [fp, #-21]	; 0xffffffeb
    b098:	e1a00003 	mov	r0, r3
    b09c:	ebffff8c 	bl	aed4 <_Z8is_digitc>
    b0a0:	e1a03000 	mov	r3, r0
    b0a4:	e2233001 	eor	r3, r3, #1
    b0a8:	e6ef3073 	uxtb	r3, r3
    b0ac:	e3530000 	cmp	r3, #0
    b0b0:	0a000001 	beq	b0bc <_Z8is_floatPKc+0x88>
/home/hintik/dev/final/src/sources/stdlib/src/stdstring.cpp:248 (discriminator 5)
    b0b4:	e3a03001 	mov	r3, #1
    b0b8:	ea000000 	b	b0c0 <_Z8is_floatPKc+0x8c>
/home/hintik/dev/final/src/sources/stdlib/src/stdstring.cpp:248 (discriminator 6)
    b0bc:	e3a03000 	mov	r3, #0
/home/hintik/dev/final/src/sources/stdlib/src/stdstring.cpp:248 (discriminator 8)
    b0c0:	e3530000 	cmp	r3, #0
    b0c4:	0a000001 	beq	b0d0 <_Z8is_floatPKc+0x9c>
/home/hintik/dev/final/src/sources/stdlib/src/stdstring.cpp:248 (discriminator 9)
    b0c8:	e3a03000 	mov	r3, #0
    b0cc:	ea000047 	b	b1f0 <_Z8is_floatPKc+0x1bc>
/home/hintik/dev/final/src/sources/stdlib/src/stdstring.cpp:250

    if (is_digit(c)) {
    b0d0:	e55b3015 	ldrb	r3, [fp, #-21]	; 0xffffffeb
    b0d4:	e1a00003 	mov	r0, r3
    b0d8:	ebffff7d 	bl	aed4 <_Z8is_digitc>
    b0dc:	e1a03000 	mov	r3, r0
    b0e0:	e3530000 	cmp	r3, #0
    b0e4:	0a000002 	beq	b0f4 <_Z8is_floatPKc+0xc0>
/home/hintik/dev/final/src/sources/stdlib/src/stdstring.cpp:251
        before_point++;
    b0e8:	e51b3010 	ldr	r3, [fp, #-16]
    b0ec:	e2833001 	add	r3, r3, #1
    b0f0:	e50b3010 	str	r3, [fp, #-16]
/home/hintik/dev/final/src/sources/stdlib/src/stdstring.cpp:254
    }

    int i = 1;
    b0f4:	e3a03001 	mov	r3, #1
    b0f8:	e50b3014 	str	r3, [fp, #-20]	; 0xffffffec
/home/hintik/dev/final/src/sources/stdlib/src/stdstring.cpp:255
    while (str[i] != '\0') {
    b0fc:	e51b3014 	ldr	r3, [fp, #-20]	; 0xffffffec
    b100:	e51b2020 	ldr	r2, [fp, #-32]	; 0xffffffe0
    b104:	e0823003 	add	r3, r2, r3
    b108:	e5d33000 	ldrb	r3, [r3]
    b10c:	e3530000 	cmp	r3, #0
    b110:	0a000028 	beq	b1b8 <_Z8is_floatPKc+0x184>
/home/hintik/dev/final/src/sources/stdlib/src/stdstring.cpp:256
        if (!is_digit(str[i])) {
    b114:	e51b3014 	ldr	r3, [fp, #-20]	; 0xffffffec
    b118:	e51b2020 	ldr	r2, [fp, #-32]	; 0xffffffe0
    b11c:	e0823003 	add	r3, r2, r3
    b120:	e5d33000 	ldrb	r3, [r3]
    b124:	e1a00003 	mov	r0, r3
    b128:	ebffff69 	bl	aed4 <_Z8is_digitc>
    b12c:	e1a03000 	mov	r3, r0
    b130:	e2233001 	eor	r3, r3, #1
    b134:	e6ef3073 	uxtb	r3, r3
    b138:	e3530000 	cmp	r3, #0
    b13c:	0a00000f 	beq	b180 <_Z8is_floatPKc+0x14c>
/home/hintik/dev/final/src/sources/stdlib/src/stdstring.cpp:257
            if (str[i] == '.' && point == false) {
    b140:	e51b3014 	ldr	r3, [fp, #-20]	; 0xffffffec
    b144:	e51b2020 	ldr	r2, [fp, #-32]	; 0xffffffe0
    b148:	e0823003 	add	r3, r2, r3
    b14c:	e5d33000 	ldrb	r3, [r3]
    b150:	e353002e 	cmp	r3, #46	; 0x2e
    b154:	1a000007 	bne	b178 <_Z8is_floatPKc+0x144>
/home/hintik/dev/final/src/sources/stdlib/src/stdstring.cpp:257 (discriminator 1)
    b158:	e55b3005 	ldrb	r3, [fp, #-5]
    b15c:	e2233001 	eor	r3, r3, #1
    b160:	e6ef3073 	uxtb	r3, r3
    b164:	e3530000 	cmp	r3, #0
    b168:	0a000002 	beq	b178 <_Z8is_floatPKc+0x144>
/home/hintik/dev/final/src/sources/stdlib/src/stdstring.cpp:258
                point = true;
    b16c:	e3a03001 	mov	r3, #1
    b170:	e54b3005 	strb	r3, [fp, #-5]
    b174:	ea00000b 	b	b1a8 <_Z8is_floatPKc+0x174>
/home/hintik/dev/final/src/sources/stdlib/src/stdstring.cpp:260
            } else {
                return false;
    b178:	e3a03000 	mov	r3, #0
    b17c:	ea00001b 	b	b1f0 <_Z8is_floatPKc+0x1bc>
/home/hintik/dev/final/src/sources/stdlib/src/stdstring.cpp:263
            }
        } else {
            if (point == true) {
    b180:	e55b3005 	ldrb	r3, [fp, #-5]
    b184:	e3530000 	cmp	r3, #0
    b188:	0a000003 	beq	b19c <_Z8is_floatPKc+0x168>
/home/hintik/dev/final/src/sources/stdlib/src/stdstring.cpp:264
                after_point++;
    b18c:	e51b300c 	ldr	r3, [fp, #-12]
    b190:	e2833001 	add	r3, r3, #1
    b194:	e50b300c 	str	r3, [fp, #-12]
    b198:	ea000002 	b	b1a8 <_Z8is_floatPKc+0x174>
/home/hintik/dev/final/src/sources/stdlib/src/stdstring.cpp:266
            } else {
                before_point++;
    b19c:	e51b3010 	ldr	r3, [fp, #-16]
    b1a0:	e2833001 	add	r3, r3, #1
    b1a4:	e50b3010 	str	r3, [fp, #-16]
/home/hintik/dev/final/src/sources/stdlib/src/stdstring.cpp:269
            }
        }
        i++;
    b1a8:	e51b3014 	ldr	r3, [fp, #-20]	; 0xffffffec
    b1ac:	e2833001 	add	r3, r3, #1
    b1b0:	e50b3014 	str	r3, [fp, #-20]	; 0xffffffec
/home/hintik/dev/final/src/sources/stdlib/src/stdstring.cpp:255
    while (str[i] != '\0') {
    b1b4:	eaffffd0 	b	b0fc <_Z8is_floatPKc+0xc8>
/home/hintik/dev/final/src/sources/stdlib/src/stdstring.cpp:272
    }

    if (before_point < 0) {
    b1b8:	e51b3010 	ldr	r3, [fp, #-16]
    b1bc:	e3530000 	cmp	r3, #0
    b1c0:	aa000001 	bge	b1cc <_Z8is_floatPKc+0x198>
/home/hintik/dev/final/src/sources/stdlib/src/stdstring.cpp:273
        return false;
    b1c4:	e3a03000 	mov	r3, #0
    b1c8:	ea000008 	b	b1f0 <_Z8is_floatPKc+0x1bc>
/home/hintik/dev/final/src/sources/stdlib/src/stdstring.cpp:276
    }

    if (point == true && after_point == 0) {
    b1cc:	e55b3005 	ldrb	r3, [fp, #-5]
    b1d0:	e3530000 	cmp	r3, #0
    b1d4:	0a000004 	beq	b1ec <_Z8is_floatPKc+0x1b8>
/home/hintik/dev/final/src/sources/stdlib/src/stdstring.cpp:276 (discriminator 1)
    b1d8:	e51b300c 	ldr	r3, [fp, #-12]
    b1dc:	e3530000 	cmp	r3, #0
    b1e0:	1a000001 	bne	b1ec <_Z8is_floatPKc+0x1b8>
/home/hintik/dev/final/src/sources/stdlib/src/stdstring.cpp:277
        return false;
    b1e4:	e3a03000 	mov	r3, #0
    b1e8:	ea000000 	b	b1f0 <_Z8is_floatPKc+0x1bc>
/home/hintik/dev/final/src/sources/stdlib/src/stdstring.cpp:280
    }

    return true;
    b1ec:	e3a03001 	mov	r3, #1
/home/hintik/dev/final/src/sources/stdlib/src/stdstring.cpp:281
    b1f0:	e1a00003 	mov	r0, r3
    b1f4:	e24bd004 	sub	sp, fp, #4
    b1f8:	e8bd8800 	pop	{fp, pc}

0000b1fc <__udivsi3>:
__udivsi3():
/build/gcc-arm-none-eabi-zSbVfn/gcc-arm-none-eabi-8-2019-q3/build/arm-none-eabi/arm/v5te/hard/libgcc/../../../../../../libgcc/config/arm/lib1funcs.S:1150
    b1fc:	e2512001 	subs	r2, r1, #1
/build/gcc-arm-none-eabi-zSbVfn/gcc-arm-none-eabi-8-2019-q3/build/arm-none-eabi/arm/v5te/hard/libgcc/../../../../../../libgcc/config/arm/lib1funcs.S:1152
    b200:	012fff1e 	bxeq	lr
/build/gcc-arm-none-eabi-zSbVfn/gcc-arm-none-eabi-8-2019-q3/build/arm-none-eabi/arm/v5te/hard/libgcc/../../../../../../libgcc/config/arm/lib1funcs.S:1153
    b204:	3a000074 	bcc	b3dc <__udivsi3+0x1e0>
/build/gcc-arm-none-eabi-zSbVfn/gcc-arm-none-eabi-8-2019-q3/build/arm-none-eabi/arm/v5te/hard/libgcc/../../../../../../libgcc/config/arm/lib1funcs.S:1154
    b208:	e1500001 	cmp	r0, r1
/build/gcc-arm-none-eabi-zSbVfn/gcc-arm-none-eabi-8-2019-q3/build/arm-none-eabi/arm/v5te/hard/libgcc/../../../../../../libgcc/config/arm/lib1funcs.S:1155
    b20c:	9a00006b 	bls	b3c0 <__udivsi3+0x1c4>
/build/gcc-arm-none-eabi-zSbVfn/gcc-arm-none-eabi-8-2019-q3/build/arm-none-eabi/arm/v5te/hard/libgcc/../../../../../../libgcc/config/arm/lib1funcs.S:1156
    b210:	e1110002 	tst	r1, r2
/build/gcc-arm-none-eabi-zSbVfn/gcc-arm-none-eabi-8-2019-q3/build/arm-none-eabi/arm/v5te/hard/libgcc/../../../../../../libgcc/config/arm/lib1funcs.S:1157
    b214:	0a00006c 	beq	b3cc <__udivsi3+0x1d0>
/build/gcc-arm-none-eabi-zSbVfn/gcc-arm-none-eabi-8-2019-q3/build/arm-none-eabi/arm/v5te/hard/libgcc/../../../../../../libgcc/config/arm/lib1funcs.S:1159
    b218:	e16f3f10 	clz	r3, r0
    b21c:	e16f2f11 	clz	r2, r1
    b220:	e0423003 	sub	r3, r2, r3
    b224:	e273301f 	rsbs	r3, r3, #31
    b228:	10833083 	addne	r3, r3, r3, lsl #1
    b22c:	e3a02000 	mov	r2, #0
    b230:	108ff103 	addne	pc, pc, r3, lsl #2
    b234:	e1a00000 	nop			; (mov r0, r0)
    b238:	e1500f81 	cmp	r0, r1, lsl #31
    b23c:	e0a22002 	adc	r2, r2, r2
    b240:	20400f81 	subcs	r0, r0, r1, lsl #31
    b244:	e1500f01 	cmp	r0, r1, lsl #30
    b248:	e0a22002 	adc	r2, r2, r2
    b24c:	20400f01 	subcs	r0, r0, r1, lsl #30
    b250:	e1500e81 	cmp	r0, r1, lsl #29
    b254:	e0a22002 	adc	r2, r2, r2
    b258:	20400e81 	subcs	r0, r0, r1, lsl #29
    b25c:	e1500e01 	cmp	r0, r1, lsl #28
    b260:	e0a22002 	adc	r2, r2, r2
    b264:	20400e01 	subcs	r0, r0, r1, lsl #28
    b268:	e1500d81 	cmp	r0, r1, lsl #27
    b26c:	e0a22002 	adc	r2, r2, r2
    b270:	20400d81 	subcs	r0, r0, r1, lsl #27
    b274:	e1500d01 	cmp	r0, r1, lsl #26
    b278:	e0a22002 	adc	r2, r2, r2
    b27c:	20400d01 	subcs	r0, r0, r1, lsl #26
    b280:	e1500c81 	cmp	r0, r1, lsl #25
    b284:	e0a22002 	adc	r2, r2, r2
    b288:	20400c81 	subcs	r0, r0, r1, lsl #25
    b28c:	e1500c01 	cmp	r0, r1, lsl #24
    b290:	e0a22002 	adc	r2, r2, r2
    b294:	20400c01 	subcs	r0, r0, r1, lsl #24
    b298:	e1500b81 	cmp	r0, r1, lsl #23
    b29c:	e0a22002 	adc	r2, r2, r2
    b2a0:	20400b81 	subcs	r0, r0, r1, lsl #23
    b2a4:	e1500b01 	cmp	r0, r1, lsl #22
    b2a8:	e0a22002 	adc	r2, r2, r2
    b2ac:	20400b01 	subcs	r0, r0, r1, lsl #22
    b2b0:	e1500a81 	cmp	r0, r1, lsl #21
    b2b4:	e0a22002 	adc	r2, r2, r2
    b2b8:	20400a81 	subcs	r0, r0, r1, lsl #21
    b2bc:	e1500a01 	cmp	r0, r1, lsl #20
    b2c0:	e0a22002 	adc	r2, r2, r2
    b2c4:	20400a01 	subcs	r0, r0, r1, lsl #20
    b2c8:	e1500981 	cmp	r0, r1, lsl #19
    b2cc:	e0a22002 	adc	r2, r2, r2
    b2d0:	20400981 	subcs	r0, r0, r1, lsl #19
    b2d4:	e1500901 	cmp	r0, r1, lsl #18
    b2d8:	e0a22002 	adc	r2, r2, r2
    b2dc:	20400901 	subcs	r0, r0, r1, lsl #18
    b2e0:	e1500881 	cmp	r0, r1, lsl #17
    b2e4:	e0a22002 	adc	r2, r2, r2
    b2e8:	20400881 	subcs	r0, r0, r1, lsl #17
    b2ec:	e1500801 	cmp	r0, r1, lsl #16
    b2f0:	e0a22002 	adc	r2, r2, r2
    b2f4:	20400801 	subcs	r0, r0, r1, lsl #16
    b2f8:	e1500781 	cmp	r0, r1, lsl #15
    b2fc:	e0a22002 	adc	r2, r2, r2
    b300:	20400781 	subcs	r0, r0, r1, lsl #15
    b304:	e1500701 	cmp	r0, r1, lsl #14
    b308:	e0a22002 	adc	r2, r2, r2
    b30c:	20400701 	subcs	r0, r0, r1, lsl #14
    b310:	e1500681 	cmp	r0, r1, lsl #13
    b314:	e0a22002 	adc	r2, r2, r2
    b318:	20400681 	subcs	r0, r0, r1, lsl #13
    b31c:	e1500601 	cmp	r0, r1, lsl #12
    b320:	e0a22002 	adc	r2, r2, r2
    b324:	20400601 	subcs	r0, r0, r1, lsl #12
    b328:	e1500581 	cmp	r0, r1, lsl #11
    b32c:	e0a22002 	adc	r2, r2, r2
    b330:	20400581 	subcs	r0, r0, r1, lsl #11
    b334:	e1500501 	cmp	r0, r1, lsl #10
    b338:	e0a22002 	adc	r2, r2, r2
    b33c:	20400501 	subcs	r0, r0, r1, lsl #10
    b340:	e1500481 	cmp	r0, r1, lsl #9
    b344:	e0a22002 	adc	r2, r2, r2
    b348:	20400481 	subcs	r0, r0, r1, lsl #9
    b34c:	e1500401 	cmp	r0, r1, lsl #8
    b350:	e0a22002 	adc	r2, r2, r2
    b354:	20400401 	subcs	r0, r0, r1, lsl #8
    b358:	e1500381 	cmp	r0, r1, lsl #7
    b35c:	e0a22002 	adc	r2, r2, r2
    b360:	20400381 	subcs	r0, r0, r1, lsl #7
    b364:	e1500301 	cmp	r0, r1, lsl #6
    b368:	e0a22002 	adc	r2, r2, r2
    b36c:	20400301 	subcs	r0, r0, r1, lsl #6
    b370:	e1500281 	cmp	r0, r1, lsl #5
    b374:	e0a22002 	adc	r2, r2, r2
    b378:	20400281 	subcs	r0, r0, r1, lsl #5
    b37c:	e1500201 	cmp	r0, r1, lsl #4
    b380:	e0a22002 	adc	r2, r2, r2
    b384:	20400201 	subcs	r0, r0, r1, lsl #4
    b388:	e1500181 	cmp	r0, r1, lsl #3
    b38c:	e0a22002 	adc	r2, r2, r2
    b390:	20400181 	subcs	r0, r0, r1, lsl #3
    b394:	e1500101 	cmp	r0, r1, lsl #2
    b398:	e0a22002 	adc	r2, r2, r2
    b39c:	20400101 	subcs	r0, r0, r1, lsl #2
    b3a0:	e1500081 	cmp	r0, r1, lsl #1
    b3a4:	e0a22002 	adc	r2, r2, r2
    b3a8:	20400081 	subcs	r0, r0, r1, lsl #1
    b3ac:	e1500001 	cmp	r0, r1
    b3b0:	e0a22002 	adc	r2, r2, r2
    b3b4:	20400001 	subcs	r0, r0, r1
/build/gcc-arm-none-eabi-zSbVfn/gcc-arm-none-eabi-8-2019-q3/build/arm-none-eabi/arm/v5te/hard/libgcc/../../../../../../libgcc/config/arm/lib1funcs.S:1161
    b3b8:	e1a00002 	mov	r0, r2
/build/gcc-arm-none-eabi-zSbVfn/gcc-arm-none-eabi-8-2019-q3/build/arm-none-eabi/arm/v5te/hard/libgcc/../../../../../../libgcc/config/arm/lib1funcs.S:1162
    b3bc:	e12fff1e 	bx	lr
/build/gcc-arm-none-eabi-zSbVfn/gcc-arm-none-eabi-8-2019-q3/build/arm-none-eabi/arm/v5te/hard/libgcc/../../../../../../libgcc/config/arm/lib1funcs.S:1165
    b3c0:	03a00001 	moveq	r0, #1
/build/gcc-arm-none-eabi-zSbVfn/gcc-arm-none-eabi-8-2019-q3/build/arm-none-eabi/arm/v5te/hard/libgcc/../../../../../../libgcc/config/arm/lib1funcs.S:1166
    b3c4:	13a00000 	movne	r0, #0
/build/gcc-arm-none-eabi-zSbVfn/gcc-arm-none-eabi-8-2019-q3/build/arm-none-eabi/arm/v5te/hard/libgcc/../../../../../../libgcc/config/arm/lib1funcs.S:1167
    b3c8:	e12fff1e 	bx	lr
/build/gcc-arm-none-eabi-zSbVfn/gcc-arm-none-eabi-8-2019-q3/build/arm-none-eabi/arm/v5te/hard/libgcc/../../../../../../libgcc/config/arm/lib1funcs.S:1169
    b3cc:	e16f2f11 	clz	r2, r1
    b3d0:	e262201f 	rsb	r2, r2, #31
/build/gcc-arm-none-eabi-zSbVfn/gcc-arm-none-eabi-8-2019-q3/build/arm-none-eabi/arm/v5te/hard/libgcc/../../../../../../libgcc/config/arm/lib1funcs.S:1171
    b3d4:	e1a00230 	lsr	r0, r0, r2
/build/gcc-arm-none-eabi-zSbVfn/gcc-arm-none-eabi-8-2019-q3/build/arm-none-eabi/arm/v5te/hard/libgcc/../../../../../../libgcc/config/arm/lib1funcs.S:1172
    b3d8:	e12fff1e 	bx	lr
/build/gcc-arm-none-eabi-zSbVfn/gcc-arm-none-eabi-8-2019-q3/build/arm-none-eabi/arm/v5te/hard/libgcc/../../../../../../libgcc/config/arm/lib1funcs.S:1176
    b3dc:	e3500000 	cmp	r0, #0
    b3e0:	13e00000 	mvnne	r0, #0
    b3e4:	ea000097 	b	b648 <__aeabi_idiv0>

0000b3e8 <__aeabi_uidivmod>:
__aeabi_uidivmod():
/build/gcc-arm-none-eabi-zSbVfn/gcc-arm-none-eabi-8-2019-q3/build/arm-none-eabi/arm/v5te/hard/libgcc/../../../../../../libgcc/config/arm/lib1funcs.S:1207
    b3e8:	e3510000 	cmp	r1, #0
/build/gcc-arm-none-eabi-zSbVfn/gcc-arm-none-eabi-8-2019-q3/build/arm-none-eabi/arm/v5te/hard/libgcc/../../../../../../libgcc/config/arm/lib1funcs.S:1208
    b3ec:	0afffffa 	beq	b3dc <__udivsi3+0x1e0>
/build/gcc-arm-none-eabi-zSbVfn/gcc-arm-none-eabi-8-2019-q3/build/arm-none-eabi/arm/v5te/hard/libgcc/../../../../../../libgcc/config/arm/lib1funcs.S:1209
    b3f0:	e92d4003 	push	{r0, r1, lr}
/build/gcc-arm-none-eabi-zSbVfn/gcc-arm-none-eabi-8-2019-q3/build/arm-none-eabi/arm/v5te/hard/libgcc/../../../../../../libgcc/config/arm/lib1funcs.S:1210
    b3f4:	ebffff80 	bl	b1fc <__udivsi3>
/build/gcc-arm-none-eabi-zSbVfn/gcc-arm-none-eabi-8-2019-q3/build/arm-none-eabi/arm/v5te/hard/libgcc/../../../../../../libgcc/config/arm/lib1funcs.S:1211
    b3f8:	e8bd4006 	pop	{r1, r2, lr}
/build/gcc-arm-none-eabi-zSbVfn/gcc-arm-none-eabi-8-2019-q3/build/arm-none-eabi/arm/v5te/hard/libgcc/../../../../../../libgcc/config/arm/lib1funcs.S:1212
    b3fc:	e0030092 	mul	r3, r2, r0
/build/gcc-arm-none-eabi-zSbVfn/gcc-arm-none-eabi-8-2019-q3/build/arm-none-eabi/arm/v5te/hard/libgcc/../../../../../../libgcc/config/arm/lib1funcs.S:1213
    b400:	e0411003 	sub	r1, r1, r3
/build/gcc-arm-none-eabi-zSbVfn/gcc-arm-none-eabi-8-2019-q3/build/arm-none-eabi/arm/v5te/hard/libgcc/../../../../../../libgcc/config/arm/lib1funcs.S:1214
    b404:	e12fff1e 	bx	lr

0000b408 <__divsi3>:
__divsi3():
/build/gcc-arm-none-eabi-zSbVfn/gcc-arm-none-eabi-8-2019-q3/build/arm-none-eabi/arm/v5te/hard/libgcc/../../../../../../libgcc/config/arm/lib1funcs.S:1343
    b408:	e3510000 	cmp	r1, #0
/build/gcc-arm-none-eabi-zSbVfn/gcc-arm-none-eabi-8-2019-q3/build/arm-none-eabi/arm/v5te/hard/libgcc/../../../../../../libgcc/config/arm/lib1funcs.S:1344
    b40c:	0a000081 	beq	b618 <.divsi3_skip_div0_test+0x208>

0000b410 <.divsi3_skip_div0_test>:
/build/gcc-arm-none-eabi-zSbVfn/gcc-arm-none-eabi-8-2019-q3/build/arm-none-eabi/arm/v5te/hard/libgcc/../../../../../../libgcc/config/arm/lib1funcs.S:1346
    b410:	e020c001 	eor	ip, r0, r1
/build/gcc-arm-none-eabi-zSbVfn/gcc-arm-none-eabi-8-2019-q3/build/arm-none-eabi/arm/v5te/hard/libgcc/../../../../../../libgcc/config/arm/lib1funcs.S:1348
    b414:	42611000 	rsbmi	r1, r1, #0
/build/gcc-arm-none-eabi-zSbVfn/gcc-arm-none-eabi-8-2019-q3/build/arm-none-eabi/arm/v5te/hard/libgcc/../../../../../../libgcc/config/arm/lib1funcs.S:1349
    b418:	e2512001 	subs	r2, r1, #1
/build/gcc-arm-none-eabi-zSbVfn/gcc-arm-none-eabi-8-2019-q3/build/arm-none-eabi/arm/v5te/hard/libgcc/../../../../../../libgcc/config/arm/lib1funcs.S:1350
    b41c:	0a000070 	beq	b5e4 <.divsi3_skip_div0_test+0x1d4>
/build/gcc-arm-none-eabi-zSbVfn/gcc-arm-none-eabi-8-2019-q3/build/arm-none-eabi/arm/v5te/hard/libgcc/../../../../../../libgcc/config/arm/lib1funcs.S:1351
    b420:	e1b03000 	movs	r3, r0
/build/gcc-arm-none-eabi-zSbVfn/gcc-arm-none-eabi-8-2019-q3/build/arm-none-eabi/arm/v5te/hard/libgcc/../../../../../../libgcc/config/arm/lib1funcs.S:1353
    b424:	42603000 	rsbmi	r3, r0, #0
/build/gcc-arm-none-eabi-zSbVfn/gcc-arm-none-eabi-8-2019-q3/build/arm-none-eabi/arm/v5te/hard/libgcc/../../../../../../libgcc/config/arm/lib1funcs.S:1354
    b428:	e1530001 	cmp	r3, r1
/build/gcc-arm-none-eabi-zSbVfn/gcc-arm-none-eabi-8-2019-q3/build/arm-none-eabi/arm/v5te/hard/libgcc/../../../../../../libgcc/config/arm/lib1funcs.S:1355
    b42c:	9a00006f 	bls	b5f0 <.divsi3_skip_div0_test+0x1e0>
/build/gcc-arm-none-eabi-zSbVfn/gcc-arm-none-eabi-8-2019-q3/build/arm-none-eabi/arm/v5te/hard/libgcc/../../../../../../libgcc/config/arm/lib1funcs.S:1356
    b430:	e1110002 	tst	r1, r2
/build/gcc-arm-none-eabi-zSbVfn/gcc-arm-none-eabi-8-2019-q3/build/arm-none-eabi/arm/v5te/hard/libgcc/../../../../../../libgcc/config/arm/lib1funcs.S:1357
    b434:	0a000071 	beq	b600 <.divsi3_skip_div0_test+0x1f0>
/build/gcc-arm-none-eabi-zSbVfn/gcc-arm-none-eabi-8-2019-q3/build/arm-none-eabi/arm/v5te/hard/libgcc/../../../../../../libgcc/config/arm/lib1funcs.S:1359
    b438:	e16f2f13 	clz	r2, r3
    b43c:	e16f0f11 	clz	r0, r1
    b440:	e0402002 	sub	r2, r0, r2
    b444:	e272201f 	rsbs	r2, r2, #31
    b448:	10822082 	addne	r2, r2, r2, lsl #1
    b44c:	e3a00000 	mov	r0, #0
    b450:	108ff102 	addne	pc, pc, r2, lsl #2
    b454:	e1a00000 	nop			; (mov r0, r0)
    b458:	e1530f81 	cmp	r3, r1, lsl #31
    b45c:	e0a00000 	adc	r0, r0, r0
    b460:	20433f81 	subcs	r3, r3, r1, lsl #31
    b464:	e1530f01 	cmp	r3, r1, lsl #30
    b468:	e0a00000 	adc	r0, r0, r0
    b46c:	20433f01 	subcs	r3, r3, r1, lsl #30
    b470:	e1530e81 	cmp	r3, r1, lsl #29
    b474:	e0a00000 	adc	r0, r0, r0
    b478:	20433e81 	subcs	r3, r3, r1, lsl #29
    b47c:	e1530e01 	cmp	r3, r1, lsl #28
    b480:	e0a00000 	adc	r0, r0, r0
    b484:	20433e01 	subcs	r3, r3, r1, lsl #28
    b488:	e1530d81 	cmp	r3, r1, lsl #27
    b48c:	e0a00000 	adc	r0, r0, r0
    b490:	20433d81 	subcs	r3, r3, r1, lsl #27
    b494:	e1530d01 	cmp	r3, r1, lsl #26
    b498:	e0a00000 	adc	r0, r0, r0
    b49c:	20433d01 	subcs	r3, r3, r1, lsl #26
    b4a0:	e1530c81 	cmp	r3, r1, lsl #25
    b4a4:	e0a00000 	adc	r0, r0, r0
    b4a8:	20433c81 	subcs	r3, r3, r1, lsl #25
    b4ac:	e1530c01 	cmp	r3, r1, lsl #24
    b4b0:	e0a00000 	adc	r0, r0, r0
    b4b4:	20433c01 	subcs	r3, r3, r1, lsl #24
    b4b8:	e1530b81 	cmp	r3, r1, lsl #23
    b4bc:	e0a00000 	adc	r0, r0, r0
    b4c0:	20433b81 	subcs	r3, r3, r1, lsl #23
    b4c4:	e1530b01 	cmp	r3, r1, lsl #22
    b4c8:	e0a00000 	adc	r0, r0, r0
    b4cc:	20433b01 	subcs	r3, r3, r1, lsl #22
    b4d0:	e1530a81 	cmp	r3, r1, lsl #21
    b4d4:	e0a00000 	adc	r0, r0, r0
    b4d8:	20433a81 	subcs	r3, r3, r1, lsl #21
    b4dc:	e1530a01 	cmp	r3, r1, lsl #20
    b4e0:	e0a00000 	adc	r0, r0, r0
    b4e4:	20433a01 	subcs	r3, r3, r1, lsl #20
    b4e8:	e1530981 	cmp	r3, r1, lsl #19
    b4ec:	e0a00000 	adc	r0, r0, r0
    b4f0:	20433981 	subcs	r3, r3, r1, lsl #19
    b4f4:	e1530901 	cmp	r3, r1, lsl #18
    b4f8:	e0a00000 	adc	r0, r0, r0
    b4fc:	20433901 	subcs	r3, r3, r1, lsl #18
    b500:	e1530881 	cmp	r3, r1, lsl #17
    b504:	e0a00000 	adc	r0, r0, r0
    b508:	20433881 	subcs	r3, r3, r1, lsl #17
    b50c:	e1530801 	cmp	r3, r1, lsl #16
    b510:	e0a00000 	adc	r0, r0, r0
    b514:	20433801 	subcs	r3, r3, r1, lsl #16
    b518:	e1530781 	cmp	r3, r1, lsl #15
    b51c:	e0a00000 	adc	r0, r0, r0
    b520:	20433781 	subcs	r3, r3, r1, lsl #15
    b524:	e1530701 	cmp	r3, r1, lsl #14
    b528:	e0a00000 	adc	r0, r0, r0
    b52c:	20433701 	subcs	r3, r3, r1, lsl #14
    b530:	e1530681 	cmp	r3, r1, lsl #13
    b534:	e0a00000 	adc	r0, r0, r0
    b538:	20433681 	subcs	r3, r3, r1, lsl #13
    b53c:	e1530601 	cmp	r3, r1, lsl #12
    b540:	e0a00000 	adc	r0, r0, r0
    b544:	20433601 	subcs	r3, r3, r1, lsl #12
    b548:	e1530581 	cmp	r3, r1, lsl #11
    b54c:	e0a00000 	adc	r0, r0, r0
    b550:	20433581 	subcs	r3, r3, r1, lsl #11
    b554:	e1530501 	cmp	r3, r1, lsl #10
    b558:	e0a00000 	adc	r0, r0, r0
    b55c:	20433501 	subcs	r3, r3, r1, lsl #10
    b560:	e1530481 	cmp	r3, r1, lsl #9
    b564:	e0a00000 	adc	r0, r0, r0
    b568:	20433481 	subcs	r3, r3, r1, lsl #9
    b56c:	e1530401 	cmp	r3, r1, lsl #8
    b570:	e0a00000 	adc	r0, r0, r0
    b574:	20433401 	subcs	r3, r3, r1, lsl #8
    b578:	e1530381 	cmp	r3, r1, lsl #7
    b57c:	e0a00000 	adc	r0, r0, r0
    b580:	20433381 	subcs	r3, r3, r1, lsl #7
    b584:	e1530301 	cmp	r3, r1, lsl #6
    b588:	e0a00000 	adc	r0, r0, r0
    b58c:	20433301 	subcs	r3, r3, r1, lsl #6
    b590:	e1530281 	cmp	r3, r1, lsl #5
    b594:	e0a00000 	adc	r0, r0, r0
    b598:	20433281 	subcs	r3, r3, r1, lsl #5
    b59c:	e1530201 	cmp	r3, r1, lsl #4
    b5a0:	e0a00000 	adc	r0, r0, r0
    b5a4:	20433201 	subcs	r3, r3, r1, lsl #4
    b5a8:	e1530181 	cmp	r3, r1, lsl #3
    b5ac:	e0a00000 	adc	r0, r0, r0
    b5b0:	20433181 	subcs	r3, r3, r1, lsl #3
    b5b4:	e1530101 	cmp	r3, r1, lsl #2
    b5b8:	e0a00000 	adc	r0, r0, r0
    b5bc:	20433101 	subcs	r3, r3, r1, lsl #2
    b5c0:	e1530081 	cmp	r3, r1, lsl #1
    b5c4:	e0a00000 	adc	r0, r0, r0
    b5c8:	20433081 	subcs	r3, r3, r1, lsl #1
    b5cc:	e1530001 	cmp	r3, r1
    b5d0:	e0a00000 	adc	r0, r0, r0
    b5d4:	20433001 	subcs	r3, r3, r1
/build/gcc-arm-none-eabi-zSbVfn/gcc-arm-none-eabi-8-2019-q3/build/arm-none-eabi/arm/v5te/hard/libgcc/../../../../../../libgcc/config/arm/lib1funcs.S:1361
    b5d8:	e35c0000 	cmp	ip, #0
/build/gcc-arm-none-eabi-zSbVfn/gcc-arm-none-eabi-8-2019-q3/build/arm-none-eabi/arm/v5te/hard/libgcc/../../../../../../libgcc/config/arm/lib1funcs.S:1363
    b5dc:	42600000 	rsbmi	r0, r0, #0
/build/gcc-arm-none-eabi-zSbVfn/gcc-arm-none-eabi-8-2019-q3/build/arm-none-eabi/arm/v5te/hard/libgcc/../../../../../../libgcc/config/arm/lib1funcs.S:1364
    b5e0:	e12fff1e 	bx	lr
/build/gcc-arm-none-eabi-zSbVfn/gcc-arm-none-eabi-8-2019-q3/build/arm-none-eabi/arm/v5te/hard/libgcc/../../../../../../libgcc/config/arm/lib1funcs.S:1366
    b5e4:	e13c0000 	teq	ip, r0
/build/gcc-arm-none-eabi-zSbVfn/gcc-arm-none-eabi-8-2019-q3/build/arm-none-eabi/arm/v5te/hard/libgcc/../../../../../../libgcc/config/arm/lib1funcs.S:1368
    b5e8:	42600000 	rsbmi	r0, r0, #0
/build/gcc-arm-none-eabi-zSbVfn/gcc-arm-none-eabi-8-2019-q3/build/arm-none-eabi/arm/v5te/hard/libgcc/../../../../../../libgcc/config/arm/lib1funcs.S:1369
    b5ec:	e12fff1e 	bx	lr
/build/gcc-arm-none-eabi-zSbVfn/gcc-arm-none-eabi-8-2019-q3/build/arm-none-eabi/arm/v5te/hard/libgcc/../../../../../../libgcc/config/arm/lib1funcs.S:1372
    b5f0:	33a00000 	movcc	r0, #0
/build/gcc-arm-none-eabi-zSbVfn/gcc-arm-none-eabi-8-2019-q3/build/arm-none-eabi/arm/v5te/hard/libgcc/../../../../../../libgcc/config/arm/lib1funcs.S:1374
    b5f4:	01a00fcc 	asreq	r0, ip, #31
/build/gcc-arm-none-eabi-zSbVfn/gcc-arm-none-eabi-8-2019-q3/build/arm-none-eabi/arm/v5te/hard/libgcc/../../../../../../libgcc/config/arm/lib1funcs.S:1375
    b5f8:	03800001 	orreq	r0, r0, #1
/build/gcc-arm-none-eabi-zSbVfn/gcc-arm-none-eabi-8-2019-q3/build/arm-none-eabi/arm/v5te/hard/libgcc/../../../../../../libgcc/config/arm/lib1funcs.S:1376
    b5fc:	e12fff1e 	bx	lr
/build/gcc-arm-none-eabi-zSbVfn/gcc-arm-none-eabi-8-2019-q3/build/arm-none-eabi/arm/v5te/hard/libgcc/../../../../../../libgcc/config/arm/lib1funcs.S:1378
    b600:	e16f2f11 	clz	r2, r1
    b604:	e262201f 	rsb	r2, r2, #31
/build/gcc-arm-none-eabi-zSbVfn/gcc-arm-none-eabi-8-2019-q3/build/arm-none-eabi/arm/v5te/hard/libgcc/../../../../../../libgcc/config/arm/lib1funcs.S:1380
    b608:	e35c0000 	cmp	ip, #0
/build/gcc-arm-none-eabi-zSbVfn/gcc-arm-none-eabi-8-2019-q3/build/arm-none-eabi/arm/v5te/hard/libgcc/../../../../../../libgcc/config/arm/lib1funcs.S:1381
    b60c:	e1a00233 	lsr	r0, r3, r2
/build/gcc-arm-none-eabi-zSbVfn/gcc-arm-none-eabi-8-2019-q3/build/arm-none-eabi/arm/v5te/hard/libgcc/../../../../../../libgcc/config/arm/lib1funcs.S:1383
    b610:	42600000 	rsbmi	r0, r0, #0
/build/gcc-arm-none-eabi-zSbVfn/gcc-arm-none-eabi-8-2019-q3/build/arm-none-eabi/arm/v5te/hard/libgcc/../../../../../../libgcc/config/arm/lib1funcs.S:1384
    b614:	e12fff1e 	bx	lr
/build/gcc-arm-none-eabi-zSbVfn/gcc-arm-none-eabi-8-2019-q3/build/arm-none-eabi/arm/v5te/hard/libgcc/../../../../../../libgcc/config/arm/lib1funcs.S:1388
    b618:	e3500000 	cmp	r0, #0
    b61c:	c3e00102 	mvngt	r0, #-2147483648	; 0x80000000
    b620:	b3a00102 	movlt	r0, #-2147483648	; 0x80000000
    b624:	ea000007 	b	b648 <__aeabi_idiv0>

0000b628 <__aeabi_idivmod>:
__aeabi_idivmod():
/build/gcc-arm-none-eabi-zSbVfn/gcc-arm-none-eabi-8-2019-q3/build/arm-none-eabi/arm/v5te/hard/libgcc/../../../../../../libgcc/config/arm/lib1funcs.S:1419
    b628:	e3510000 	cmp	r1, #0
/build/gcc-arm-none-eabi-zSbVfn/gcc-arm-none-eabi-8-2019-q3/build/arm-none-eabi/arm/v5te/hard/libgcc/../../../../../../libgcc/config/arm/lib1funcs.S:1420
    b62c:	0afffff9 	beq	b618 <.divsi3_skip_div0_test+0x208>
/build/gcc-arm-none-eabi-zSbVfn/gcc-arm-none-eabi-8-2019-q3/build/arm-none-eabi/arm/v5te/hard/libgcc/../../../../../../libgcc/config/arm/lib1funcs.S:1421
    b630:	e92d4003 	push	{r0, r1, lr}
/build/gcc-arm-none-eabi-zSbVfn/gcc-arm-none-eabi-8-2019-q3/build/arm-none-eabi/arm/v5te/hard/libgcc/../../../../../../libgcc/config/arm/lib1funcs.S:1422
    b634:	ebffff75 	bl	b410 <.divsi3_skip_div0_test>
/build/gcc-arm-none-eabi-zSbVfn/gcc-arm-none-eabi-8-2019-q3/build/arm-none-eabi/arm/v5te/hard/libgcc/../../../../../../libgcc/config/arm/lib1funcs.S:1423
    b638:	e8bd4006 	pop	{r1, r2, lr}
/build/gcc-arm-none-eabi-zSbVfn/gcc-arm-none-eabi-8-2019-q3/build/arm-none-eabi/arm/v5te/hard/libgcc/../../../../../../libgcc/config/arm/lib1funcs.S:1424
    b63c:	e0030092 	mul	r3, r2, r0
/build/gcc-arm-none-eabi-zSbVfn/gcc-arm-none-eabi-8-2019-q3/build/arm-none-eabi/arm/v5te/hard/libgcc/../../../../../../libgcc/config/arm/lib1funcs.S:1425
    b640:	e0411003 	sub	r1, r1, r3
/build/gcc-arm-none-eabi-zSbVfn/gcc-arm-none-eabi-8-2019-q3/build/arm-none-eabi/arm/v5te/hard/libgcc/../../../../../../libgcc/config/arm/lib1funcs.S:1426
    b644:	e12fff1e 	bx	lr

0000b648 <__aeabi_idiv0>:
__aeabi_ldiv0():
/build/gcc-arm-none-eabi-zSbVfn/gcc-arm-none-eabi-8-2019-q3/build/arm-none-eabi/arm/v5te/hard/libgcc/../../../../../../libgcc/config/arm/lib1funcs.S:1512
    b648:	e12fff1e 	bx	lr

0000b64c <__aeabi_frsub>:
__aeabi_frsub():
/build/gcc-arm-none-eabi-zSbVfn/gcc-arm-none-eabi-8-2019-q3/build/arm-none-eabi/arm/v5te/hard/libgcc/../../../../../../libgcc/config/arm/ieee754-sf.S:59
    b64c:	e2200102 	eor	r0, r0, #-2147483648	; 0x80000000
/build/gcc-arm-none-eabi-zSbVfn/gcc-arm-none-eabi-8-2019-q3/build/arm-none-eabi/arm/v5te/hard/libgcc/../../../../../../libgcc/config/arm/ieee754-sf.S:60
    b650:	ea000000 	b	b658 <__addsf3>

0000b654 <__aeabi_fsub>:
/build/gcc-arm-none-eabi-zSbVfn/gcc-arm-none-eabi-8-2019-q3/build/arm-none-eabi/arm/v5te/hard/libgcc/../../../../../../libgcc/config/arm/ieee754-sf.S:65
    b654:	e2211102 	eor	r1, r1, #-2147483648	; 0x80000000

0000b658 <__addsf3>:
/build/gcc-arm-none-eabi-zSbVfn/gcc-arm-none-eabi-8-2019-q3/build/arm-none-eabi/arm/v5te/hard/libgcc/../../../../../../libgcc/config/arm/ieee754-sf.S:74
    b658:	e1b02080 	lsls	r2, r0, #1
/build/gcc-arm-none-eabi-zSbVfn/gcc-arm-none-eabi-8-2019-q3/build/arm-none-eabi/arm/v5te/hard/libgcc/../../../../../../libgcc/config/arm/ieee754-sf.S:76
    b65c:	11b03081 	lslsne	r3, r1, #1
/build/gcc-arm-none-eabi-zSbVfn/gcc-arm-none-eabi-8-2019-q3/build/arm-none-eabi/arm/v5te/hard/libgcc/../../../../../../libgcc/config/arm/ieee754-sf.S:77
    b660:	11320003 	teqne	r2, r3
/build/gcc-arm-none-eabi-zSbVfn/gcc-arm-none-eabi-8-2019-q3/build/arm-none-eabi/arm/v5te/hard/libgcc/../../../../../../libgcc/config/arm/ieee754-sf.S:78
    b664:	11f0cc42 	mvnsne	ip, r2, asr #24
/build/gcc-arm-none-eabi-zSbVfn/gcc-arm-none-eabi-8-2019-q3/build/arm-none-eabi/arm/v5te/hard/libgcc/../../../../../../libgcc/config/arm/ieee754-sf.S:79
    b668:	11f0cc43 	mvnsne	ip, r3, asr #24
/build/gcc-arm-none-eabi-zSbVfn/gcc-arm-none-eabi-8-2019-q3/build/arm-none-eabi/arm/v5te/hard/libgcc/../../../../../../libgcc/config/arm/ieee754-sf.S:80
    b66c:	0a00003c 	beq	b764 <__addsf3+0x10c>
/build/gcc-arm-none-eabi-zSbVfn/gcc-arm-none-eabi-8-2019-q3/build/arm-none-eabi/arm/v5te/hard/libgcc/../../../../../../libgcc/config/arm/ieee754-sf.S:84
    b670:	e1a02c22 	lsr	r2, r2, #24
/build/gcc-arm-none-eabi-zSbVfn/gcc-arm-none-eabi-8-2019-q3/build/arm-none-eabi/arm/v5te/hard/libgcc/../../../../../../libgcc/config/arm/ieee754-sf.S:85
    b674:	e0723c23 	rsbs	r3, r2, r3, lsr #24
/build/gcc-arm-none-eabi-zSbVfn/gcc-arm-none-eabi-8-2019-q3/build/arm-none-eabi/arm/v5te/hard/libgcc/../../../../../../libgcc/config/arm/ieee754-sf.S:87
    b678:	c0822003 	addgt	r2, r2, r3
/build/gcc-arm-none-eabi-zSbVfn/gcc-arm-none-eabi-8-2019-q3/build/arm-none-eabi/arm/v5te/hard/libgcc/../../../../../../libgcc/config/arm/ieee754-sf.S:88
    b67c:	c0201001 	eorgt	r1, r0, r1
/build/gcc-arm-none-eabi-zSbVfn/gcc-arm-none-eabi-8-2019-q3/build/arm-none-eabi/arm/v5te/hard/libgcc/../../../../../../libgcc/config/arm/ieee754-sf.S:89
    b680:	c0210000 	eorgt	r0, r1, r0
/build/gcc-arm-none-eabi-zSbVfn/gcc-arm-none-eabi-8-2019-q3/build/arm-none-eabi/arm/v5te/hard/libgcc/../../../../../../libgcc/config/arm/ieee754-sf.S:90
    b684:	c0201001 	eorgt	r1, r0, r1
/build/gcc-arm-none-eabi-zSbVfn/gcc-arm-none-eabi-8-2019-q3/build/arm-none-eabi/arm/v5te/hard/libgcc/../../../../../../libgcc/config/arm/ieee754-sf.S:92
    b688:	b2633000 	rsblt	r3, r3, #0
/build/gcc-arm-none-eabi-zSbVfn/gcc-arm-none-eabi-8-2019-q3/build/arm-none-eabi/arm/v5te/hard/libgcc/../../../../../../libgcc/config/arm/ieee754-sf.S:97
    b68c:	e3530019 	cmp	r3, #25
/build/gcc-arm-none-eabi-zSbVfn/gcc-arm-none-eabi-8-2019-q3/build/arm-none-eabi/arm/v5te/hard/libgcc/../../../../../../libgcc/config/arm/ieee754-sf.S:99
    b690:	812fff1e 	bxhi	lr
/build/gcc-arm-none-eabi-zSbVfn/gcc-arm-none-eabi-8-2019-q3/build/arm-none-eabi/arm/v5te/hard/libgcc/../../../../../../libgcc/config/arm/ieee754-sf.S:102
    b694:	e3100102 	tst	r0, #-2147483648	; 0x80000000
/build/gcc-arm-none-eabi-zSbVfn/gcc-arm-none-eabi-8-2019-q3/build/arm-none-eabi/arm/v5te/hard/libgcc/../../../../../../libgcc/config/arm/ieee754-sf.S:103
    b698:	e3800502 	orr	r0, r0, #8388608	; 0x800000
/build/gcc-arm-none-eabi-zSbVfn/gcc-arm-none-eabi-8-2019-q3/build/arm-none-eabi/arm/v5te/hard/libgcc/../../../../../../libgcc/config/arm/ieee754-sf.S:104
    b69c:	e3c004ff 	bic	r0, r0, #-16777216	; 0xff000000
/build/gcc-arm-none-eabi-zSbVfn/gcc-arm-none-eabi-8-2019-q3/build/arm-none-eabi/arm/v5te/hard/libgcc/../../../../../../libgcc/config/arm/ieee754-sf.S:106
    b6a0:	12600000 	rsbne	r0, r0, #0
/build/gcc-arm-none-eabi-zSbVfn/gcc-arm-none-eabi-8-2019-q3/build/arm-none-eabi/arm/v5te/hard/libgcc/../../../../../../libgcc/config/arm/ieee754-sf.S:107
    b6a4:	e3110102 	tst	r1, #-2147483648	; 0x80000000
/build/gcc-arm-none-eabi-zSbVfn/gcc-arm-none-eabi-8-2019-q3/build/arm-none-eabi/arm/v5te/hard/libgcc/../../../../../../libgcc/config/arm/ieee754-sf.S:108
    b6a8:	e3811502 	orr	r1, r1, #8388608	; 0x800000
/build/gcc-arm-none-eabi-zSbVfn/gcc-arm-none-eabi-8-2019-q3/build/arm-none-eabi/arm/v5te/hard/libgcc/../../../../../../libgcc/config/arm/ieee754-sf.S:109
    b6ac:	e3c114ff 	bic	r1, r1, #-16777216	; 0xff000000
/build/gcc-arm-none-eabi-zSbVfn/gcc-arm-none-eabi-8-2019-q3/build/arm-none-eabi/arm/v5te/hard/libgcc/../../../../../../libgcc/config/arm/ieee754-sf.S:111
    b6b0:	12611000 	rsbne	r1, r1, #0
/build/gcc-arm-none-eabi-zSbVfn/gcc-arm-none-eabi-8-2019-q3/build/arm-none-eabi/arm/v5te/hard/libgcc/../../../../../../libgcc/config/arm/ieee754-sf.S:115
    b6b4:	e1320003 	teq	r2, r3
/build/gcc-arm-none-eabi-zSbVfn/gcc-arm-none-eabi-8-2019-q3/build/arm-none-eabi/arm/v5te/hard/libgcc/../../../../../../libgcc/config/arm/ieee754-sf.S:116
    b6b8:	0a000023 	beq	b74c <__addsf3+0xf4>
/build/gcc-arm-none-eabi-zSbVfn/gcc-arm-none-eabi-8-2019-q3/build/arm-none-eabi/arm/v5te/hard/libgcc/../../../../../../libgcc/config/arm/ieee754-sf.S:120
    b6bc:	e2422001 	sub	r2, r2, #1
/build/gcc-arm-none-eabi-zSbVfn/gcc-arm-none-eabi-8-2019-q3/build/arm-none-eabi/arm/v5te/hard/libgcc/../../../../../../libgcc/config/arm/ieee754-sf.S:124
    b6c0:	e0900351 	adds	r0, r0, r1, asr r3
/build/gcc-arm-none-eabi-zSbVfn/gcc-arm-none-eabi-8-2019-q3/build/arm-none-eabi/arm/v5te/hard/libgcc/../../../../../../libgcc/config/arm/ieee754-sf.S:125
    b6c4:	e2633020 	rsb	r3, r3, #32
/build/gcc-arm-none-eabi-zSbVfn/gcc-arm-none-eabi-8-2019-q3/build/arm-none-eabi/arm/v5te/hard/libgcc/../../../../../../libgcc/config/arm/ieee754-sf.S:126
    b6c8:	e1a01311 	lsl	r1, r1, r3
/build/gcc-arm-none-eabi-zSbVfn/gcc-arm-none-eabi-8-2019-q3/build/arm-none-eabi/arm/v5te/hard/libgcc/../../../../../../libgcc/config/arm/ieee754-sf.S:129
    b6cc:	e2003102 	and	r3, r0, #-2147483648	; 0x80000000
/build/gcc-arm-none-eabi-zSbVfn/gcc-arm-none-eabi-8-2019-q3/build/arm-none-eabi/arm/v5te/hard/libgcc/../../../../../../libgcc/config/arm/ieee754-sf.S:130
    b6d0:	5a000001 	bpl	b6dc <__addsf3+0x84>
/build/gcc-arm-none-eabi-zSbVfn/gcc-arm-none-eabi-8-2019-q3/build/arm-none-eabi/arm/v5te/hard/libgcc/../../../../../../libgcc/config/arm/ieee754-sf.S:135
    b6d4:	e2711000 	rsbs	r1, r1, #0
/build/gcc-arm-none-eabi-zSbVfn/gcc-arm-none-eabi-8-2019-q3/build/arm-none-eabi/arm/v5te/hard/libgcc/../../../../../../libgcc/config/arm/ieee754-sf.S:136
    b6d8:	e2e00000 	rsc	r0, r0, #0
/build/gcc-arm-none-eabi-zSbVfn/gcc-arm-none-eabi-8-2019-q3/build/arm-none-eabi/arm/v5te/hard/libgcc/../../../../../../libgcc/config/arm/ieee754-sf.S:141
    b6dc:	e3500502 	cmp	r0, #8388608	; 0x800000
/build/gcc-arm-none-eabi-zSbVfn/gcc-arm-none-eabi-8-2019-q3/build/arm-none-eabi/arm/v5te/hard/libgcc/../../../../../../libgcc/config/arm/ieee754-sf.S:142
    b6e0:	3a00000b 	bcc	b714 <__addsf3+0xbc>
/build/gcc-arm-none-eabi-zSbVfn/gcc-arm-none-eabi-8-2019-q3/build/arm-none-eabi/arm/v5te/hard/libgcc/../../../../../../libgcc/config/arm/ieee754-sf.S:143
    b6e4:	e3500401 	cmp	r0, #16777216	; 0x1000000
/build/gcc-arm-none-eabi-zSbVfn/gcc-arm-none-eabi-8-2019-q3/build/arm-none-eabi/arm/v5te/hard/libgcc/../../../../../../libgcc/config/arm/ieee754-sf.S:144
    b6e8:	3a000004 	bcc	b700 <__addsf3+0xa8>
/build/gcc-arm-none-eabi-zSbVfn/gcc-arm-none-eabi-8-2019-q3/build/arm-none-eabi/arm/v5te/hard/libgcc/../../../../../../libgcc/config/arm/ieee754-sf.S:147
    b6ec:	e1b000a0 	lsrs	r0, r0, #1
/build/gcc-arm-none-eabi-zSbVfn/gcc-arm-none-eabi-8-2019-q3/build/arm-none-eabi/arm/v5te/hard/libgcc/../../../../../../libgcc/config/arm/ieee754-sf.S:148
    b6f0:	e1a01061 	rrx	r1, r1
/build/gcc-arm-none-eabi-zSbVfn/gcc-arm-none-eabi-8-2019-q3/build/arm-none-eabi/arm/v5te/hard/libgcc/../../../../../../libgcc/config/arm/ieee754-sf.S:149
    b6f4:	e2822001 	add	r2, r2, #1
/build/gcc-arm-none-eabi-zSbVfn/gcc-arm-none-eabi-8-2019-q3/build/arm-none-eabi/arm/v5te/hard/libgcc/../../../../../../libgcc/config/arm/ieee754-sf.S:152
    b6f8:	e35200fe 	cmp	r2, #254	; 0xfe
/build/gcc-arm-none-eabi-zSbVfn/gcc-arm-none-eabi-8-2019-q3/build/arm-none-eabi/arm/v5te/hard/libgcc/../../../../../../libgcc/config/arm/ieee754-sf.S:153
    b6fc:	2a00002d 	bcs	b7b8 <__addsf3+0x160>
/build/gcc-arm-none-eabi-zSbVfn/gcc-arm-none-eabi-8-2019-q3/build/arm-none-eabi/arm/v5te/hard/libgcc/../../../../../../libgcc/config/arm/ieee754-sf.S:160
    b700:	e3510102 	cmp	r1, #-2147483648	; 0x80000000
/build/gcc-arm-none-eabi-zSbVfn/gcc-arm-none-eabi-8-2019-q3/build/arm-none-eabi/arm/v5te/hard/libgcc/../../../../../../libgcc/config/arm/ieee754-sf.S:161
    b704:	e0a00b82 	adc	r0, r0, r2, lsl #23
/build/gcc-arm-none-eabi-zSbVfn/gcc-arm-none-eabi-8-2019-q3/build/arm-none-eabi/arm/v5te/hard/libgcc/../../../../../../libgcc/config/arm/ieee754-sf.S:163
    b708:	03c00001 	biceq	r0, r0, #1
/build/gcc-arm-none-eabi-zSbVfn/gcc-arm-none-eabi-8-2019-q3/build/arm-none-eabi/arm/v5te/hard/libgcc/../../../../../../libgcc/config/arm/ieee754-sf.S:164
    b70c:	e1800003 	orr	r0, r0, r3
/build/gcc-arm-none-eabi-zSbVfn/gcc-arm-none-eabi-8-2019-q3/build/arm-none-eabi/arm/v5te/hard/libgcc/../../../../../../libgcc/config/arm/ieee754-sf.S:165
    b710:	e12fff1e 	bx	lr
/build/gcc-arm-none-eabi-zSbVfn/gcc-arm-none-eabi-8-2019-q3/build/arm-none-eabi/arm/v5te/hard/libgcc/../../../../../../libgcc/config/arm/ieee754-sf.S:169
    b714:	e1b01081 	lsls	r1, r1, #1
/build/gcc-arm-none-eabi-zSbVfn/gcc-arm-none-eabi-8-2019-q3/build/arm-none-eabi/arm/v5te/hard/libgcc/../../../../../../libgcc/config/arm/ieee754-sf.S:170
    b718:	e0a00000 	adc	r0, r0, r0
/build/gcc-arm-none-eabi-zSbVfn/gcc-arm-none-eabi-8-2019-q3/build/arm-none-eabi/arm/v5te/hard/libgcc/../../../../../../libgcc/config/arm/ieee754-sf.S:171
    b71c:	e3100502 	tst	r0, #8388608	; 0x800000
/build/gcc-arm-none-eabi-zSbVfn/gcc-arm-none-eabi-8-2019-q3/build/arm-none-eabi/arm/v5te/hard/libgcc/../../../../../../libgcc/config/arm/ieee754-sf.S:172
    b720:	e2422001 	sub	r2, r2, #1
/build/gcc-arm-none-eabi-zSbVfn/gcc-arm-none-eabi-8-2019-q3/build/arm-none-eabi/arm/v5te/hard/libgcc/../../../../../../libgcc/config/arm/ieee754-sf.S:173
    b724:	1afffff5 	bne	b700 <__addsf3+0xa8>
/build/gcc-arm-none-eabi-zSbVfn/gcc-arm-none-eabi-8-2019-q3/build/arm-none-eabi/arm/v5te/hard/libgcc/../../../../../../libgcc/config/arm/ieee754-sf.S:198
    b728:	e16fcf10 	clz	ip, r0
/build/gcc-arm-none-eabi-zSbVfn/gcc-arm-none-eabi-8-2019-q3/build/arm-none-eabi/arm/v5te/hard/libgcc/../../../../../../libgcc/config/arm/ieee754-sf.S:199
    b72c:	e24cc008 	sub	ip, ip, #8
/build/gcc-arm-none-eabi-zSbVfn/gcc-arm-none-eabi-8-2019-q3/build/arm-none-eabi/arm/v5te/hard/libgcc/../../../../../../libgcc/config/arm/ieee754-sf.S:200
    b730:	e052200c 	subs	r2, r2, ip
/build/gcc-arm-none-eabi-zSbVfn/gcc-arm-none-eabi-8-2019-q3/build/arm-none-eabi/arm/v5te/hard/libgcc/../../../../../../libgcc/config/arm/ieee754-sf.S:201
    b734:	e1a00c10 	lsl	r0, r0, ip
/build/gcc-arm-none-eabi-zSbVfn/gcc-arm-none-eabi-8-2019-q3/build/arm-none-eabi/arm/v5te/hard/libgcc/../../../../../../libgcc/config/arm/ieee754-sf.S:208
    b738:	a0800b82 	addge	r0, r0, r2, lsl #23
/build/gcc-arm-none-eabi-zSbVfn/gcc-arm-none-eabi-8-2019-q3/build/arm-none-eabi/arm/v5te/hard/libgcc/../../../../../../libgcc/config/arm/ieee754-sf.S:209
    b73c:	b2622000 	rsblt	r2, r2, #0
/build/gcc-arm-none-eabi-zSbVfn/gcc-arm-none-eabi-8-2019-q3/build/arm-none-eabi/arm/v5te/hard/libgcc/../../../../../../libgcc/config/arm/ieee754-sf.S:210
    b740:	a1800003 	orrge	r0, r0, r3
/build/gcc-arm-none-eabi-zSbVfn/gcc-arm-none-eabi-8-2019-q3/build/arm-none-eabi/arm/v5te/hard/libgcc/../../../../../../libgcc/config/arm/ieee754-sf.S:216
    b744:	b1830230 	orrlt	r0, r3, r0, lsr r2
/build/gcc-arm-none-eabi-zSbVfn/gcc-arm-none-eabi-8-2019-q3/build/arm-none-eabi/arm/v5te/hard/libgcc/../../../../../../libgcc/config/arm/ieee754-sf.S:218
    b748:	e12fff1e 	bx	lr
/build/gcc-arm-none-eabi-zSbVfn/gcc-arm-none-eabi-8-2019-q3/build/arm-none-eabi/arm/v5te/hard/libgcc/../../../../../../libgcc/config/arm/ieee754-sf.S:223
    b74c:	e3320000 	teq	r2, #0
/build/gcc-arm-none-eabi-zSbVfn/gcc-arm-none-eabi-8-2019-q3/build/arm-none-eabi/arm/v5te/hard/libgcc/../../../../../../libgcc/config/arm/ieee754-sf.S:224
    b750:	e2211502 	eor	r1, r1, #8388608	; 0x800000
/build/gcc-arm-none-eabi-zSbVfn/gcc-arm-none-eabi-8-2019-q3/build/arm-none-eabi/arm/v5te/hard/libgcc/../../../../../../libgcc/config/arm/ieee754-sf.S:226
    b754:	02200502 	eoreq	r0, r0, #8388608	; 0x800000
/build/gcc-arm-none-eabi-zSbVfn/gcc-arm-none-eabi-8-2019-q3/build/arm-none-eabi/arm/v5te/hard/libgcc/../../../../../../libgcc/config/arm/ieee754-sf.S:227
    b758:	02822001 	addeq	r2, r2, #1
/build/gcc-arm-none-eabi-zSbVfn/gcc-arm-none-eabi-8-2019-q3/build/arm-none-eabi/arm/v5te/hard/libgcc/../../../../../../libgcc/config/arm/ieee754-sf.S:228
    b75c:	12433001 	subne	r3, r3, #1
/build/gcc-arm-none-eabi-zSbVfn/gcc-arm-none-eabi-8-2019-q3/build/arm-none-eabi/arm/v5te/hard/libgcc/../../../../../../libgcc/config/arm/ieee754-sf.S:229
    b760:	eaffffd5 	b	b6bc <__addsf3+0x64>
/build/gcc-arm-none-eabi-zSbVfn/gcc-arm-none-eabi-8-2019-q3/build/arm-none-eabi/arm/v5te/hard/libgcc/../../../../../../libgcc/config/arm/ieee754-sf.S:232
    b764:	e1a03081 	lsl	r3, r1, #1
/build/gcc-arm-none-eabi-zSbVfn/gcc-arm-none-eabi-8-2019-q3/build/arm-none-eabi/arm/v5te/hard/libgcc/../../../../../../libgcc/config/arm/ieee754-sf.S:234
    b768:	e1f0cc42 	mvns	ip, r2, asr #24
/build/gcc-arm-none-eabi-zSbVfn/gcc-arm-none-eabi-8-2019-q3/build/arm-none-eabi/arm/v5te/hard/libgcc/../../../../../../libgcc/config/arm/ieee754-sf.S:236
    b76c:	11f0cc43 	mvnsne	ip, r3, asr #24
/build/gcc-arm-none-eabi-zSbVfn/gcc-arm-none-eabi-8-2019-q3/build/arm-none-eabi/arm/v5te/hard/libgcc/../../../../../../libgcc/config/arm/ieee754-sf.S:237
    b770:	0a000013 	beq	b7c4 <__addsf3+0x16c>
/build/gcc-arm-none-eabi-zSbVfn/gcc-arm-none-eabi-8-2019-q3/build/arm-none-eabi/arm/v5te/hard/libgcc/../../../../../../libgcc/config/arm/ieee754-sf.S:239
    b774:	e1320003 	teq	r2, r3
/build/gcc-arm-none-eabi-zSbVfn/gcc-arm-none-eabi-8-2019-q3/build/arm-none-eabi/arm/v5te/hard/libgcc/../../../../../../libgcc/config/arm/ieee754-sf.S:240
    b778:	0a000002 	beq	b788 <__addsf3+0x130>
/build/gcc-arm-none-eabi-zSbVfn/gcc-arm-none-eabi-8-2019-q3/build/arm-none-eabi/arm/v5te/hard/libgcc/../../../../../../libgcc/config/arm/ieee754-sf.S:243
    b77c:	e3320000 	teq	r2, #0
/build/gcc-arm-none-eabi-zSbVfn/gcc-arm-none-eabi-8-2019-q3/build/arm-none-eabi/arm/v5te/hard/libgcc/../../../../../../libgcc/config/arm/ieee754-sf.S:245
    b780:	01a00001 	moveq	r0, r1
/build/gcc-arm-none-eabi-zSbVfn/gcc-arm-none-eabi-8-2019-q3/build/arm-none-eabi/arm/v5te/hard/libgcc/../../../../../../libgcc/config/arm/ieee754-sf.S:246
    b784:	e12fff1e 	bx	lr
/build/gcc-arm-none-eabi-zSbVfn/gcc-arm-none-eabi-8-2019-q3/build/arm-none-eabi/arm/v5te/hard/libgcc/../../../../../../libgcc/config/arm/ieee754-sf.S:248
    b788:	e1300001 	teq	r0, r1
/build/gcc-arm-none-eabi-zSbVfn/gcc-arm-none-eabi-8-2019-q3/build/arm-none-eabi/arm/v5te/hard/libgcc/../../../../../../libgcc/config/arm/ieee754-sf.S:252
    b78c:	13a00000 	movne	r0, #0
/build/gcc-arm-none-eabi-zSbVfn/gcc-arm-none-eabi-8-2019-q3/build/arm-none-eabi/arm/v5te/hard/libgcc/../../../../../../libgcc/config/arm/ieee754-sf.S:253
    b790:	112fff1e 	bxne	lr
/build/gcc-arm-none-eabi-zSbVfn/gcc-arm-none-eabi-8-2019-q3/build/arm-none-eabi/arm/v5te/hard/libgcc/../../../../../../libgcc/config/arm/ieee754-sf.S:256
    b794:	e31204ff 	tst	r2, #-16777216	; 0xff000000
/build/gcc-arm-none-eabi-zSbVfn/gcc-arm-none-eabi-8-2019-q3/build/arm-none-eabi/arm/v5te/hard/libgcc/../../../../../../libgcc/config/arm/ieee754-sf.S:257
    b798:	1a000002 	bne	b7a8 <__addsf3+0x150>
/build/gcc-arm-none-eabi-zSbVfn/gcc-arm-none-eabi-8-2019-q3/build/arm-none-eabi/arm/v5te/hard/libgcc/../../../../../../libgcc/config/arm/ieee754-sf.S:258
    b79c:	e1b00080 	lsls	r0, r0, #1
/build/gcc-arm-none-eabi-zSbVfn/gcc-arm-none-eabi-8-2019-q3/build/arm-none-eabi/arm/v5te/hard/libgcc/../../../../../../libgcc/config/arm/ieee754-sf.S:260
    b7a0:	23800102 	orrcs	r0, r0, #-2147483648	; 0x80000000
/build/gcc-arm-none-eabi-zSbVfn/gcc-arm-none-eabi-8-2019-q3/build/arm-none-eabi/arm/v5te/hard/libgcc/../../../../../../libgcc/config/arm/ieee754-sf.S:261
    b7a4:	e12fff1e 	bx	lr
/build/gcc-arm-none-eabi-zSbVfn/gcc-arm-none-eabi-8-2019-q3/build/arm-none-eabi/arm/v5te/hard/libgcc/../../../../../../libgcc/config/arm/ieee754-sf.S:262
    b7a8:	e2922402 	adds	r2, r2, #33554432	; 0x2000000
/build/gcc-arm-none-eabi-zSbVfn/gcc-arm-none-eabi-8-2019-q3/build/arm-none-eabi/arm/v5te/hard/libgcc/../../../../../../libgcc/config/arm/ieee754-sf.S:264
    b7ac:	32800502 	addcc	r0, r0, #8388608	; 0x800000
/build/gcc-arm-none-eabi-zSbVfn/gcc-arm-none-eabi-8-2019-q3/build/arm-none-eabi/arm/v5te/hard/libgcc/../../../../../../libgcc/config/arm/ieee754-sf.S:265
    b7b0:	312fff1e 	bxcc	lr
/build/gcc-arm-none-eabi-zSbVfn/gcc-arm-none-eabi-8-2019-q3/build/arm-none-eabi/arm/v5te/hard/libgcc/../../../../../../libgcc/config/arm/ieee754-sf.S:266
    b7b4:	e2003102 	and	r3, r0, #-2147483648	; 0x80000000
/build/gcc-arm-none-eabi-zSbVfn/gcc-arm-none-eabi-8-2019-q3/build/arm-none-eabi/arm/v5te/hard/libgcc/../../../../../../libgcc/config/arm/ieee754-sf.S:270
    b7b8:	e383047f 	orr	r0, r3, #2130706432	; 0x7f000000
/build/gcc-arm-none-eabi-zSbVfn/gcc-arm-none-eabi-8-2019-q3/build/arm-none-eabi/arm/v5te/hard/libgcc/../../../../../../libgcc/config/arm/ieee754-sf.S:271
    b7bc:	e3800502 	orr	r0, r0, #8388608	; 0x800000
/build/gcc-arm-none-eabi-zSbVfn/gcc-arm-none-eabi-8-2019-q3/build/arm-none-eabi/arm/v5te/hard/libgcc/../../../../../../libgcc/config/arm/ieee754-sf.S:272
    b7c0:	e12fff1e 	bx	lr
/build/gcc-arm-none-eabi-zSbVfn/gcc-arm-none-eabi-8-2019-q3/build/arm-none-eabi/arm/v5te/hard/libgcc/../../../../../../libgcc/config/arm/ieee754-sf.S:281
    b7c4:	e1f02c42 	mvns	r2, r2, asr #24
/build/gcc-arm-none-eabi-zSbVfn/gcc-arm-none-eabi-8-2019-q3/build/arm-none-eabi/arm/v5te/hard/libgcc/../../../../../../libgcc/config/arm/ieee754-sf.S:283
    b7c8:	11a00001 	movne	r0, r1
/build/gcc-arm-none-eabi-zSbVfn/gcc-arm-none-eabi-8-2019-q3/build/arm-none-eabi/arm/v5te/hard/libgcc/../../../../../../libgcc/config/arm/ieee754-sf.S:284
    b7cc:	01f03c43 	mvnseq	r3, r3, asr #24
/build/gcc-arm-none-eabi-zSbVfn/gcc-arm-none-eabi-8-2019-q3/build/arm-none-eabi/arm/v5te/hard/libgcc/../../../../../../libgcc/config/arm/ieee754-sf.S:285
    b7d0:	11a01000 	movne	r1, r0
/build/gcc-arm-none-eabi-zSbVfn/gcc-arm-none-eabi-8-2019-q3/build/arm-none-eabi/arm/v5te/hard/libgcc/../../../../../../libgcc/config/arm/ieee754-sf.S:286
    b7d4:	e1b02480 	lsls	r2, r0, #9
/build/gcc-arm-none-eabi-zSbVfn/gcc-arm-none-eabi-8-2019-q3/build/arm-none-eabi/arm/v5te/hard/libgcc/../../../../../../libgcc/config/arm/ieee754-sf.S:288
    b7d8:	01b03481 	lslseq	r3, r1, #9
/build/gcc-arm-none-eabi-zSbVfn/gcc-arm-none-eabi-8-2019-q3/build/arm-none-eabi/arm/v5te/hard/libgcc/../../../../../../libgcc/config/arm/ieee754-sf.S:289
    b7dc:	01300001 	teqeq	r0, r1
/build/gcc-arm-none-eabi-zSbVfn/gcc-arm-none-eabi-8-2019-q3/build/arm-none-eabi/arm/v5te/hard/libgcc/../../../../../../libgcc/config/arm/ieee754-sf.S:290
    b7e0:	13800501 	orrne	r0, r0, #4194304	; 0x400000
