
./logger_task:     file format elf32-littlearm


Disassembly of section .text:

00008000 <_start>:
_start():
/home/hintik/dev/KIV-RTOS-master/sources/userspace/crt0.s:10
;@ startovaci symbol - vstupni bod z jadra OS do uzivatelskeho programu
;@ v podstate jen ihned zavola nejakou C funkci, nepotrebujeme nic tak kritickeho, abychom to vsechno museli psal v ASM
;@ jen _start vlastne ani neni funkce, takze by tento vstupni bod mel byt psany takto; rovnez je treba se ujistit, ze
;@ je tento symbol relokovany spravne na 0x8000 (tam OS ocekava, ze se nachazi vstupni bod)
_start:
    bl __crt0_run
    8000:	eb000019 	bl	806c <__crt0_run>

00008004 <_hang>:
_hang():
/home/hintik/dev/KIV-RTOS-master/sources/userspace/crt0.s:13
    ;@ z funkce __crt0_run by se nemel proces uz vratit, ale kdyby neco, tak se zacyklime
_hang:
    b _hang
    8004:	eafffffe 	b	8004 <_hang>

00008008 <__crt0_init_bss>:
__crt0_init_bss():
/home/hintik/dev/KIV-RTOS-master/sources/userspace/crt0.c:10

extern unsigned int __bss_start;
extern unsigned int __bss_end;

void __crt0_init_bss()
{
    8008:	e52db004 	push	{fp}		; (str fp, [sp, #-4]!)
    800c:	e28db000 	add	fp, sp, #0
    8010:	e24dd00c 	sub	sp, sp, #12
/home/hintik/dev/KIV-RTOS-master/sources/userspace/crt0.c:11
    unsigned int* begin = (unsigned int*)__bss_start;
    8014:	e59f3048 	ldr	r3, [pc, #72]	; 8064 <__crt0_init_bss+0x5c>
    8018:	e5933000 	ldr	r3, [r3]
    801c:	e50b3008 	str	r3, [fp, #-8]
/home/hintik/dev/KIV-RTOS-master/sources/userspace/crt0.c:12
    for (; begin < (unsigned int*)__bss_end; begin++)
    8020:	ea000005 	b	803c <__crt0_init_bss+0x34>
/home/hintik/dev/KIV-RTOS-master/sources/userspace/crt0.c:13 (discriminator 2)
        *begin = 0;
    8024:	e51b3008 	ldr	r3, [fp, #-8]
    8028:	e3a02000 	mov	r2, #0
    802c:	e5832000 	str	r2, [r3]
/home/hintik/dev/KIV-RTOS-master/sources/userspace/crt0.c:12 (discriminator 2)
    for (; begin < (unsigned int*)__bss_end; begin++)
    8030:	e51b3008 	ldr	r3, [fp, #-8]
    8034:	e2833004 	add	r3, r3, #4
    8038:	e50b3008 	str	r3, [fp, #-8]
/home/hintik/dev/KIV-RTOS-master/sources/userspace/crt0.c:12 (discriminator 1)
    803c:	e59f3024 	ldr	r3, [pc, #36]	; 8068 <__crt0_init_bss+0x60>
    8040:	e5933000 	ldr	r3, [r3]
    8044:	e1a02003 	mov	r2, r3
    8048:	e51b3008 	ldr	r3, [fp, #-8]
    804c:	e1530002 	cmp	r3, r2
    8050:	3afffff3 	bcc	8024 <__crt0_init_bss+0x1c>
/home/hintik/dev/KIV-RTOS-master/sources/userspace/crt0.c:14
}
    8054:	e320f000 	nop	{0}
    8058:	e28bd000 	add	sp, fp, #0
    805c:	e49db004 	pop	{fp}		; (ldr fp, [sp], #4)
    8060:	e12fff1e 	bx	lr
    8064:	00008f0c 	andeq	r8, r0, ip, lsl #30
    8068:	00008f1c 	andeq	r8, r0, ip, lsl pc

0000806c <__crt0_run>:
__crt0_run():
/home/hintik/dev/KIV-RTOS-master/sources/userspace/crt0.c:17

void __crt0_run()
{
    806c:	e92d4800 	push	{fp, lr}
    8070:	e28db004 	add	fp, sp, #4
    8074:	e24dd008 	sub	sp, sp, #8
/home/hintik/dev/KIV-RTOS-master/sources/userspace/crt0.c:19
    // inicializace .bss sekce (vynulovani)
    __crt0_init_bss();
    8078:	ebffffe2 	bl	8008 <__crt0_init_bss>
/home/hintik/dev/KIV-RTOS-master/sources/userspace/crt0.c:22

    // volani konstruktoru globalnich trid (C++)
    _cpp_startup();
    807c:	eb000040 	bl	8184 <_cpp_startup>
/home/hintik/dev/KIV-RTOS-master/sources/userspace/crt0.c:27

    // volani funkce main
    // nebudeme se zde zabyvat predavanim parametru do funkce main
    // jinak by se mohly predavat napr. namapovane do virtualniho adr. prostoru a odkazem pres zasobnik (kam nam muze OS pushnout co chce)
    int result = main(0, 0);
    8080:	e3a01000 	mov	r1, #0
    8084:	e3a00000 	mov	r0, #0
    8088:	eb000086 	bl	82a8 <main>
    808c:	e50b0008 	str	r0, [fp, #-8]
/home/hintik/dev/KIV-RTOS-master/sources/userspace/crt0.c:30

    // volani destruktoru globalnich trid (C++)
    _cpp_shutdown();
    8090:	eb000051 	bl	81dc <_cpp_shutdown>
/home/hintik/dev/KIV-RTOS-master/sources/userspace/crt0.c:33

    // volani terminate() syscallu s navratovym kodem funkce main
    asm volatile("mov r0, %0" : : "r" (result));
    8094:	e51b3008 	ldr	r3, [fp, #-8]
    8098:	e1a00003 	mov	r0, r3
/home/hintik/dev/KIV-RTOS-master/sources/userspace/crt0.c:34
    asm volatile("svc #1");
    809c:	ef000001 	svc	0x00000001
/home/hintik/dev/KIV-RTOS-master/sources/userspace/crt0.c:35
}
    80a0:	e320f000 	nop	{0}
    80a4:	e24bd004 	sub	sp, fp, #4
    80a8:	e8bd8800 	pop	{fp, pc}

000080ac <__cxa_guard_acquire>:
__cxa_guard_acquire():
/home/hintik/dev/KIV-RTOS-master/sources/userspace/cxxabi.cpp:11
	extern "C" int __cxa_guard_acquire (__guard *);
	extern "C" void __cxa_guard_release (__guard *);
	extern "C" void __cxa_guard_abort (__guard *);

	extern "C" int __cxa_guard_acquire (__guard *g)
	{
    80ac:	e52db004 	push	{fp}		; (str fp, [sp, #-4]!)
    80b0:	e28db000 	add	fp, sp, #0
    80b4:	e24dd00c 	sub	sp, sp, #12
    80b8:	e50b0008 	str	r0, [fp, #-8]
/home/hintik/dev/KIV-RTOS-master/sources/userspace/cxxabi.cpp:12
		return !*(char *)(g);
    80bc:	e51b3008 	ldr	r3, [fp, #-8]
    80c0:	e5d33000 	ldrb	r3, [r3]
    80c4:	e3530000 	cmp	r3, #0
    80c8:	03a03001 	moveq	r3, #1
    80cc:	13a03000 	movne	r3, #0
    80d0:	e6ef3073 	uxtb	r3, r3
/home/hintik/dev/KIV-RTOS-master/sources/userspace/cxxabi.cpp:13
	}
    80d4:	e1a00003 	mov	r0, r3
    80d8:	e28bd000 	add	sp, fp, #0
    80dc:	e49db004 	pop	{fp}		; (ldr fp, [sp], #4)
    80e0:	e12fff1e 	bx	lr

000080e4 <__cxa_guard_release>:
__cxa_guard_release():
/home/hintik/dev/KIV-RTOS-master/sources/userspace/cxxabi.cpp:16

	extern "C" void __cxa_guard_release (__guard *g)
	{
    80e4:	e52db004 	push	{fp}		; (str fp, [sp, #-4]!)
    80e8:	e28db000 	add	fp, sp, #0
    80ec:	e24dd00c 	sub	sp, sp, #12
    80f0:	e50b0008 	str	r0, [fp, #-8]
/home/hintik/dev/KIV-RTOS-master/sources/userspace/cxxabi.cpp:17
		*(char *)g = 1;
    80f4:	e51b3008 	ldr	r3, [fp, #-8]
    80f8:	e3a02001 	mov	r2, #1
    80fc:	e5c32000 	strb	r2, [r3]
/home/hintik/dev/KIV-RTOS-master/sources/userspace/cxxabi.cpp:18
	}
    8100:	e320f000 	nop	{0}
    8104:	e28bd000 	add	sp, fp, #0
    8108:	e49db004 	pop	{fp}		; (ldr fp, [sp], #4)
    810c:	e12fff1e 	bx	lr

00008110 <__cxa_guard_abort>:
__cxa_guard_abort():
/home/hintik/dev/KIV-RTOS-master/sources/userspace/cxxabi.cpp:21

	extern "C" void __cxa_guard_abort (__guard *)
	{
    8110:	e52db004 	push	{fp}		; (str fp, [sp, #-4]!)
    8114:	e28db000 	add	fp, sp, #0
    8118:	e24dd00c 	sub	sp, sp, #12
    811c:	e50b0008 	str	r0, [fp, #-8]
/home/hintik/dev/KIV-RTOS-master/sources/userspace/cxxabi.cpp:23

	}
    8120:	e320f000 	nop	{0}
    8124:	e28bd000 	add	sp, fp, #0
    8128:	e49db004 	pop	{fp}		; (ldr fp, [sp], #4)
    812c:	e12fff1e 	bx	lr

00008130 <__dso_handle>:
__dso_handle():
/home/hintik/dev/KIV-RTOS-master/sources/userspace/cxxabi.cpp:27
}

extern "C" void __dso_handle()
{
    8130:	e52db004 	push	{fp}		; (str fp, [sp, #-4]!)
    8134:	e28db000 	add	fp, sp, #0
/home/hintik/dev/KIV-RTOS-master/sources/userspace/cxxabi.cpp:29
    // ignore dtors for now
}
    8138:	e320f000 	nop	{0}
    813c:	e28bd000 	add	sp, fp, #0
    8140:	e49db004 	pop	{fp}		; (ldr fp, [sp], #4)
    8144:	e12fff1e 	bx	lr

00008148 <__cxa_atexit>:
__cxa_atexit():
/home/hintik/dev/KIV-RTOS-master/sources/userspace/cxxabi.cpp:32

extern "C" void __cxa_atexit()
{
    8148:	e52db004 	push	{fp}		; (str fp, [sp, #-4]!)
    814c:	e28db000 	add	fp, sp, #0
/home/hintik/dev/KIV-RTOS-master/sources/userspace/cxxabi.cpp:34
    // ignore dtors for now
}
    8150:	e320f000 	nop	{0}
    8154:	e28bd000 	add	sp, fp, #0
    8158:	e49db004 	pop	{fp}		; (ldr fp, [sp], #4)
    815c:	e12fff1e 	bx	lr

00008160 <__cxa_pure_virtual>:
__cxa_pure_virtual():
/home/hintik/dev/KIV-RTOS-master/sources/userspace/cxxabi.cpp:37

extern "C" void __cxa_pure_virtual()
{
    8160:	e52db004 	push	{fp}		; (str fp, [sp, #-4]!)
    8164:	e28db000 	add	fp, sp, #0
/home/hintik/dev/KIV-RTOS-master/sources/userspace/cxxabi.cpp:39
    // pure virtual method called
}
    8168:	e320f000 	nop	{0}
    816c:	e28bd000 	add	sp, fp, #0
    8170:	e49db004 	pop	{fp}		; (ldr fp, [sp], #4)
    8174:	e12fff1e 	bx	lr

00008178 <__aeabi_unwind_cpp_pr1>:
__aeabi_unwind_cpp_pr1():
/home/hintik/dev/KIV-RTOS-master/sources/userspace/cxxabi.cpp:42

extern "C" void __aeabi_unwind_cpp_pr1()
{
    8178:	e52db004 	push	{fp}		; (str fp, [sp, #-4]!)
    817c:	e28db000 	add	fp, sp, #0
/home/hintik/dev/KIV-RTOS-master/sources/userspace/cxxabi.cpp:43 (discriminator 1)
	while (true)
    8180:	eafffffe 	b	8180 <__aeabi_unwind_cpp_pr1+0x8>

00008184 <_cpp_startup>:
_cpp_startup():
/home/hintik/dev/KIV-RTOS-master/sources/userspace/cxxabi.cpp:61
extern "C" dtor_ptr __DTOR_LIST__[0];
// konec pole destruktoru
extern "C" dtor_ptr __DTOR_END__[0];

extern "C" int _cpp_startup(void)
{
    8184:	e92d4800 	push	{fp, lr}
    8188:	e28db004 	add	fp, sp, #4
    818c:	e24dd008 	sub	sp, sp, #8
/home/hintik/dev/KIV-RTOS-master/sources/userspace/cxxabi.cpp:66
	ctor_ptr* fnptr;
	
	// zavolame konstruktory globalnich C++ trid
	// v poli __CTOR_LIST__ jsou ukazatele na vygenerovane stuby volani konstruktoru
	for (fnptr = __CTOR_LIST__; fnptr < __CTOR_END__; fnptr++)
    8190:	e59f303c 	ldr	r3, [pc, #60]	; 81d4 <_cpp_startup+0x50>
    8194:	e50b3008 	str	r3, [fp, #-8]
/home/hintik/dev/KIV-RTOS-master/sources/userspace/cxxabi.cpp:66 (discriminator 3)
    8198:	e51b3008 	ldr	r3, [fp, #-8]
    819c:	e59f2034 	ldr	r2, [pc, #52]	; 81d8 <_cpp_startup+0x54>
    81a0:	e1530002 	cmp	r3, r2
    81a4:	2a000006 	bcs	81c4 <_cpp_startup+0x40>
/home/hintik/dev/KIV-RTOS-master/sources/userspace/cxxabi.cpp:67 (discriminator 2)
		(*fnptr)();
    81a8:	e51b3008 	ldr	r3, [fp, #-8]
    81ac:	e5933000 	ldr	r3, [r3]
    81b0:	e12fff33 	blx	r3
/home/hintik/dev/KIV-RTOS-master/sources/userspace/cxxabi.cpp:66 (discriminator 2)
	for (fnptr = __CTOR_LIST__; fnptr < __CTOR_END__; fnptr++)
    81b4:	e51b3008 	ldr	r3, [fp, #-8]
    81b8:	e2833004 	add	r3, r3, #4
    81bc:	e50b3008 	str	r3, [fp, #-8]
    81c0:	eafffff4 	b	8198 <_cpp_startup+0x14>
/home/hintik/dev/KIV-RTOS-master/sources/userspace/cxxabi.cpp:69
	
	return 0;
    81c4:	e3a03000 	mov	r3, #0
/home/hintik/dev/KIV-RTOS-master/sources/userspace/cxxabi.cpp:70
}
    81c8:	e1a00003 	mov	r0, r3
    81cc:	e24bd004 	sub	sp, fp, #4
    81d0:	e8bd8800 	pop	{fp, pc}
    81d4:	00008f09 	andeq	r8, r0, r9, lsl #30
    81d8:	00008f09 	andeq	r8, r0, r9, lsl #30

000081dc <_cpp_shutdown>:
_cpp_shutdown():
/home/hintik/dev/KIV-RTOS-master/sources/userspace/cxxabi.cpp:73

extern "C" int _cpp_shutdown(void)
{
    81dc:	e92d4800 	push	{fp, lr}
    81e0:	e28db004 	add	fp, sp, #4
    81e4:	e24dd008 	sub	sp, sp, #8
/home/hintik/dev/KIV-RTOS-master/sources/userspace/cxxabi.cpp:77
	dtor_ptr* fnptr;
	
	// zavolame destruktory globalnich C++ trid
	for (fnptr = __DTOR_LIST__; fnptr < __DTOR_END__; fnptr++)
    81e8:	e59f303c 	ldr	r3, [pc, #60]	; 822c <_cpp_shutdown+0x50>
    81ec:	e50b3008 	str	r3, [fp, #-8]
/home/hintik/dev/KIV-RTOS-master/sources/userspace/cxxabi.cpp:77 (discriminator 3)
    81f0:	e51b3008 	ldr	r3, [fp, #-8]
    81f4:	e59f2034 	ldr	r2, [pc, #52]	; 8230 <_cpp_shutdown+0x54>
    81f8:	e1530002 	cmp	r3, r2
    81fc:	2a000006 	bcs	821c <_cpp_shutdown+0x40>
/home/hintik/dev/KIV-RTOS-master/sources/userspace/cxxabi.cpp:78 (discriminator 2)
		(*fnptr)();
    8200:	e51b3008 	ldr	r3, [fp, #-8]
    8204:	e5933000 	ldr	r3, [r3]
    8208:	e12fff33 	blx	r3
/home/hintik/dev/KIV-RTOS-master/sources/userspace/cxxabi.cpp:77 (discriminator 2)
	for (fnptr = __DTOR_LIST__; fnptr < __DTOR_END__; fnptr++)
    820c:	e51b3008 	ldr	r3, [fp, #-8]
    8210:	e2833004 	add	r3, r3, #4
    8214:	e50b3008 	str	r3, [fp, #-8]
    8218:	eafffff4 	b	81f0 <_cpp_shutdown+0x14>
/home/hintik/dev/KIV-RTOS-master/sources/userspace/cxxabi.cpp:80
	
	return 0;
    821c:	e3a03000 	mov	r3, #0
/home/hintik/dev/KIV-RTOS-master/sources/userspace/cxxabi.cpp:81
}
    8220:	e1a00003 	mov	r0, r3
    8224:	e24bd004 	sub	sp, fp, #4
    8228:	e8bd8800 	pop	{fp, pc}
    822c:	00008f09 	andeq	r8, r0, r9, lsl #30
    8230:	00008f09 	andeq	r8, r0, r9, lsl #30

00008234 <_ZL5fputsjPKc>:
_ZL5fputsjPKc():
/home/hintik/dev/KIV-RTOS-master/sources/userspace/logger_task/main.cpp:14
 * 
 * Prijima vsechny udalosti od ostatnich tasku a oznamuje je skrz UART hostiteli
 **/

static void fputs(uint32_t file, const char* string)
{
    8234:	e92d4800 	push	{fp, lr}
    8238:	e28db004 	add	fp, sp, #4
    823c:	e24dd008 	sub	sp, sp, #8
    8240:	e50b0008 	str	r0, [fp, #-8]
    8244:	e50b100c 	str	r1, [fp, #-12]
/home/hintik/dev/KIV-RTOS-master/sources/userspace/logger_task/main.cpp:15
	write(file, string, strlen(string));
    8248:	e51b000c 	ldr	r0, [fp, #-12]
    824c:	eb000234 	bl	8b24 <_Z6strlenPKc>
    8250:	e1a03000 	mov	r3, r0
    8254:	e1a02003 	mov	r2, r3
    8258:	e51b100c 	ldr	r1, [fp, #-12]
    825c:	e51b0008 	ldr	r0, [fp, #-8]
    8260:	eb00007a 	bl	8450 <_Z5writejPKcj>
/home/hintik/dev/KIV-RTOS-master/sources/userspace/logger_task/main.cpp:16
}
    8264:	e320f000 	nop	{0}
    8268:	e24bd004 	sub	sp, fp, #4
    826c:	e8bd8800 	pop	{fp, pc}

00008270 <_ZL5fgetsjPci>:
_ZL5fgetsjPci():
/home/hintik/dev/KIV-RTOS-master/sources/userspace/logger_task/main.cpp:18

static void fgets(uint32_t file, char *buf, int size) {
    8270:	e92d4800 	push	{fp, lr}
    8274:	e28db004 	add	fp, sp, #4
    8278:	e24dd010 	sub	sp, sp, #16
    827c:	e50b0008 	str	r0, [fp, #-8]
    8280:	e50b100c 	str	r1, [fp, #-12]
    8284:	e50b2010 	str	r2, [fp, #-16]
/home/hintik/dev/KIV-RTOS-master/sources/userspace/logger_task/main.cpp:19
    read(file, buf, size);
    8288:	e51b3010 	ldr	r3, [fp, #-16]
    828c:	e1a02003 	mov	r2, r3
    8290:	e51b100c 	ldr	r1, [fp, #-12]
    8294:	e51b0008 	ldr	r0, [fp, #-8]
    8298:	eb000058 	bl	8400 <_Z4readjPcj>
/home/hintik/dev/KIV-RTOS-master/sources/userspace/logger_task/main.cpp:20
}
    829c:	e320f000 	nop	{0}
    82a0:	e24bd004 	sub	sp, fp, #4
    82a4:	e8bd8800 	pop	{fp, pc}

000082a8 <main>:
main():
/home/hintik/dev/KIV-RTOS-master/sources/userspace/logger_task/main.cpp:23

int main(int argc, char** argv)
{
    82a8:	e92d4800 	push	{fp, lr}
    82ac:	e28db004 	add	fp, sp, #4
    82b0:	e24ddf46 	sub	sp, sp, #280	; 0x118
    82b4:	e50b0118 	str	r0, [fp, #-280]	; 0xfffffee8
    82b8:	e50b111c 	str	r1, [fp, #-284]	; 0xfffffee4
/home/hintik/dev/KIV-RTOS-master/sources/userspace/logger_task/main.cpp:24
	uint32_t uart_file = open("DEV:uart/0", NFile_Open_Mode::Write_Only);
    82bc:	e3a01001 	mov	r1, #1
    82c0:	e59f0074 	ldr	r0, [pc, #116]	; 833c <main+0x94>
    82c4:	eb00003c 	bl	83bc <_Z4openPKc15NFile_Open_Mode>
    82c8:	e50b0008 	str	r0, [fp, #-8]
/home/hintik/dev/KIV-RTOS-master/sources/userspace/logger_task/main.cpp:27

	TUART_IOCtl_Params params;
	params.baud_rate = NUART_Baud_Rate::BR_115200;
    82cc:	e59f306c 	ldr	r3, [pc, #108]	; 8340 <main+0x98>
    82d0:	e50b300c 	str	r3, [fp, #-12]
/home/hintik/dev/KIV-RTOS-master/sources/userspace/logger_task/main.cpp:28
	params.char_length = NUART_Char_Length::Char_8;
    82d4:	e3a03001 	mov	r3, #1
    82d8:	e50b3010 	str	r3, [fp, #-16]
/home/hintik/dev/KIV-RTOS-master/sources/userspace/logger_task/main.cpp:29
	ioctl(uart_file, NIOCtl_Operation::Set_Params, &params);
    82dc:	e24b3010 	sub	r3, fp, #16
    82e0:	e1a02003 	mov	r2, r3
    82e4:	e3a01001 	mov	r1, #1
    82e8:	e51b0008 	ldr	r0, [fp, #-8]
    82ec:	eb000076 	bl	84cc <_Z5ioctlj16NIOCtl_OperationPv>
/home/hintik/dev/KIV-RTOS-master/sources/userspace/logger_task/main.cpp:31

    fputs(uart_file, "UART task starting!\n");
    82f0:	e59f104c 	ldr	r1, [pc, #76]	; 8344 <main+0x9c>
    82f4:	e51b0008 	ldr	r0, [fp, #-8]
    82f8:	ebffffcd 	bl	8234 <_ZL5fputsjPKc>
/home/hintik/dev/KIV-RTOS-master/sources/userspace/logger_task/main.cpp:33
    char str[256];
    fgets(uart_file, str, 256);
    82fc:	e24b3e11 	sub	r3, fp, #272	; 0x110
    8300:	e3a02c01 	mov	r2, #256	; 0x100
    8304:	e1a01003 	mov	r1, r3
    8308:	e51b0008 	ldr	r0, [fp, #-8]
    830c:	ebffffd7 	bl	8270 <_ZL5fgetsjPci>
/home/hintik/dev/KIV-RTOS-master/sources/userspace/logger_task/main.cpp:35

    fputs(uart_file, "UART task starting!\n");
    8310:	e59f102c 	ldr	r1, [pc, #44]	; 8344 <main+0x9c>
    8314:	e51b0008 	ldr	r0, [fp, #-8]
    8318:	ebffffc5 	bl	8234 <_ZL5fputsjPKc>
/home/hintik/dev/KIV-RTOS-master/sources/userspace/logger_task/main.cpp:37

    fputs(uart_file, str);
    831c:	e24b3e11 	sub	r3, fp, #272	; 0x110
    8320:	e1a01003 	mov	r1, r3
    8324:	e51b0008 	ldr	r0, [fp, #-8]
    8328:	ebffffc1 	bl	8234 <_ZL5fputsjPKc>
/home/hintik/dev/KIV-RTOS-master/sources/userspace/logger_task/main.cpp:39

    return 0;
    832c:	e3a03000 	mov	r3, #0
/home/hintik/dev/KIV-RTOS-master/sources/userspace/logger_task/main.cpp:40
}
    8330:	e1a00003 	mov	r0, r3
    8334:	e24bd004 	sub	sp, fp, #4
    8338:	e8bd8800 	pop	{fp, pc}
    833c:	00008e9c 	muleq	r0, ip, lr
    8340:	0001c200 	andeq	ip, r1, r0, lsl #4
    8344:	00008ea8 	andeq	r8, r0, r8, lsr #29

00008348 <_Z6getpidv>:
_Z6getpidv():
/home/hintik/dev/KIV-RTOS-master/sources/stdlib/src/stdfile.cpp:5
#include <stdfile.h>
#include <stdstring.h>

uint32_t getpid()
{
    8348:	e52db004 	push	{fp}		; (str fp, [sp, #-4]!)
    834c:	e28db000 	add	fp, sp, #0
    8350:	e24dd00c 	sub	sp, sp, #12
/home/hintik/dev/KIV-RTOS-master/sources/stdlib/src/stdfile.cpp:8
    uint32_t pid;

    asm volatile("swi 0");
    8354:	ef000000 	svc	0x00000000
/home/hintik/dev/KIV-RTOS-master/sources/stdlib/src/stdfile.cpp:9
    asm volatile("mov %0, r0" : "=r" (pid));
    8358:	e1a03000 	mov	r3, r0
    835c:	e50b3008 	str	r3, [fp, #-8]
/home/hintik/dev/KIV-RTOS-master/sources/stdlib/src/stdfile.cpp:11

    return pid;
    8360:	e51b3008 	ldr	r3, [fp, #-8]
/home/hintik/dev/KIV-RTOS-master/sources/stdlib/src/stdfile.cpp:12
}
    8364:	e1a00003 	mov	r0, r3
    8368:	e28bd000 	add	sp, fp, #0
    836c:	e49db004 	pop	{fp}		; (ldr fp, [sp], #4)
    8370:	e12fff1e 	bx	lr

00008374 <_Z9terminatei>:
_Z9terminatei():
/home/hintik/dev/KIV-RTOS-master/sources/stdlib/src/stdfile.cpp:15

void terminate(int exitcode)
{
    8374:	e52db004 	push	{fp}		; (str fp, [sp, #-4]!)
    8378:	e28db000 	add	fp, sp, #0
    837c:	e24dd00c 	sub	sp, sp, #12
    8380:	e50b0008 	str	r0, [fp, #-8]
/home/hintik/dev/KIV-RTOS-master/sources/stdlib/src/stdfile.cpp:16
    asm volatile("mov r0, %0" : : "r" (exitcode));
    8384:	e51b3008 	ldr	r3, [fp, #-8]
    8388:	e1a00003 	mov	r0, r3
/home/hintik/dev/KIV-RTOS-master/sources/stdlib/src/stdfile.cpp:17
    asm volatile("swi 1");
    838c:	ef000001 	svc	0x00000001
/home/hintik/dev/KIV-RTOS-master/sources/stdlib/src/stdfile.cpp:18
}
    8390:	e320f000 	nop	{0}
    8394:	e28bd000 	add	sp, fp, #0
    8398:	e49db004 	pop	{fp}		; (ldr fp, [sp], #4)
    839c:	e12fff1e 	bx	lr

000083a0 <_Z11sched_yieldv>:
_Z11sched_yieldv():
/home/hintik/dev/KIV-RTOS-master/sources/stdlib/src/stdfile.cpp:21

void sched_yield()
{
    83a0:	e52db004 	push	{fp}		; (str fp, [sp, #-4]!)
    83a4:	e28db000 	add	fp, sp, #0
/home/hintik/dev/KIV-RTOS-master/sources/stdlib/src/stdfile.cpp:22
    asm volatile("swi 2");
    83a8:	ef000002 	svc	0x00000002
/home/hintik/dev/KIV-RTOS-master/sources/stdlib/src/stdfile.cpp:23
}
    83ac:	e320f000 	nop	{0}
    83b0:	e28bd000 	add	sp, fp, #0
    83b4:	e49db004 	pop	{fp}		; (ldr fp, [sp], #4)
    83b8:	e12fff1e 	bx	lr

000083bc <_Z4openPKc15NFile_Open_Mode>:
_Z4openPKc15NFile_Open_Mode():
/home/hintik/dev/KIV-RTOS-master/sources/stdlib/src/stdfile.cpp:26

uint32_t open(const char* filename, NFile_Open_Mode mode)
{
    83bc:	e52db004 	push	{fp}		; (str fp, [sp, #-4]!)
    83c0:	e28db000 	add	fp, sp, #0
    83c4:	e24dd014 	sub	sp, sp, #20
    83c8:	e50b0010 	str	r0, [fp, #-16]
    83cc:	e50b1014 	str	r1, [fp, #-20]	; 0xffffffec
/home/hintik/dev/KIV-RTOS-master/sources/stdlib/src/stdfile.cpp:29
    uint32_t file;

    asm volatile("mov r0, %0" : : "r" (filename));
    83d0:	e51b3010 	ldr	r3, [fp, #-16]
    83d4:	e1a00003 	mov	r0, r3
/home/hintik/dev/KIV-RTOS-master/sources/stdlib/src/stdfile.cpp:30
    asm volatile("mov r1, %0" : : "r" (mode));
    83d8:	e51b3014 	ldr	r3, [fp, #-20]	; 0xffffffec
    83dc:	e1a01003 	mov	r1, r3
/home/hintik/dev/KIV-RTOS-master/sources/stdlib/src/stdfile.cpp:31
    asm volatile("swi 64");
    83e0:	ef000040 	svc	0x00000040
/home/hintik/dev/KIV-RTOS-master/sources/stdlib/src/stdfile.cpp:32
    asm volatile("mov %0, r0" : "=r" (file));
    83e4:	e1a03000 	mov	r3, r0
    83e8:	e50b3008 	str	r3, [fp, #-8]
/home/hintik/dev/KIV-RTOS-master/sources/stdlib/src/stdfile.cpp:34

    return file;
    83ec:	e51b3008 	ldr	r3, [fp, #-8]
/home/hintik/dev/KIV-RTOS-master/sources/stdlib/src/stdfile.cpp:35
}
    83f0:	e1a00003 	mov	r0, r3
    83f4:	e28bd000 	add	sp, fp, #0
    83f8:	e49db004 	pop	{fp}		; (ldr fp, [sp], #4)
    83fc:	e12fff1e 	bx	lr

00008400 <_Z4readjPcj>:
_Z4readjPcj():
/home/hintik/dev/KIV-RTOS-master/sources/stdlib/src/stdfile.cpp:38

uint32_t read(uint32_t file, char* const buffer, uint32_t size)
{
    8400:	e52db004 	push	{fp}		; (str fp, [sp, #-4]!)
    8404:	e28db000 	add	fp, sp, #0
    8408:	e24dd01c 	sub	sp, sp, #28
    840c:	e50b0010 	str	r0, [fp, #-16]
    8410:	e50b1014 	str	r1, [fp, #-20]	; 0xffffffec
    8414:	e50b2018 	str	r2, [fp, #-24]	; 0xffffffe8
/home/hintik/dev/KIV-RTOS-master/sources/stdlib/src/stdfile.cpp:41
    uint32_t rdnum;

    asm volatile("mov r0, %0" : : "r" (file));
    8418:	e51b3010 	ldr	r3, [fp, #-16]
    841c:	e1a00003 	mov	r0, r3
/home/hintik/dev/KIV-RTOS-master/sources/stdlib/src/stdfile.cpp:42
    asm volatile("mov r1, %0" : : "r" (buffer));
    8420:	e51b3014 	ldr	r3, [fp, #-20]	; 0xffffffec
    8424:	e1a01003 	mov	r1, r3
/home/hintik/dev/KIV-RTOS-master/sources/stdlib/src/stdfile.cpp:43
    asm volatile("mov r2, %0" : : "r" (size));
    8428:	e51b3018 	ldr	r3, [fp, #-24]	; 0xffffffe8
    842c:	e1a02003 	mov	r2, r3
/home/hintik/dev/KIV-RTOS-master/sources/stdlib/src/stdfile.cpp:44
    asm volatile("swi 65");
    8430:	ef000041 	svc	0x00000041
/home/hintik/dev/KIV-RTOS-master/sources/stdlib/src/stdfile.cpp:45
    asm volatile("mov %0, r0" : "=r" (rdnum));
    8434:	e1a03000 	mov	r3, r0
    8438:	e50b3008 	str	r3, [fp, #-8]
/home/hintik/dev/KIV-RTOS-master/sources/stdlib/src/stdfile.cpp:47

    return rdnum;
    843c:	e51b3008 	ldr	r3, [fp, #-8]
/home/hintik/dev/KIV-RTOS-master/sources/stdlib/src/stdfile.cpp:48
}
    8440:	e1a00003 	mov	r0, r3
    8444:	e28bd000 	add	sp, fp, #0
    8448:	e49db004 	pop	{fp}		; (ldr fp, [sp], #4)
    844c:	e12fff1e 	bx	lr

00008450 <_Z5writejPKcj>:
_Z5writejPKcj():
/home/hintik/dev/KIV-RTOS-master/sources/stdlib/src/stdfile.cpp:51

uint32_t write(uint32_t file, const char* buffer, uint32_t size)
{
    8450:	e52db004 	push	{fp}		; (str fp, [sp, #-4]!)
    8454:	e28db000 	add	fp, sp, #0
    8458:	e24dd01c 	sub	sp, sp, #28
    845c:	e50b0010 	str	r0, [fp, #-16]
    8460:	e50b1014 	str	r1, [fp, #-20]	; 0xffffffec
    8464:	e50b2018 	str	r2, [fp, #-24]	; 0xffffffe8
/home/hintik/dev/KIV-RTOS-master/sources/stdlib/src/stdfile.cpp:54
    uint32_t wrnum;

    asm volatile("mov r0, %0" : : "r" (file));
    8468:	e51b3010 	ldr	r3, [fp, #-16]
    846c:	e1a00003 	mov	r0, r3
/home/hintik/dev/KIV-RTOS-master/sources/stdlib/src/stdfile.cpp:55
    asm volatile("mov r1, %0" : : "r" (buffer));
    8470:	e51b3014 	ldr	r3, [fp, #-20]	; 0xffffffec
    8474:	e1a01003 	mov	r1, r3
/home/hintik/dev/KIV-RTOS-master/sources/stdlib/src/stdfile.cpp:56
    asm volatile("mov r2, %0" : : "r" (size));
    8478:	e51b3018 	ldr	r3, [fp, #-24]	; 0xffffffe8
    847c:	e1a02003 	mov	r2, r3
/home/hintik/dev/KIV-RTOS-master/sources/stdlib/src/stdfile.cpp:57
    asm volatile("swi 66");
    8480:	ef000042 	svc	0x00000042
/home/hintik/dev/KIV-RTOS-master/sources/stdlib/src/stdfile.cpp:58
    asm volatile("mov %0, r0" : "=r" (wrnum));
    8484:	e1a03000 	mov	r3, r0
    8488:	e50b3008 	str	r3, [fp, #-8]
/home/hintik/dev/KIV-RTOS-master/sources/stdlib/src/stdfile.cpp:60

    return wrnum;
    848c:	e51b3008 	ldr	r3, [fp, #-8]
/home/hintik/dev/KIV-RTOS-master/sources/stdlib/src/stdfile.cpp:61
}
    8490:	e1a00003 	mov	r0, r3
    8494:	e28bd000 	add	sp, fp, #0
    8498:	e49db004 	pop	{fp}		; (ldr fp, [sp], #4)
    849c:	e12fff1e 	bx	lr

000084a0 <_Z5closej>:
_Z5closej():
/home/hintik/dev/KIV-RTOS-master/sources/stdlib/src/stdfile.cpp:64

void close(uint32_t file)
{
    84a0:	e52db004 	push	{fp}		; (str fp, [sp, #-4]!)
    84a4:	e28db000 	add	fp, sp, #0
    84a8:	e24dd00c 	sub	sp, sp, #12
    84ac:	e50b0008 	str	r0, [fp, #-8]
/home/hintik/dev/KIV-RTOS-master/sources/stdlib/src/stdfile.cpp:65
    asm volatile("mov r0, %0" : : "r" (file));
    84b0:	e51b3008 	ldr	r3, [fp, #-8]
    84b4:	e1a00003 	mov	r0, r3
/home/hintik/dev/KIV-RTOS-master/sources/stdlib/src/stdfile.cpp:66
    asm volatile("swi 67");
    84b8:	ef000043 	svc	0x00000043
/home/hintik/dev/KIV-RTOS-master/sources/stdlib/src/stdfile.cpp:67
}
    84bc:	e320f000 	nop	{0}
    84c0:	e28bd000 	add	sp, fp, #0
    84c4:	e49db004 	pop	{fp}		; (ldr fp, [sp], #4)
    84c8:	e12fff1e 	bx	lr

000084cc <_Z5ioctlj16NIOCtl_OperationPv>:
_Z5ioctlj16NIOCtl_OperationPv():
/home/hintik/dev/KIV-RTOS-master/sources/stdlib/src/stdfile.cpp:70

uint32_t ioctl(uint32_t file, NIOCtl_Operation operation, void* param)
{
    84cc:	e52db004 	push	{fp}		; (str fp, [sp, #-4]!)
    84d0:	e28db000 	add	fp, sp, #0
    84d4:	e24dd01c 	sub	sp, sp, #28
    84d8:	e50b0010 	str	r0, [fp, #-16]
    84dc:	e50b1014 	str	r1, [fp, #-20]	; 0xffffffec
    84e0:	e50b2018 	str	r2, [fp, #-24]	; 0xffffffe8
/home/hintik/dev/KIV-RTOS-master/sources/stdlib/src/stdfile.cpp:73
    uint32_t retcode;

    asm volatile("mov r0, %0" : : "r" (file));
    84e4:	e51b3010 	ldr	r3, [fp, #-16]
    84e8:	e1a00003 	mov	r0, r3
/home/hintik/dev/KIV-RTOS-master/sources/stdlib/src/stdfile.cpp:74
    asm volatile("mov r1, %0" : : "r" (operation));
    84ec:	e51b3014 	ldr	r3, [fp, #-20]	; 0xffffffec
    84f0:	e1a01003 	mov	r1, r3
/home/hintik/dev/KIV-RTOS-master/sources/stdlib/src/stdfile.cpp:75
    asm volatile("mov r2, %0" : : "r" (param));
    84f4:	e51b3018 	ldr	r3, [fp, #-24]	; 0xffffffe8
    84f8:	e1a02003 	mov	r2, r3
/home/hintik/dev/KIV-RTOS-master/sources/stdlib/src/stdfile.cpp:76
    asm volatile("swi 68");
    84fc:	ef000044 	svc	0x00000044
/home/hintik/dev/KIV-RTOS-master/sources/stdlib/src/stdfile.cpp:77
    asm volatile("mov %0, r0" : "=r" (retcode));
    8500:	e1a03000 	mov	r3, r0
    8504:	e50b3008 	str	r3, [fp, #-8]
/home/hintik/dev/KIV-RTOS-master/sources/stdlib/src/stdfile.cpp:79

    return retcode;
    8508:	e51b3008 	ldr	r3, [fp, #-8]
/home/hintik/dev/KIV-RTOS-master/sources/stdlib/src/stdfile.cpp:80
}
    850c:	e1a00003 	mov	r0, r3
    8510:	e28bd000 	add	sp, fp, #0
    8514:	e49db004 	pop	{fp}		; (ldr fp, [sp], #4)
    8518:	e12fff1e 	bx	lr

0000851c <_Z6notifyjj>:
_Z6notifyjj():
/home/hintik/dev/KIV-RTOS-master/sources/stdlib/src/stdfile.cpp:83

uint32_t notify(uint32_t file, uint32_t count)
{
    851c:	e52db004 	push	{fp}		; (str fp, [sp, #-4]!)
    8520:	e28db000 	add	fp, sp, #0
    8524:	e24dd014 	sub	sp, sp, #20
    8528:	e50b0010 	str	r0, [fp, #-16]
    852c:	e50b1014 	str	r1, [fp, #-20]	; 0xffffffec
/home/hintik/dev/KIV-RTOS-master/sources/stdlib/src/stdfile.cpp:86
    uint32_t retcnt;

    asm volatile("mov r0, %0" : : "r" (file));
    8530:	e51b3010 	ldr	r3, [fp, #-16]
    8534:	e1a00003 	mov	r0, r3
/home/hintik/dev/KIV-RTOS-master/sources/stdlib/src/stdfile.cpp:87
    asm volatile("mov r1, %0" : : "r" (count));
    8538:	e51b3014 	ldr	r3, [fp, #-20]	; 0xffffffec
    853c:	e1a01003 	mov	r1, r3
/home/hintik/dev/KIV-RTOS-master/sources/stdlib/src/stdfile.cpp:88
    asm volatile("swi 69");
    8540:	ef000045 	svc	0x00000045
/home/hintik/dev/KIV-RTOS-master/sources/stdlib/src/stdfile.cpp:89
    asm volatile("mov %0, r0" : "=r" (retcnt));
    8544:	e1a03000 	mov	r3, r0
    8548:	e50b3008 	str	r3, [fp, #-8]
/home/hintik/dev/KIV-RTOS-master/sources/stdlib/src/stdfile.cpp:91

    return retcnt;
    854c:	e51b3008 	ldr	r3, [fp, #-8]
/home/hintik/dev/KIV-RTOS-master/sources/stdlib/src/stdfile.cpp:92
}
    8550:	e1a00003 	mov	r0, r3
    8554:	e28bd000 	add	sp, fp, #0
    8558:	e49db004 	pop	{fp}		; (ldr fp, [sp], #4)
    855c:	e12fff1e 	bx	lr

00008560 <_Z4waitjjj>:
_Z4waitjjj():
/home/hintik/dev/KIV-RTOS-master/sources/stdlib/src/stdfile.cpp:95

NSWI_Result_Code wait(uint32_t file, uint32_t count, uint32_t notified_deadline)
{
    8560:	e52db004 	push	{fp}		; (str fp, [sp, #-4]!)
    8564:	e28db000 	add	fp, sp, #0
    8568:	e24dd01c 	sub	sp, sp, #28
    856c:	e50b0010 	str	r0, [fp, #-16]
    8570:	e50b1014 	str	r1, [fp, #-20]	; 0xffffffec
    8574:	e50b2018 	str	r2, [fp, #-24]	; 0xffffffe8
/home/hintik/dev/KIV-RTOS-master/sources/stdlib/src/stdfile.cpp:98
    NSWI_Result_Code retcode;

    asm volatile("mov r0, %0" : : "r" (file));
    8578:	e51b3010 	ldr	r3, [fp, #-16]
    857c:	e1a00003 	mov	r0, r3
/home/hintik/dev/KIV-RTOS-master/sources/stdlib/src/stdfile.cpp:99
    asm volatile("mov r1, %0" : : "r" (count));
    8580:	e51b3014 	ldr	r3, [fp, #-20]	; 0xffffffec
    8584:	e1a01003 	mov	r1, r3
/home/hintik/dev/KIV-RTOS-master/sources/stdlib/src/stdfile.cpp:100
    asm volatile("mov r2, %0" : : "r" (notified_deadline));
    8588:	e51b3018 	ldr	r3, [fp, #-24]	; 0xffffffe8
    858c:	e1a02003 	mov	r2, r3
/home/hintik/dev/KIV-RTOS-master/sources/stdlib/src/stdfile.cpp:101
    asm volatile("swi 70");
    8590:	ef000046 	svc	0x00000046
/home/hintik/dev/KIV-RTOS-master/sources/stdlib/src/stdfile.cpp:102
    asm volatile("mov %0, r0" : "=r" (retcode));
    8594:	e1a03000 	mov	r3, r0
    8598:	e50b3008 	str	r3, [fp, #-8]
/home/hintik/dev/KIV-RTOS-master/sources/stdlib/src/stdfile.cpp:104

    return retcode;
    859c:	e51b3008 	ldr	r3, [fp, #-8]
/home/hintik/dev/KIV-RTOS-master/sources/stdlib/src/stdfile.cpp:105
}
    85a0:	e1a00003 	mov	r0, r3
    85a4:	e28bd000 	add	sp, fp, #0
    85a8:	e49db004 	pop	{fp}		; (ldr fp, [sp], #4)
    85ac:	e12fff1e 	bx	lr

000085b0 <_Z5sleepjj>:
_Z5sleepjj():
/home/hintik/dev/KIV-RTOS-master/sources/stdlib/src/stdfile.cpp:108

bool sleep(uint32_t ticks, uint32_t notified_deadline)
{
    85b0:	e52db004 	push	{fp}		; (str fp, [sp, #-4]!)
    85b4:	e28db000 	add	fp, sp, #0
    85b8:	e24dd014 	sub	sp, sp, #20
    85bc:	e50b0010 	str	r0, [fp, #-16]
    85c0:	e50b1014 	str	r1, [fp, #-20]	; 0xffffffec
/home/hintik/dev/KIV-RTOS-master/sources/stdlib/src/stdfile.cpp:111
    uint32_t retcode;

    asm volatile("mov r0, %0" : : "r" (ticks));
    85c4:	e51b3010 	ldr	r3, [fp, #-16]
    85c8:	e1a00003 	mov	r0, r3
/home/hintik/dev/KIV-RTOS-master/sources/stdlib/src/stdfile.cpp:112
    asm volatile("mov r1, %0" : : "r" (notified_deadline));
    85cc:	e51b3014 	ldr	r3, [fp, #-20]	; 0xffffffec
    85d0:	e1a01003 	mov	r1, r3
/home/hintik/dev/KIV-RTOS-master/sources/stdlib/src/stdfile.cpp:113
    asm volatile("swi 3");
    85d4:	ef000003 	svc	0x00000003
/home/hintik/dev/KIV-RTOS-master/sources/stdlib/src/stdfile.cpp:114
    asm volatile("mov %0, r0" : "=r" (retcode));
    85d8:	e1a03000 	mov	r3, r0
    85dc:	e50b3008 	str	r3, [fp, #-8]
/home/hintik/dev/KIV-RTOS-master/sources/stdlib/src/stdfile.cpp:116

    return retcode;
    85e0:	e51b3008 	ldr	r3, [fp, #-8]
    85e4:	e3530000 	cmp	r3, #0
    85e8:	13a03001 	movne	r3, #1
    85ec:	03a03000 	moveq	r3, #0
    85f0:	e6ef3073 	uxtb	r3, r3
/home/hintik/dev/KIV-RTOS-master/sources/stdlib/src/stdfile.cpp:117
}
    85f4:	e1a00003 	mov	r0, r3
    85f8:	e28bd000 	add	sp, fp, #0
    85fc:	e49db004 	pop	{fp}		; (ldr fp, [sp], #4)
    8600:	e12fff1e 	bx	lr

00008604 <_Z24get_active_process_countv>:
_Z24get_active_process_countv():
/home/hintik/dev/KIV-RTOS-master/sources/stdlib/src/stdfile.cpp:120

uint32_t get_active_process_count()
{
    8604:	e52db004 	push	{fp}		; (str fp, [sp, #-4]!)
    8608:	e28db000 	add	fp, sp, #0
    860c:	e24dd00c 	sub	sp, sp, #12
/home/hintik/dev/KIV-RTOS-master/sources/stdlib/src/stdfile.cpp:121
    const NGet_Sched_Info_Type req = NGet_Sched_Info_Type::Active_Process_Count;
    8610:	e3a03000 	mov	r3, #0
    8614:	e50b3008 	str	r3, [fp, #-8]
/home/hintik/dev/KIV-RTOS-master/sources/stdlib/src/stdfile.cpp:124
    uint32_t retval;

    asm volatile("mov r0, %0" : : "r" (req));
    8618:	e3a03000 	mov	r3, #0
    861c:	e1a00003 	mov	r0, r3
/home/hintik/dev/KIV-RTOS-master/sources/stdlib/src/stdfile.cpp:125
    asm volatile("mov r1, %0" : : "r" (&retval));
    8620:	e24b300c 	sub	r3, fp, #12
    8624:	e1a01003 	mov	r1, r3
/home/hintik/dev/KIV-RTOS-master/sources/stdlib/src/stdfile.cpp:126
    asm volatile("swi 4");
    8628:	ef000004 	svc	0x00000004
/home/hintik/dev/KIV-RTOS-master/sources/stdlib/src/stdfile.cpp:128

    return retval;
    862c:	e51b300c 	ldr	r3, [fp, #-12]
/home/hintik/dev/KIV-RTOS-master/sources/stdlib/src/stdfile.cpp:129
}
    8630:	e1a00003 	mov	r0, r3
    8634:	e28bd000 	add	sp, fp, #0
    8638:	e49db004 	pop	{fp}		; (ldr fp, [sp], #4)
    863c:	e12fff1e 	bx	lr

00008640 <_Z14get_tick_countv>:
_Z14get_tick_countv():
/home/hintik/dev/KIV-RTOS-master/sources/stdlib/src/stdfile.cpp:132

uint32_t get_tick_count()
{
    8640:	e52db004 	push	{fp}		; (str fp, [sp, #-4]!)
    8644:	e28db000 	add	fp, sp, #0
    8648:	e24dd00c 	sub	sp, sp, #12
/home/hintik/dev/KIV-RTOS-master/sources/stdlib/src/stdfile.cpp:133
    const NGet_Sched_Info_Type req = NGet_Sched_Info_Type::Tick_Count;
    864c:	e3a03001 	mov	r3, #1
    8650:	e50b3008 	str	r3, [fp, #-8]
/home/hintik/dev/KIV-RTOS-master/sources/stdlib/src/stdfile.cpp:136
    uint32_t retval;

    asm volatile("mov r0, %0" : : "r" (req));
    8654:	e3a03001 	mov	r3, #1
    8658:	e1a00003 	mov	r0, r3
/home/hintik/dev/KIV-RTOS-master/sources/stdlib/src/stdfile.cpp:137
    asm volatile("mov r1, %0" : : "r" (&retval));
    865c:	e24b300c 	sub	r3, fp, #12
    8660:	e1a01003 	mov	r1, r3
/home/hintik/dev/KIV-RTOS-master/sources/stdlib/src/stdfile.cpp:138
    asm volatile("swi 4");
    8664:	ef000004 	svc	0x00000004
/home/hintik/dev/KIV-RTOS-master/sources/stdlib/src/stdfile.cpp:140

    return retval;
    8668:	e51b300c 	ldr	r3, [fp, #-12]
/home/hintik/dev/KIV-RTOS-master/sources/stdlib/src/stdfile.cpp:141
}
    866c:	e1a00003 	mov	r0, r3
    8670:	e28bd000 	add	sp, fp, #0
    8674:	e49db004 	pop	{fp}		; (ldr fp, [sp], #4)
    8678:	e12fff1e 	bx	lr

0000867c <_Z17set_task_deadlinej>:
_Z17set_task_deadlinej():
/home/hintik/dev/KIV-RTOS-master/sources/stdlib/src/stdfile.cpp:144

void set_task_deadline(uint32_t tick_count_required)
{
    867c:	e52db004 	push	{fp}		; (str fp, [sp, #-4]!)
    8680:	e28db000 	add	fp, sp, #0
    8684:	e24dd014 	sub	sp, sp, #20
    8688:	e50b0010 	str	r0, [fp, #-16]
/home/hintik/dev/KIV-RTOS-master/sources/stdlib/src/stdfile.cpp:145
    const NDeadline_Subservice req = NDeadline_Subservice::Set_Relative;
    868c:	e3a03000 	mov	r3, #0
    8690:	e50b3008 	str	r3, [fp, #-8]
/home/hintik/dev/KIV-RTOS-master/sources/stdlib/src/stdfile.cpp:147

    asm volatile("mov r0, %0" : : "r" (req));
    8694:	e3a03000 	mov	r3, #0
    8698:	e1a00003 	mov	r0, r3
/home/hintik/dev/KIV-RTOS-master/sources/stdlib/src/stdfile.cpp:148
    asm volatile("mov r1, %0" : : "r" (&tick_count_required));
    869c:	e24b3010 	sub	r3, fp, #16
    86a0:	e1a01003 	mov	r1, r3
/home/hintik/dev/KIV-RTOS-master/sources/stdlib/src/stdfile.cpp:149
    asm volatile("swi 5");
    86a4:	ef000005 	svc	0x00000005
/home/hintik/dev/KIV-RTOS-master/sources/stdlib/src/stdfile.cpp:150
}
    86a8:	e320f000 	nop	{0}
    86ac:	e28bd000 	add	sp, fp, #0
    86b0:	e49db004 	pop	{fp}		; (ldr fp, [sp], #4)
    86b4:	e12fff1e 	bx	lr

000086b8 <_Z26get_task_ticks_to_deadlinev>:
_Z26get_task_ticks_to_deadlinev():
/home/hintik/dev/KIV-RTOS-master/sources/stdlib/src/stdfile.cpp:153

uint32_t get_task_ticks_to_deadline()
{
    86b8:	e52db004 	push	{fp}		; (str fp, [sp, #-4]!)
    86bc:	e28db000 	add	fp, sp, #0
    86c0:	e24dd00c 	sub	sp, sp, #12
/home/hintik/dev/KIV-RTOS-master/sources/stdlib/src/stdfile.cpp:154
    const NDeadline_Subservice req = NDeadline_Subservice::Get_Remaining;
    86c4:	e3a03001 	mov	r3, #1
    86c8:	e50b3008 	str	r3, [fp, #-8]
/home/hintik/dev/KIV-RTOS-master/sources/stdlib/src/stdfile.cpp:157
    uint32_t ticks;

    asm volatile("mov r0, %0" : : "r" (req));
    86cc:	e3a03001 	mov	r3, #1
    86d0:	e1a00003 	mov	r0, r3
/home/hintik/dev/KIV-RTOS-master/sources/stdlib/src/stdfile.cpp:158
    asm volatile("mov r1, %0" : : "r" (&ticks));
    86d4:	e24b300c 	sub	r3, fp, #12
    86d8:	e1a01003 	mov	r1, r3
/home/hintik/dev/KIV-RTOS-master/sources/stdlib/src/stdfile.cpp:159
    asm volatile("swi 5");
    86dc:	ef000005 	svc	0x00000005
/home/hintik/dev/KIV-RTOS-master/sources/stdlib/src/stdfile.cpp:161

    return ticks;
    86e0:	e51b300c 	ldr	r3, [fp, #-12]
/home/hintik/dev/KIV-RTOS-master/sources/stdlib/src/stdfile.cpp:162
}
    86e4:	e1a00003 	mov	r0, r3
    86e8:	e28bd000 	add	sp, fp, #0
    86ec:	e49db004 	pop	{fp}		; (ldr fp, [sp], #4)
    86f0:	e12fff1e 	bx	lr

000086f4 <_Z4pipePKcj>:
_Z4pipePKcj():
/home/hintik/dev/KIV-RTOS-master/sources/stdlib/src/stdfile.cpp:167

const char Pipe_File_Prefix[] = "SYS:pipe/";

uint32_t pipe(const char* name, uint32_t buf_size)
{
    86f4:	e92d4800 	push	{fp, lr}
    86f8:	e28db004 	add	fp, sp, #4
    86fc:	e24dd050 	sub	sp, sp, #80	; 0x50
    8700:	e50b0050 	str	r0, [fp, #-80]	; 0xffffffb0
    8704:	e50b1054 	str	r1, [fp, #-84]	; 0xffffffac
/home/hintik/dev/KIV-RTOS-master/sources/stdlib/src/stdfile.cpp:169
    char fname[64];
    strncpy(fname, Pipe_File_Prefix, sizeof(Pipe_File_Prefix));
    8708:	e24b3048 	sub	r3, fp, #72	; 0x48
    870c:	e3a0200a 	mov	r2, #10
    8710:	e59f108c 	ldr	r1, [pc, #140]	; 87a4 <_Z4pipePKcj+0xb0>
    8714:	e1a00003 	mov	r0, r3
    8718:	eb0000a6 	bl	89b8 <_Z7strncpyPcPKci>
/home/hintik/dev/KIV-RTOS-master/sources/stdlib/src/stdfile.cpp:170
    strncpy(fname + sizeof(Pipe_File_Prefix), name, sizeof(fname) - sizeof(Pipe_File_Prefix) - 1);
    871c:	e24b3048 	sub	r3, fp, #72	; 0x48
    8720:	e283300a 	add	r3, r3, #10
    8724:	e3a02035 	mov	r2, #53	; 0x35
    8728:	e51b1050 	ldr	r1, [fp, #-80]	; 0xffffffb0
    872c:	e1a00003 	mov	r0, r3
    8730:	eb0000a0 	bl	89b8 <_Z7strncpyPcPKci>
/home/hintik/dev/KIV-RTOS-master/sources/stdlib/src/stdfile.cpp:172

    int ncur = sizeof(Pipe_File_Prefix) + strlen(name);
    8734:	e51b0050 	ldr	r0, [fp, #-80]	; 0xffffffb0
    8738:	eb0000f9 	bl	8b24 <_Z6strlenPKc>
    873c:	e1a03000 	mov	r3, r0
    8740:	e283300a 	add	r3, r3, #10
    8744:	e50b3008 	str	r3, [fp, #-8]
/home/hintik/dev/KIV-RTOS-master/sources/stdlib/src/stdfile.cpp:174

    fname[ncur++] = '#';
    8748:	e51b3008 	ldr	r3, [fp, #-8]
    874c:	e2832001 	add	r2, r3, #1
    8750:	e50b2008 	str	r2, [fp, #-8]
    8754:	e24b2004 	sub	r2, fp, #4
    8758:	e0823003 	add	r3, r2, r3
    875c:	e3a02023 	mov	r2, #35	; 0x23
    8760:	e5432044 	strb	r2, [r3, #-68]	; 0xffffffbc
/home/hintik/dev/KIV-RTOS-master/sources/stdlib/src/stdfile.cpp:176

    itoa(buf_size, &fname[ncur], 10);
    8764:	e24b2048 	sub	r2, fp, #72	; 0x48
    8768:	e51b3008 	ldr	r3, [fp, #-8]
    876c:	e0823003 	add	r3, r2, r3
    8770:	e3a0200a 	mov	r2, #10
    8774:	e1a01003 	mov	r1, r3
    8778:	e51b0054 	ldr	r0, [fp, #-84]	; 0xffffffac
    877c:	eb000009 	bl	87a8 <_Z4itoajPcj>
/home/hintik/dev/KIV-RTOS-master/sources/stdlib/src/stdfile.cpp:178

    return open(fname, NFile_Open_Mode::Read_Write);
    8780:	e24b3048 	sub	r3, fp, #72	; 0x48
    8784:	e3a01002 	mov	r1, #2
    8788:	e1a00003 	mov	r0, r3
    878c:	ebffff0a 	bl	83bc <_Z4openPKc15NFile_Open_Mode>
    8790:	e1a03000 	mov	r3, r0
    8794:	e320f000 	nop	{0}
/home/hintik/dev/KIV-RTOS-master/sources/stdlib/src/stdfile.cpp:179
}
    8798:	e1a00003 	mov	r0, r3
    879c:	e24bd004 	sub	sp, fp, #4
    87a0:	e8bd8800 	pop	{fp, pc}
    87a4:	00008eec 	andeq	r8, r0, ip, ror #29

000087a8 <_Z4itoajPcj>:
_Z4itoajPcj():
/home/hintik/dev/KIV-RTOS-master/sources/stdlib/src/stdstring.cpp:9
{
    const char CharConvArr[] = "0123456789ABCDEF";
}

void itoa(unsigned int input, char* output, unsigned int base)
{
    87a8:	e92d4800 	push	{fp, lr}
    87ac:	e28db004 	add	fp, sp, #4
    87b0:	e24dd020 	sub	sp, sp, #32
    87b4:	e50b0018 	str	r0, [fp, #-24]	; 0xffffffe8
    87b8:	e50b101c 	str	r1, [fp, #-28]	; 0xffffffe4
    87bc:	e50b2020 	str	r2, [fp, #-32]	; 0xffffffe0
/home/hintik/dev/KIV-RTOS-master/sources/stdlib/src/stdstring.cpp:10
	int i = 0;
    87c0:	e3a03000 	mov	r3, #0
    87c4:	e50b3008 	str	r3, [fp, #-8]
/home/hintik/dev/KIV-RTOS-master/sources/stdlib/src/stdstring.cpp:12

	while (input > 0)
    87c8:	e51b3018 	ldr	r3, [fp, #-24]	; 0xffffffe8
    87cc:	e3530000 	cmp	r3, #0
    87d0:	0a000014 	beq	8828 <_Z4itoajPcj+0x80>
/home/hintik/dev/KIV-RTOS-master/sources/stdlib/src/stdstring.cpp:14
	{
		output[i] = CharConvArr[input % base];
    87d4:	e51b3018 	ldr	r3, [fp, #-24]	; 0xffffffe8
    87d8:	e51b1020 	ldr	r1, [fp, #-32]	; 0xffffffe0
    87dc:	e1a00003 	mov	r0, r3
    87e0:	eb000199 	bl	8e4c <__aeabi_uidivmod>
    87e4:	e1a03001 	mov	r3, r1
    87e8:	e1a01003 	mov	r1, r3
    87ec:	e51b3008 	ldr	r3, [fp, #-8]
    87f0:	e51b201c 	ldr	r2, [fp, #-28]	; 0xffffffe4
    87f4:	e0823003 	add	r3, r2, r3
    87f8:	e59f2118 	ldr	r2, [pc, #280]	; 8918 <_Z4itoajPcj+0x170>
    87fc:	e7d22001 	ldrb	r2, [r2, r1]
    8800:	e5c32000 	strb	r2, [r3]
/home/hintik/dev/KIV-RTOS-master/sources/stdlib/src/stdstring.cpp:15
		input /= base;
    8804:	e51b1020 	ldr	r1, [fp, #-32]	; 0xffffffe0
    8808:	e51b0018 	ldr	r0, [fp, #-24]	; 0xffffffe8
    880c:	eb000113 	bl	8c60 <__udivsi3>
    8810:	e1a03000 	mov	r3, r0
    8814:	e50b3018 	str	r3, [fp, #-24]	; 0xffffffe8
/home/hintik/dev/KIV-RTOS-master/sources/stdlib/src/stdstring.cpp:16
		i++;
    8818:	e51b3008 	ldr	r3, [fp, #-8]
    881c:	e2833001 	add	r3, r3, #1
    8820:	e50b3008 	str	r3, [fp, #-8]
/home/hintik/dev/KIV-RTOS-master/sources/stdlib/src/stdstring.cpp:12
	while (input > 0)
    8824:	eaffffe7 	b	87c8 <_Z4itoajPcj+0x20>
/home/hintik/dev/KIV-RTOS-master/sources/stdlib/src/stdstring.cpp:19
	}

    if (i == 0)
    8828:	e51b3008 	ldr	r3, [fp, #-8]
    882c:	e3530000 	cmp	r3, #0
    8830:	1a000007 	bne	8854 <_Z4itoajPcj+0xac>
/home/hintik/dev/KIV-RTOS-master/sources/stdlib/src/stdstring.cpp:21
    {
        output[i] = CharConvArr[0];
    8834:	e51b3008 	ldr	r3, [fp, #-8]
    8838:	e51b201c 	ldr	r2, [fp, #-28]	; 0xffffffe4
    883c:	e0823003 	add	r3, r2, r3
    8840:	e3a02030 	mov	r2, #48	; 0x30
    8844:	e5c32000 	strb	r2, [r3]
/home/hintik/dev/KIV-RTOS-master/sources/stdlib/src/stdstring.cpp:22
        i++;
    8848:	e51b3008 	ldr	r3, [fp, #-8]
    884c:	e2833001 	add	r3, r3, #1
    8850:	e50b3008 	str	r3, [fp, #-8]
/home/hintik/dev/KIV-RTOS-master/sources/stdlib/src/stdstring.cpp:25
    }

	output[i] = '\0';
    8854:	e51b3008 	ldr	r3, [fp, #-8]
    8858:	e51b201c 	ldr	r2, [fp, #-28]	; 0xffffffe4
    885c:	e0823003 	add	r3, r2, r3
    8860:	e3a02000 	mov	r2, #0
    8864:	e5c32000 	strb	r2, [r3]
/home/hintik/dev/KIV-RTOS-master/sources/stdlib/src/stdstring.cpp:26
	i--;
    8868:	e51b3008 	ldr	r3, [fp, #-8]
    886c:	e2433001 	sub	r3, r3, #1
    8870:	e50b3008 	str	r3, [fp, #-8]
/home/hintik/dev/KIV-RTOS-master/sources/stdlib/src/stdstring.cpp:28

	for (int j = 0; j <= i/2; j++)
    8874:	e3a03000 	mov	r3, #0
    8878:	e50b300c 	str	r3, [fp, #-12]
/home/hintik/dev/KIV-RTOS-master/sources/stdlib/src/stdstring.cpp:28 (discriminator 3)
    887c:	e51b3008 	ldr	r3, [fp, #-8]
    8880:	e1a02fa3 	lsr	r2, r3, #31
    8884:	e0823003 	add	r3, r2, r3
    8888:	e1a030c3 	asr	r3, r3, #1
    888c:	e1a02003 	mov	r2, r3
    8890:	e51b300c 	ldr	r3, [fp, #-12]
    8894:	e1530002 	cmp	r3, r2
    8898:	ca00001b 	bgt	890c <_Z4itoajPcj+0x164>
/home/hintik/dev/KIV-RTOS-master/sources/stdlib/src/stdstring.cpp:30 (discriminator 2)
	{
		char c = output[i - j];
    889c:	e51b2008 	ldr	r2, [fp, #-8]
    88a0:	e51b300c 	ldr	r3, [fp, #-12]
    88a4:	e0423003 	sub	r3, r2, r3
    88a8:	e1a02003 	mov	r2, r3
    88ac:	e51b301c 	ldr	r3, [fp, #-28]	; 0xffffffe4
    88b0:	e0833002 	add	r3, r3, r2
    88b4:	e5d33000 	ldrb	r3, [r3]
    88b8:	e54b300d 	strb	r3, [fp, #-13]
/home/hintik/dev/KIV-RTOS-master/sources/stdlib/src/stdstring.cpp:31 (discriminator 2)
		output[i - j] = output[j];
    88bc:	e51b300c 	ldr	r3, [fp, #-12]
    88c0:	e51b201c 	ldr	r2, [fp, #-28]	; 0xffffffe4
    88c4:	e0822003 	add	r2, r2, r3
    88c8:	e51b1008 	ldr	r1, [fp, #-8]
    88cc:	e51b300c 	ldr	r3, [fp, #-12]
    88d0:	e0413003 	sub	r3, r1, r3
    88d4:	e1a01003 	mov	r1, r3
    88d8:	e51b301c 	ldr	r3, [fp, #-28]	; 0xffffffe4
    88dc:	e0833001 	add	r3, r3, r1
    88e0:	e5d22000 	ldrb	r2, [r2]
    88e4:	e5c32000 	strb	r2, [r3]
/home/hintik/dev/KIV-RTOS-master/sources/stdlib/src/stdstring.cpp:32 (discriminator 2)
		output[j] = c;
    88e8:	e51b300c 	ldr	r3, [fp, #-12]
    88ec:	e51b201c 	ldr	r2, [fp, #-28]	; 0xffffffe4
    88f0:	e0823003 	add	r3, r2, r3
    88f4:	e55b200d 	ldrb	r2, [fp, #-13]
    88f8:	e5c32000 	strb	r2, [r3]
/home/hintik/dev/KIV-RTOS-master/sources/stdlib/src/stdstring.cpp:28 (discriminator 2)
	for (int j = 0; j <= i/2; j++)
    88fc:	e51b300c 	ldr	r3, [fp, #-12]
    8900:	e2833001 	add	r3, r3, #1
    8904:	e50b300c 	str	r3, [fp, #-12]
    8908:	eaffffdb 	b	887c <_Z4itoajPcj+0xd4>
/home/hintik/dev/KIV-RTOS-master/sources/stdlib/src/stdstring.cpp:34
	}
}
    890c:	e320f000 	nop	{0}
    8910:	e24bd004 	sub	sp, fp, #4
    8914:	e8bd8800 	pop	{fp, pc}
    8918:	00008ef8 	strdeq	r8, [r0], -r8	; <UNPREDICTABLE>

0000891c <_Z4atoiPKc>:
_Z4atoiPKc():
/home/hintik/dev/KIV-RTOS-master/sources/stdlib/src/stdstring.cpp:37

int atoi(const char* input)
{
    891c:	e52db004 	push	{fp}		; (str fp, [sp, #-4]!)
    8920:	e28db000 	add	fp, sp, #0
    8924:	e24dd014 	sub	sp, sp, #20
    8928:	e50b0010 	str	r0, [fp, #-16]
/home/hintik/dev/KIV-RTOS-master/sources/stdlib/src/stdstring.cpp:38
	int output = 0;
    892c:	e3a03000 	mov	r3, #0
    8930:	e50b3008 	str	r3, [fp, #-8]
/home/hintik/dev/KIV-RTOS-master/sources/stdlib/src/stdstring.cpp:40

	while (*input != '\0')
    8934:	e51b3010 	ldr	r3, [fp, #-16]
    8938:	e5d33000 	ldrb	r3, [r3]
    893c:	e3530000 	cmp	r3, #0
    8940:	0a000017 	beq	89a4 <_Z4atoiPKc+0x88>
/home/hintik/dev/KIV-RTOS-master/sources/stdlib/src/stdstring.cpp:42
	{
		output *= 10;
    8944:	e51b2008 	ldr	r2, [fp, #-8]
    8948:	e1a03002 	mov	r3, r2
    894c:	e1a03103 	lsl	r3, r3, #2
    8950:	e0833002 	add	r3, r3, r2
    8954:	e1a03083 	lsl	r3, r3, #1
    8958:	e50b3008 	str	r3, [fp, #-8]
/home/hintik/dev/KIV-RTOS-master/sources/stdlib/src/stdstring.cpp:43
		if (*input > '9' || *input < '0')
    895c:	e51b3010 	ldr	r3, [fp, #-16]
    8960:	e5d33000 	ldrb	r3, [r3]
    8964:	e3530039 	cmp	r3, #57	; 0x39
    8968:	8a00000d 	bhi	89a4 <_Z4atoiPKc+0x88>
/home/hintik/dev/KIV-RTOS-master/sources/stdlib/src/stdstring.cpp:43 (discriminator 1)
    896c:	e51b3010 	ldr	r3, [fp, #-16]
    8970:	e5d33000 	ldrb	r3, [r3]
    8974:	e353002f 	cmp	r3, #47	; 0x2f
    8978:	9a000009 	bls	89a4 <_Z4atoiPKc+0x88>
/home/hintik/dev/KIV-RTOS-master/sources/stdlib/src/stdstring.cpp:46
			break;

		output += *input - '0';
    897c:	e51b3010 	ldr	r3, [fp, #-16]
    8980:	e5d33000 	ldrb	r3, [r3]
    8984:	e2433030 	sub	r3, r3, #48	; 0x30
    8988:	e51b2008 	ldr	r2, [fp, #-8]
    898c:	e0823003 	add	r3, r2, r3
    8990:	e50b3008 	str	r3, [fp, #-8]
/home/hintik/dev/KIV-RTOS-master/sources/stdlib/src/stdstring.cpp:48

		input++;
    8994:	e51b3010 	ldr	r3, [fp, #-16]
    8998:	e2833001 	add	r3, r3, #1
    899c:	e50b3010 	str	r3, [fp, #-16]
/home/hintik/dev/KIV-RTOS-master/sources/stdlib/src/stdstring.cpp:40
	while (*input != '\0')
    89a0:	eaffffe3 	b	8934 <_Z4atoiPKc+0x18>
/home/hintik/dev/KIV-RTOS-master/sources/stdlib/src/stdstring.cpp:51
	}

	return output;
    89a4:	e51b3008 	ldr	r3, [fp, #-8]
/home/hintik/dev/KIV-RTOS-master/sources/stdlib/src/stdstring.cpp:52
}
    89a8:	e1a00003 	mov	r0, r3
    89ac:	e28bd000 	add	sp, fp, #0
    89b0:	e49db004 	pop	{fp}		; (ldr fp, [sp], #4)
    89b4:	e12fff1e 	bx	lr

000089b8 <_Z7strncpyPcPKci>:
_Z7strncpyPcPKci():
/home/hintik/dev/KIV-RTOS-master/sources/stdlib/src/stdstring.cpp:55

char* strncpy(char* dest, const char *src, int num)
{
    89b8:	e52db004 	push	{fp}		; (str fp, [sp, #-4]!)
    89bc:	e28db000 	add	fp, sp, #0
    89c0:	e24dd01c 	sub	sp, sp, #28
    89c4:	e50b0010 	str	r0, [fp, #-16]
    89c8:	e50b1014 	str	r1, [fp, #-20]	; 0xffffffec
    89cc:	e50b2018 	str	r2, [fp, #-24]	; 0xffffffe8
/home/hintik/dev/KIV-RTOS-master/sources/stdlib/src/stdstring.cpp:58
	int i;

	for (i = 0; i < num && src[i] != '\0'; i++)
    89d0:	e3a03000 	mov	r3, #0
    89d4:	e50b3008 	str	r3, [fp, #-8]
/home/hintik/dev/KIV-RTOS-master/sources/stdlib/src/stdstring.cpp:58 (discriminator 4)
    89d8:	e51b2008 	ldr	r2, [fp, #-8]
    89dc:	e51b3018 	ldr	r3, [fp, #-24]	; 0xffffffe8
    89e0:	e1520003 	cmp	r2, r3
    89e4:	aa000011 	bge	8a30 <_Z7strncpyPcPKci+0x78>
/home/hintik/dev/KIV-RTOS-master/sources/stdlib/src/stdstring.cpp:58 (discriminator 2)
    89e8:	e51b3008 	ldr	r3, [fp, #-8]
    89ec:	e51b2014 	ldr	r2, [fp, #-20]	; 0xffffffec
    89f0:	e0823003 	add	r3, r2, r3
    89f4:	e5d33000 	ldrb	r3, [r3]
    89f8:	e3530000 	cmp	r3, #0
    89fc:	0a00000b 	beq	8a30 <_Z7strncpyPcPKci+0x78>
/home/hintik/dev/KIV-RTOS-master/sources/stdlib/src/stdstring.cpp:59 (discriminator 3)
		dest[i] = src[i];
    8a00:	e51b3008 	ldr	r3, [fp, #-8]
    8a04:	e51b2014 	ldr	r2, [fp, #-20]	; 0xffffffec
    8a08:	e0822003 	add	r2, r2, r3
    8a0c:	e51b3008 	ldr	r3, [fp, #-8]
    8a10:	e51b1010 	ldr	r1, [fp, #-16]
    8a14:	e0813003 	add	r3, r1, r3
    8a18:	e5d22000 	ldrb	r2, [r2]
    8a1c:	e5c32000 	strb	r2, [r3]
/home/hintik/dev/KIV-RTOS-master/sources/stdlib/src/stdstring.cpp:58 (discriminator 3)
	for (i = 0; i < num && src[i] != '\0'; i++)
    8a20:	e51b3008 	ldr	r3, [fp, #-8]
    8a24:	e2833001 	add	r3, r3, #1
    8a28:	e50b3008 	str	r3, [fp, #-8]
    8a2c:	eaffffe9 	b	89d8 <_Z7strncpyPcPKci+0x20>
/home/hintik/dev/KIV-RTOS-master/sources/stdlib/src/stdstring.cpp:60 (discriminator 2)
	for (; i < num; i++)
    8a30:	e51b2008 	ldr	r2, [fp, #-8]
    8a34:	e51b3018 	ldr	r3, [fp, #-24]	; 0xffffffe8
    8a38:	e1520003 	cmp	r2, r3
    8a3c:	aa000008 	bge	8a64 <_Z7strncpyPcPKci+0xac>
/home/hintik/dev/KIV-RTOS-master/sources/stdlib/src/stdstring.cpp:61 (discriminator 1)
		dest[i] = '\0';
    8a40:	e51b3008 	ldr	r3, [fp, #-8]
    8a44:	e51b2010 	ldr	r2, [fp, #-16]
    8a48:	e0823003 	add	r3, r2, r3
    8a4c:	e3a02000 	mov	r2, #0
    8a50:	e5c32000 	strb	r2, [r3]
/home/hintik/dev/KIV-RTOS-master/sources/stdlib/src/stdstring.cpp:60 (discriminator 1)
	for (; i < num; i++)
    8a54:	e51b3008 	ldr	r3, [fp, #-8]
    8a58:	e2833001 	add	r3, r3, #1
    8a5c:	e50b3008 	str	r3, [fp, #-8]
    8a60:	eafffff2 	b	8a30 <_Z7strncpyPcPKci+0x78>
/home/hintik/dev/KIV-RTOS-master/sources/stdlib/src/stdstring.cpp:63

   return dest;
    8a64:	e51b3010 	ldr	r3, [fp, #-16]
/home/hintik/dev/KIV-RTOS-master/sources/stdlib/src/stdstring.cpp:64
}
    8a68:	e1a00003 	mov	r0, r3
    8a6c:	e28bd000 	add	sp, fp, #0
    8a70:	e49db004 	pop	{fp}		; (ldr fp, [sp], #4)
    8a74:	e12fff1e 	bx	lr

00008a78 <_Z7strncmpPKcS0_i>:
_Z7strncmpPKcS0_i():
/home/hintik/dev/KIV-RTOS-master/sources/stdlib/src/stdstring.cpp:67

int strncmp(const char *s1, const char *s2, int num)
{
    8a78:	e52db004 	push	{fp}		; (str fp, [sp, #-4]!)
    8a7c:	e28db000 	add	fp, sp, #0
    8a80:	e24dd01c 	sub	sp, sp, #28
    8a84:	e50b0010 	str	r0, [fp, #-16]
    8a88:	e50b1014 	str	r1, [fp, #-20]	; 0xffffffec
    8a8c:	e50b2018 	str	r2, [fp, #-24]	; 0xffffffe8
/home/hintik/dev/KIV-RTOS-master/sources/stdlib/src/stdstring.cpp:69
	unsigned char u1, u2;
  	while (num-- > 0)
    8a90:	e51b3018 	ldr	r3, [fp, #-24]	; 0xffffffe8
    8a94:	e2432001 	sub	r2, r3, #1
    8a98:	e50b2018 	str	r2, [fp, #-24]	; 0xffffffe8
    8a9c:	e3530000 	cmp	r3, #0
    8aa0:	c3a03001 	movgt	r3, #1
    8aa4:	d3a03000 	movle	r3, #0
    8aa8:	e6ef3073 	uxtb	r3, r3
    8aac:	e3530000 	cmp	r3, #0
    8ab0:	0a000016 	beq	8b10 <_Z7strncmpPKcS0_i+0x98>
/home/hintik/dev/KIV-RTOS-master/sources/stdlib/src/stdstring.cpp:71
    {
      	u1 = (unsigned char) *s1++;
    8ab4:	e51b3010 	ldr	r3, [fp, #-16]
    8ab8:	e2832001 	add	r2, r3, #1
    8abc:	e50b2010 	str	r2, [fp, #-16]
    8ac0:	e5d33000 	ldrb	r3, [r3]
    8ac4:	e54b3005 	strb	r3, [fp, #-5]
/home/hintik/dev/KIV-RTOS-master/sources/stdlib/src/stdstring.cpp:72
     	u2 = (unsigned char) *s2++;
    8ac8:	e51b3014 	ldr	r3, [fp, #-20]	; 0xffffffec
    8acc:	e2832001 	add	r2, r3, #1
    8ad0:	e50b2014 	str	r2, [fp, #-20]	; 0xffffffec
    8ad4:	e5d33000 	ldrb	r3, [r3]
    8ad8:	e54b3006 	strb	r3, [fp, #-6]
/home/hintik/dev/KIV-RTOS-master/sources/stdlib/src/stdstring.cpp:73
      	if (u1 != u2)
    8adc:	e55b2005 	ldrb	r2, [fp, #-5]
    8ae0:	e55b3006 	ldrb	r3, [fp, #-6]
    8ae4:	e1520003 	cmp	r2, r3
    8ae8:	0a000003 	beq	8afc <_Z7strncmpPKcS0_i+0x84>
/home/hintik/dev/KIV-RTOS-master/sources/stdlib/src/stdstring.cpp:74
        	return u1 - u2;
    8aec:	e55b2005 	ldrb	r2, [fp, #-5]
    8af0:	e55b3006 	ldrb	r3, [fp, #-6]
    8af4:	e0423003 	sub	r3, r2, r3
    8af8:	ea000005 	b	8b14 <_Z7strncmpPKcS0_i+0x9c>
/home/hintik/dev/KIV-RTOS-master/sources/stdlib/src/stdstring.cpp:75
      	if (u1 == '\0')
    8afc:	e55b3005 	ldrb	r3, [fp, #-5]
    8b00:	e3530000 	cmp	r3, #0
    8b04:	1affffe1 	bne	8a90 <_Z7strncmpPKcS0_i+0x18>
/home/hintik/dev/KIV-RTOS-master/sources/stdlib/src/stdstring.cpp:76
        	return 0;
    8b08:	e3a03000 	mov	r3, #0
    8b0c:	ea000000 	b	8b14 <_Z7strncmpPKcS0_i+0x9c>
/home/hintik/dev/KIV-RTOS-master/sources/stdlib/src/stdstring.cpp:79
    }

  	return 0;
    8b10:	e3a03000 	mov	r3, #0
/home/hintik/dev/KIV-RTOS-master/sources/stdlib/src/stdstring.cpp:80
}
    8b14:	e1a00003 	mov	r0, r3
    8b18:	e28bd000 	add	sp, fp, #0
    8b1c:	e49db004 	pop	{fp}		; (ldr fp, [sp], #4)
    8b20:	e12fff1e 	bx	lr

00008b24 <_Z6strlenPKc>:
_Z6strlenPKc():
/home/hintik/dev/KIV-RTOS-master/sources/stdlib/src/stdstring.cpp:83

int strlen(const char* s)
{
    8b24:	e52db004 	push	{fp}		; (str fp, [sp, #-4]!)
    8b28:	e28db000 	add	fp, sp, #0
    8b2c:	e24dd014 	sub	sp, sp, #20
    8b30:	e50b0010 	str	r0, [fp, #-16]
/home/hintik/dev/KIV-RTOS-master/sources/stdlib/src/stdstring.cpp:84
	int i = 0;
    8b34:	e3a03000 	mov	r3, #0
    8b38:	e50b3008 	str	r3, [fp, #-8]
/home/hintik/dev/KIV-RTOS-master/sources/stdlib/src/stdstring.cpp:86

	while (s[i] != '\0')
    8b3c:	e51b3008 	ldr	r3, [fp, #-8]
    8b40:	e51b2010 	ldr	r2, [fp, #-16]
    8b44:	e0823003 	add	r3, r2, r3
    8b48:	e5d33000 	ldrb	r3, [r3]
    8b4c:	e3530000 	cmp	r3, #0
    8b50:	0a000003 	beq	8b64 <_Z6strlenPKc+0x40>
/home/hintik/dev/KIV-RTOS-master/sources/stdlib/src/stdstring.cpp:87
		i++;
    8b54:	e51b3008 	ldr	r3, [fp, #-8]
    8b58:	e2833001 	add	r3, r3, #1
    8b5c:	e50b3008 	str	r3, [fp, #-8]
/home/hintik/dev/KIV-RTOS-master/sources/stdlib/src/stdstring.cpp:86
	while (s[i] != '\0')
    8b60:	eafffff5 	b	8b3c <_Z6strlenPKc+0x18>
/home/hintik/dev/KIV-RTOS-master/sources/stdlib/src/stdstring.cpp:89

	return i;
    8b64:	e51b3008 	ldr	r3, [fp, #-8]
/home/hintik/dev/KIV-RTOS-master/sources/stdlib/src/stdstring.cpp:90
}
    8b68:	e1a00003 	mov	r0, r3
    8b6c:	e28bd000 	add	sp, fp, #0
    8b70:	e49db004 	pop	{fp}		; (ldr fp, [sp], #4)
    8b74:	e12fff1e 	bx	lr

00008b78 <_Z5bzeroPvi>:
_Z5bzeroPvi():
/home/hintik/dev/KIV-RTOS-master/sources/stdlib/src/stdstring.cpp:93

void bzero(void* memory, int length)
{
    8b78:	e52db004 	push	{fp}		; (str fp, [sp, #-4]!)
    8b7c:	e28db000 	add	fp, sp, #0
    8b80:	e24dd014 	sub	sp, sp, #20
    8b84:	e50b0010 	str	r0, [fp, #-16]
    8b88:	e50b1014 	str	r1, [fp, #-20]	; 0xffffffec
/home/hintik/dev/KIV-RTOS-master/sources/stdlib/src/stdstring.cpp:94
	char* mem = reinterpret_cast<char*>(memory);
    8b8c:	e51b3010 	ldr	r3, [fp, #-16]
    8b90:	e50b300c 	str	r3, [fp, #-12]
/home/hintik/dev/KIV-RTOS-master/sources/stdlib/src/stdstring.cpp:96

	for (int i = 0; i < length; i++)
    8b94:	e3a03000 	mov	r3, #0
    8b98:	e50b3008 	str	r3, [fp, #-8]
/home/hintik/dev/KIV-RTOS-master/sources/stdlib/src/stdstring.cpp:96 (discriminator 3)
    8b9c:	e51b2008 	ldr	r2, [fp, #-8]
    8ba0:	e51b3014 	ldr	r3, [fp, #-20]	; 0xffffffec
    8ba4:	e1520003 	cmp	r2, r3
    8ba8:	aa000008 	bge	8bd0 <_Z5bzeroPvi+0x58>
/home/hintik/dev/KIV-RTOS-master/sources/stdlib/src/stdstring.cpp:97 (discriminator 2)
		mem[i] = 0;
    8bac:	e51b3008 	ldr	r3, [fp, #-8]
    8bb0:	e51b200c 	ldr	r2, [fp, #-12]
    8bb4:	e0823003 	add	r3, r2, r3
    8bb8:	e3a02000 	mov	r2, #0
    8bbc:	e5c32000 	strb	r2, [r3]
/home/hintik/dev/KIV-RTOS-master/sources/stdlib/src/stdstring.cpp:96 (discriminator 2)
	for (int i = 0; i < length; i++)
    8bc0:	e51b3008 	ldr	r3, [fp, #-8]
    8bc4:	e2833001 	add	r3, r3, #1
    8bc8:	e50b3008 	str	r3, [fp, #-8]
    8bcc:	eafffff2 	b	8b9c <_Z5bzeroPvi+0x24>
/home/hintik/dev/KIV-RTOS-master/sources/stdlib/src/stdstring.cpp:98
}
    8bd0:	e320f000 	nop	{0}
    8bd4:	e28bd000 	add	sp, fp, #0
    8bd8:	e49db004 	pop	{fp}		; (ldr fp, [sp], #4)
    8bdc:	e12fff1e 	bx	lr

00008be0 <_Z6memcpyPKvPvi>:
_Z6memcpyPKvPvi():
/home/hintik/dev/KIV-RTOS-master/sources/stdlib/src/stdstring.cpp:101

void memcpy(const void* src, void* dst, int num)
{
    8be0:	e52db004 	push	{fp}		; (str fp, [sp, #-4]!)
    8be4:	e28db000 	add	fp, sp, #0
    8be8:	e24dd024 	sub	sp, sp, #36	; 0x24
    8bec:	e50b0018 	str	r0, [fp, #-24]	; 0xffffffe8
    8bf0:	e50b101c 	str	r1, [fp, #-28]	; 0xffffffe4
    8bf4:	e50b2020 	str	r2, [fp, #-32]	; 0xffffffe0
/home/hintik/dev/KIV-RTOS-master/sources/stdlib/src/stdstring.cpp:102
	const char* memsrc = reinterpret_cast<const char*>(src);
    8bf8:	e51b3018 	ldr	r3, [fp, #-24]	; 0xffffffe8
    8bfc:	e50b300c 	str	r3, [fp, #-12]
/home/hintik/dev/KIV-RTOS-master/sources/stdlib/src/stdstring.cpp:103
	char* memdst = reinterpret_cast<char*>(dst);
    8c00:	e51b301c 	ldr	r3, [fp, #-28]	; 0xffffffe4
    8c04:	e50b3010 	str	r3, [fp, #-16]
/home/hintik/dev/KIV-RTOS-master/sources/stdlib/src/stdstring.cpp:105

	for (int i = 0; i < num; i++)
    8c08:	e3a03000 	mov	r3, #0
    8c0c:	e50b3008 	str	r3, [fp, #-8]
/home/hintik/dev/KIV-RTOS-master/sources/stdlib/src/stdstring.cpp:105 (discriminator 3)
    8c10:	e51b2008 	ldr	r2, [fp, #-8]
    8c14:	e51b3020 	ldr	r3, [fp, #-32]	; 0xffffffe0
    8c18:	e1520003 	cmp	r2, r3
    8c1c:	aa00000b 	bge	8c50 <_Z6memcpyPKvPvi+0x70>
/home/hintik/dev/KIV-RTOS-master/sources/stdlib/src/stdstring.cpp:106 (discriminator 2)
		memdst[i] = memsrc[i];
    8c20:	e51b3008 	ldr	r3, [fp, #-8]
    8c24:	e51b200c 	ldr	r2, [fp, #-12]
    8c28:	e0822003 	add	r2, r2, r3
    8c2c:	e51b3008 	ldr	r3, [fp, #-8]
    8c30:	e51b1010 	ldr	r1, [fp, #-16]
    8c34:	e0813003 	add	r3, r1, r3
    8c38:	e5d22000 	ldrb	r2, [r2]
    8c3c:	e5c32000 	strb	r2, [r3]
/home/hintik/dev/KIV-RTOS-master/sources/stdlib/src/stdstring.cpp:105 (discriminator 2)
	for (int i = 0; i < num; i++)
    8c40:	e51b3008 	ldr	r3, [fp, #-8]
    8c44:	e2833001 	add	r3, r3, #1
    8c48:	e50b3008 	str	r3, [fp, #-8]
    8c4c:	eaffffef 	b	8c10 <_Z6memcpyPKvPvi+0x30>
/home/hintik/dev/KIV-RTOS-master/sources/stdlib/src/stdstring.cpp:107
}
    8c50:	e320f000 	nop	{0}
    8c54:	e28bd000 	add	sp, fp, #0
    8c58:	e49db004 	pop	{fp}		; (ldr fp, [sp], #4)
    8c5c:	e12fff1e 	bx	lr

00008c60 <__udivsi3>:
__udivsi3():
/build/gcc-arm-none-eabi-zSbVfn/gcc-arm-none-eabi-8-2019-q3/build/arm-none-eabi/arm/v5te/hard/libgcc/../../../../../../libgcc/config/arm/lib1funcs.S:1150
    8c60:	e2512001 	subs	r2, r1, #1
/build/gcc-arm-none-eabi-zSbVfn/gcc-arm-none-eabi-8-2019-q3/build/arm-none-eabi/arm/v5te/hard/libgcc/../../../../../../libgcc/config/arm/lib1funcs.S:1152
    8c64:	012fff1e 	bxeq	lr
/build/gcc-arm-none-eabi-zSbVfn/gcc-arm-none-eabi-8-2019-q3/build/arm-none-eabi/arm/v5te/hard/libgcc/../../../../../../libgcc/config/arm/lib1funcs.S:1153
    8c68:	3a000074 	bcc	8e40 <__udivsi3+0x1e0>
/build/gcc-arm-none-eabi-zSbVfn/gcc-arm-none-eabi-8-2019-q3/build/arm-none-eabi/arm/v5te/hard/libgcc/../../../../../../libgcc/config/arm/lib1funcs.S:1154
    8c6c:	e1500001 	cmp	r0, r1
/build/gcc-arm-none-eabi-zSbVfn/gcc-arm-none-eabi-8-2019-q3/build/arm-none-eabi/arm/v5te/hard/libgcc/../../../../../../libgcc/config/arm/lib1funcs.S:1155
    8c70:	9a00006b 	bls	8e24 <__udivsi3+0x1c4>
/build/gcc-arm-none-eabi-zSbVfn/gcc-arm-none-eabi-8-2019-q3/build/arm-none-eabi/arm/v5te/hard/libgcc/../../../../../../libgcc/config/arm/lib1funcs.S:1156
    8c74:	e1110002 	tst	r1, r2
/build/gcc-arm-none-eabi-zSbVfn/gcc-arm-none-eabi-8-2019-q3/build/arm-none-eabi/arm/v5te/hard/libgcc/../../../../../../libgcc/config/arm/lib1funcs.S:1157
    8c78:	0a00006c 	beq	8e30 <__udivsi3+0x1d0>
/build/gcc-arm-none-eabi-zSbVfn/gcc-arm-none-eabi-8-2019-q3/build/arm-none-eabi/arm/v5te/hard/libgcc/../../../../../../libgcc/config/arm/lib1funcs.S:1159
    8c7c:	e16f3f10 	clz	r3, r0
    8c80:	e16f2f11 	clz	r2, r1
    8c84:	e0423003 	sub	r3, r2, r3
    8c88:	e273301f 	rsbs	r3, r3, #31
    8c8c:	10833083 	addne	r3, r3, r3, lsl #1
    8c90:	e3a02000 	mov	r2, #0
    8c94:	108ff103 	addne	pc, pc, r3, lsl #2
    8c98:	e1a00000 	nop			; (mov r0, r0)
    8c9c:	e1500f81 	cmp	r0, r1, lsl #31
    8ca0:	e0a22002 	adc	r2, r2, r2
    8ca4:	20400f81 	subcs	r0, r0, r1, lsl #31
    8ca8:	e1500f01 	cmp	r0, r1, lsl #30
    8cac:	e0a22002 	adc	r2, r2, r2
    8cb0:	20400f01 	subcs	r0, r0, r1, lsl #30
    8cb4:	e1500e81 	cmp	r0, r1, lsl #29
    8cb8:	e0a22002 	adc	r2, r2, r2
    8cbc:	20400e81 	subcs	r0, r0, r1, lsl #29
    8cc0:	e1500e01 	cmp	r0, r1, lsl #28
    8cc4:	e0a22002 	adc	r2, r2, r2
    8cc8:	20400e01 	subcs	r0, r0, r1, lsl #28
    8ccc:	e1500d81 	cmp	r0, r1, lsl #27
    8cd0:	e0a22002 	adc	r2, r2, r2
    8cd4:	20400d81 	subcs	r0, r0, r1, lsl #27
    8cd8:	e1500d01 	cmp	r0, r1, lsl #26
    8cdc:	e0a22002 	adc	r2, r2, r2
    8ce0:	20400d01 	subcs	r0, r0, r1, lsl #26
    8ce4:	e1500c81 	cmp	r0, r1, lsl #25
    8ce8:	e0a22002 	adc	r2, r2, r2
    8cec:	20400c81 	subcs	r0, r0, r1, lsl #25
    8cf0:	e1500c01 	cmp	r0, r1, lsl #24
    8cf4:	e0a22002 	adc	r2, r2, r2
    8cf8:	20400c01 	subcs	r0, r0, r1, lsl #24
    8cfc:	e1500b81 	cmp	r0, r1, lsl #23
    8d00:	e0a22002 	adc	r2, r2, r2
    8d04:	20400b81 	subcs	r0, r0, r1, lsl #23
    8d08:	e1500b01 	cmp	r0, r1, lsl #22
    8d0c:	e0a22002 	adc	r2, r2, r2
    8d10:	20400b01 	subcs	r0, r0, r1, lsl #22
    8d14:	e1500a81 	cmp	r0, r1, lsl #21
    8d18:	e0a22002 	adc	r2, r2, r2
    8d1c:	20400a81 	subcs	r0, r0, r1, lsl #21
    8d20:	e1500a01 	cmp	r0, r1, lsl #20
    8d24:	e0a22002 	adc	r2, r2, r2
    8d28:	20400a01 	subcs	r0, r0, r1, lsl #20
    8d2c:	e1500981 	cmp	r0, r1, lsl #19
    8d30:	e0a22002 	adc	r2, r2, r2
    8d34:	20400981 	subcs	r0, r0, r1, lsl #19
    8d38:	e1500901 	cmp	r0, r1, lsl #18
    8d3c:	e0a22002 	adc	r2, r2, r2
    8d40:	20400901 	subcs	r0, r0, r1, lsl #18
    8d44:	e1500881 	cmp	r0, r1, lsl #17
    8d48:	e0a22002 	adc	r2, r2, r2
    8d4c:	20400881 	subcs	r0, r0, r1, lsl #17
    8d50:	e1500801 	cmp	r0, r1, lsl #16
    8d54:	e0a22002 	adc	r2, r2, r2
    8d58:	20400801 	subcs	r0, r0, r1, lsl #16
    8d5c:	e1500781 	cmp	r0, r1, lsl #15
    8d60:	e0a22002 	adc	r2, r2, r2
    8d64:	20400781 	subcs	r0, r0, r1, lsl #15
    8d68:	e1500701 	cmp	r0, r1, lsl #14
    8d6c:	e0a22002 	adc	r2, r2, r2
    8d70:	20400701 	subcs	r0, r0, r1, lsl #14
    8d74:	e1500681 	cmp	r0, r1, lsl #13
    8d78:	e0a22002 	adc	r2, r2, r2
    8d7c:	20400681 	subcs	r0, r0, r1, lsl #13
    8d80:	e1500601 	cmp	r0, r1, lsl #12
    8d84:	e0a22002 	adc	r2, r2, r2
    8d88:	20400601 	subcs	r0, r0, r1, lsl #12
    8d8c:	e1500581 	cmp	r0, r1, lsl #11
    8d90:	e0a22002 	adc	r2, r2, r2
    8d94:	20400581 	subcs	r0, r0, r1, lsl #11
    8d98:	e1500501 	cmp	r0, r1, lsl #10
    8d9c:	e0a22002 	adc	r2, r2, r2
    8da0:	20400501 	subcs	r0, r0, r1, lsl #10
    8da4:	e1500481 	cmp	r0, r1, lsl #9
    8da8:	e0a22002 	adc	r2, r2, r2
    8dac:	20400481 	subcs	r0, r0, r1, lsl #9
    8db0:	e1500401 	cmp	r0, r1, lsl #8
    8db4:	e0a22002 	adc	r2, r2, r2
    8db8:	20400401 	subcs	r0, r0, r1, lsl #8
    8dbc:	e1500381 	cmp	r0, r1, lsl #7
    8dc0:	e0a22002 	adc	r2, r2, r2
    8dc4:	20400381 	subcs	r0, r0, r1, lsl #7
    8dc8:	e1500301 	cmp	r0, r1, lsl #6
    8dcc:	e0a22002 	adc	r2, r2, r2
    8dd0:	20400301 	subcs	r0, r0, r1, lsl #6
    8dd4:	e1500281 	cmp	r0, r1, lsl #5
    8dd8:	e0a22002 	adc	r2, r2, r2
    8ddc:	20400281 	subcs	r0, r0, r1, lsl #5
    8de0:	e1500201 	cmp	r0, r1, lsl #4
    8de4:	e0a22002 	adc	r2, r2, r2
    8de8:	20400201 	subcs	r0, r0, r1, lsl #4
    8dec:	e1500181 	cmp	r0, r1, lsl #3
    8df0:	e0a22002 	adc	r2, r2, r2
    8df4:	20400181 	subcs	r0, r0, r1, lsl #3
    8df8:	e1500101 	cmp	r0, r1, lsl #2
    8dfc:	e0a22002 	adc	r2, r2, r2
    8e00:	20400101 	subcs	r0, r0, r1, lsl #2
    8e04:	e1500081 	cmp	r0, r1, lsl #1
    8e08:	e0a22002 	adc	r2, r2, r2
    8e0c:	20400081 	subcs	r0, r0, r1, lsl #1
    8e10:	e1500001 	cmp	r0, r1
    8e14:	e0a22002 	adc	r2, r2, r2
    8e18:	20400001 	subcs	r0, r0, r1
/build/gcc-arm-none-eabi-zSbVfn/gcc-arm-none-eabi-8-2019-q3/build/arm-none-eabi/arm/v5te/hard/libgcc/../../../../../../libgcc/config/arm/lib1funcs.S:1161
    8e1c:	e1a00002 	mov	r0, r2
/build/gcc-arm-none-eabi-zSbVfn/gcc-arm-none-eabi-8-2019-q3/build/arm-none-eabi/arm/v5te/hard/libgcc/../../../../../../libgcc/config/arm/lib1funcs.S:1162
    8e20:	e12fff1e 	bx	lr
/build/gcc-arm-none-eabi-zSbVfn/gcc-arm-none-eabi-8-2019-q3/build/arm-none-eabi/arm/v5te/hard/libgcc/../../../../../../libgcc/config/arm/lib1funcs.S:1165
    8e24:	03a00001 	moveq	r0, #1
/build/gcc-arm-none-eabi-zSbVfn/gcc-arm-none-eabi-8-2019-q3/build/arm-none-eabi/arm/v5te/hard/libgcc/../../../../../../libgcc/config/arm/lib1funcs.S:1166
    8e28:	13a00000 	movne	r0, #0
/build/gcc-arm-none-eabi-zSbVfn/gcc-arm-none-eabi-8-2019-q3/build/arm-none-eabi/arm/v5te/hard/libgcc/../../../../../../libgcc/config/arm/lib1funcs.S:1167
    8e2c:	e12fff1e 	bx	lr
/build/gcc-arm-none-eabi-zSbVfn/gcc-arm-none-eabi-8-2019-q3/build/arm-none-eabi/arm/v5te/hard/libgcc/../../../../../../libgcc/config/arm/lib1funcs.S:1169
    8e30:	e16f2f11 	clz	r2, r1
    8e34:	e262201f 	rsb	r2, r2, #31
/build/gcc-arm-none-eabi-zSbVfn/gcc-arm-none-eabi-8-2019-q3/build/arm-none-eabi/arm/v5te/hard/libgcc/../../../../../../libgcc/config/arm/lib1funcs.S:1171
    8e38:	e1a00230 	lsr	r0, r0, r2
/build/gcc-arm-none-eabi-zSbVfn/gcc-arm-none-eabi-8-2019-q3/build/arm-none-eabi/arm/v5te/hard/libgcc/../../../../../../libgcc/config/arm/lib1funcs.S:1172
    8e3c:	e12fff1e 	bx	lr
/build/gcc-arm-none-eabi-zSbVfn/gcc-arm-none-eabi-8-2019-q3/build/arm-none-eabi/arm/v5te/hard/libgcc/../../../../../../libgcc/config/arm/lib1funcs.S:1176
    8e40:	e3500000 	cmp	r0, #0
    8e44:	13e00000 	mvnne	r0, #0
    8e48:	ea000007 	b	8e6c <__aeabi_idiv0>

00008e4c <__aeabi_uidivmod>:
__aeabi_uidivmod():
/build/gcc-arm-none-eabi-zSbVfn/gcc-arm-none-eabi-8-2019-q3/build/arm-none-eabi/arm/v5te/hard/libgcc/../../../../../../libgcc/config/arm/lib1funcs.S:1207
    8e4c:	e3510000 	cmp	r1, #0
/build/gcc-arm-none-eabi-zSbVfn/gcc-arm-none-eabi-8-2019-q3/build/arm-none-eabi/arm/v5te/hard/libgcc/../../../../../../libgcc/config/arm/lib1funcs.S:1208
    8e50:	0afffffa 	beq	8e40 <__udivsi3+0x1e0>
/build/gcc-arm-none-eabi-zSbVfn/gcc-arm-none-eabi-8-2019-q3/build/arm-none-eabi/arm/v5te/hard/libgcc/../../../../../../libgcc/config/arm/lib1funcs.S:1209
    8e54:	e92d4003 	push	{r0, r1, lr}
/build/gcc-arm-none-eabi-zSbVfn/gcc-arm-none-eabi-8-2019-q3/build/arm-none-eabi/arm/v5te/hard/libgcc/../../../../../../libgcc/config/arm/lib1funcs.S:1210
    8e58:	ebffff80 	bl	8c60 <__udivsi3>
/build/gcc-arm-none-eabi-zSbVfn/gcc-arm-none-eabi-8-2019-q3/build/arm-none-eabi/arm/v5te/hard/libgcc/../../../../../../libgcc/config/arm/lib1funcs.S:1211
    8e5c:	e8bd4006 	pop	{r1, r2, lr}
/build/gcc-arm-none-eabi-zSbVfn/gcc-arm-none-eabi-8-2019-q3/build/arm-none-eabi/arm/v5te/hard/libgcc/../../../../../../libgcc/config/arm/lib1funcs.S:1212
    8e60:	e0030092 	mul	r3, r2, r0
/build/gcc-arm-none-eabi-zSbVfn/gcc-arm-none-eabi-8-2019-q3/build/arm-none-eabi/arm/v5te/hard/libgcc/../../../../../../libgcc/config/arm/lib1funcs.S:1213
    8e64:	e0411003 	sub	r1, r1, r3
/build/gcc-arm-none-eabi-zSbVfn/gcc-arm-none-eabi-8-2019-q3/build/arm-none-eabi/arm/v5te/hard/libgcc/../../../../../../libgcc/config/arm/lib1funcs.S:1214
    8e68:	e12fff1e 	bx	lr

00008e6c <__aeabi_idiv0>:
__aeabi_ldiv0():
/build/gcc-arm-none-eabi-zSbVfn/gcc-arm-none-eabi-8-2019-q3/build/arm-none-eabi/arm/v5te/hard/libgcc/../../../../../../libgcc/config/arm/lib1funcs.S:1512
    8e6c:	e12fff1e 	bx	lr
